---
triple:          'arm64-apple-darwin'
binary-path:     'build/debug.out'
relocations:
  - { offsetInCU: 0x5C, offset: 0x5C, size: 0x8, addend: 0x0, symName: __ZNSt3__119piecewise_constructE, symObjAddr: 0x456A8, symBinAddr: 0x100049DC0, symSize: 0x0 }
  - { offsetInCU: 0xECE7, offset: 0xECE7, size: 0x8, addend: 0x0, symName: __ZNSt3__16copy_nB8ue170006INS_11__wrap_iterIP5PointEElNS_16__deque_iteratorIS2_S3_RS2_PS3_lLl512EEEEENS_9enable_ifIXsr37__has_random_access_iterator_categoryIT_EE5valueET1_E4typeESA_T0_SB_, symObjAddr: 0xCC44, symBinAddr: 0x100010368, symSize: 0x78 }
  - { offsetInCU: 0xF813, offset: 0xF813, size: 0x8, addend: 0x0, symName: __ZNSt3__17advanceB8ue170006INS_16__deque_iteratorI8MyStringPS2_RS2_PS3_lLl512EEEllvEEvRT_T0_, symObjAddr: 0x15A1C, symBinAddr: 0x100019140, symSize: 0x38 }
  - { offsetInCU: 0x1223B, offset: 0x1223B, size: 0x8, addend: 0x0, symName: __ZNSt3__117__floyd_sift_downB8ue170006INS_17_ClassicAlgPolicyERNS_4lessIiEENS_11__wrap_iterIPiEEEET1_S8_OT0_NS_15iterator_traitsIS8_E15difference_typeE, symObjAddr: 0x20338, symBinAddr: 0x100023A5C, symSize: 0x14C }
  - { offsetInCU: 0x12E5C, offset: 0x12E5C, size: 0x8, addend: 0x0, symName: __ZNSt3__111__sift_downB8ue170006INS_17_ClassicAlgPolicyERNS_4lessIPKcEENS_11__wrap_iterIPS4_EEEEvT1_OT0_NS_15iterator_traitsISA_E15difference_typeESA_, symObjAddr: 0x27EC4, symBinAddr: 0x10002B5E8, symSize: 0x2DC }
  - { offsetInCU: 0x12F3B, offset: 0x12F3B, size: 0x8, addend: 0x0, symName: __ZNSt3__117__floyd_sift_downB8ue170006INS_17_ClassicAlgPolicyERNS_4lessIPKcEENS_11__wrap_iterIPS4_EEEET1_SA_OT0_NS_15iterator_traitsISA_E15difference_typeE, symObjAddr: 0x28634, symBinAddr: 0x10002BD58, symSize: 0x14C }
  - { offsetInCU: 0x12FD3, offset: 0x12FD3, size: 0x8, addend: 0x0, symName: '__ZNSt3__111__sift_downB8ue170006INS_17_ClassicAlgPolicyERZ4mainE3$_1NS_11__wrap_iterIPPKcEEEEvT1_OT0_NS_15iterator_traitsIS9_E15difference_typeES9_', symObjAddr: 0x28D98, symBinAddr: 0x10002C4BC, symSize: 0x2F8 }
  - { offsetInCU: 0x13080, offset: 0x13080, size: 0x8, addend: 0x0, symName: '__ZNSt3__117__floyd_sift_downB8ue170006INS_17_ClassicAlgPolicyERZ4mainE3$_1NS_11__wrap_iterIPPKcEEEET1_S9_OT0_NS_15iterator_traitsIS9_E15difference_typeE', symObjAddr: 0x29328, symBinAddr: 0x10002CA4C, symSize: 0x154 }
  - { offsetInCU: 0x16354, offset: 0x16354, size: 0x8, addend: 0x0, symName: __ZNSt3__17advanceB8ue170006INS_21__tree_const_iteratorIiPNS_11__tree_nodeIiPvEElEEllvEEvRT_T0_, symObjAddr: 0x2C2EC, symBinAddr: 0x10002FA10, symSize: 0x38 }
  - { offsetInCU: 0x1C7EA, offset: 0x1C7EA, size: 0x8, addend: 0x0, symName: __ZNSt3__17advanceB8ue170006INS_21__tree_const_iteratorI5PointPNS_11__tree_nodeIS2_PvEElEEllvEEvRT_T0_, symObjAddr: 0x33358, symBinAddr: 0x100036A7C, symSize: 0x38 }
  - { offsetInCU: 0x1FB6A, offset: 0x1FB6A, size: 0x8, addend: 0x0, symName: __ZNSt3__111__introsortINS_17_ClassicAlgPolicyERNS_6__lessIvvEEP5PointLb0EEEvT1_S7_T0_NS_15iterator_traitsIS7_E15difference_typeEb, symObjAddr: 0x38800, symBinAddr: 0x10003BF24, symSize: 0x434 }
  - { offsetInCU: 0x1FC95, offset: 0x1FC95, size: 0x8, addend: 0x0, symName: __ZNSt3__126__insertion_sort_unguardedB8ue170006INS_17_ClassicAlgPolicyERNS_6__lessIvvEEP5PointEEvT1_S7_T0_, symObjAddr: 0x38EEC, symBinAddr: 0x10003C610, symSize: 0x120 }
  - { offsetInCU: 0x1FD85, offset: 0x1FD85, size: 0x8, addend: 0x0, symName: __ZNSt3__111__sift_downB8ue170006INS_17_ClassicAlgPolicyERNS_6__lessIvvEEP5PointEEvT1_OT0_NS_15iterator_traitsIS7_E15difference_typeES7_, symObjAddr: 0x3A0A8, symBinAddr: 0x10003D7CC, symSize: 0x20C }
  - { offsetInCU: 0x1FE32, offset: 0x1FE32, size: 0x8, addend: 0x0, symName: __ZNSt3__117__floyd_sift_downB8ue170006INS_17_ClassicAlgPolicyERNS_6__lessIvvEEP5PointEET1_S7_OT0_NS_15iterator_traitsIS7_E15difference_typeE, symObjAddr: 0x3A450, symBinAddr: 0x10003DB74, symSize: 0x100 }
  - { offsetInCU: 0x1FECA, offset: 0x1FECA, size: 0x8, addend: 0x0, symName: __ZNSt3__131__partition_with_equals_on_leftB8ue170006INS_17_ClassicAlgPolicyEP5PointRNS_6__lessIvvEEEET0_S7_S7_T1_, symObjAddr: 0x39218, symBinAddr: 0x10003C93C, symSize: 0x20C }
  - { offsetInCU: 0x1FF85, offset: 0x1FF85, size: 0x8, addend: 0x0, symName: __ZNSt3__118__bitset_partitionB8ue170006INS_17_ClassicAlgPolicyEP5PointRNS_6__lessIvvEEEENS_4pairIT0_bEES8_S8_T1_, symObjAddr: 0x39424, symBinAddr: 0x10003CB48, symSize: 0x324 }
  - { offsetInCU: 0x2007E, offset: 0x2007E, size: 0x8, addend: 0x0, symName: __ZNSt3__124__swap_bitmap_pos_withinB8ue170006INS_17_ClassicAlgPolicyEP5PointEEvRT0_S5_RyS6_, symObjAddr: 0x3AB9C, symBinAddr: 0x10003E2C0, symSize: 0x1E0 }
  - { offsetInCU: 0x2014B, offset: 0x2014B, size: 0x8, addend: 0x0, symName: __ZNSt3__132__partition_with_equals_on_rightB8ue170006INS_17_ClassicAlgPolicyEP5PointRNS_6__lessIvvEEEENS_4pairIT0_bEES8_S8_T1_, symObjAddr: 0x39748, symBinAddr: 0x10003CE6C, symSize: 0x21C }
  - { offsetInCU: 0x20215, offset: 0x20215, size: 0x8, addend: 0x0, symName: __ZNSt3__127__insertion_sort_incompleteB8ue170006INS_17_ClassicAlgPolicyERNS_6__lessIvvEEP5PointEEbT1_S7_T0_, symObjAddr: 0x39964, symBinAddr: 0x10003D088, symSize: 0x304 }
  - { offsetInCU: 0x21A37, offset: 0x21A37, size: 0x8, addend: 0x0, symName: '__ZNSt3__111__introsortINS_17_ClassicAlgPolicyERZ4mainE3$_2P4RectLb0EEEvT1_S6_T0_NS_15iterator_traitsIS6_E15difference_typeEb', symObjAddr: 0x3C938, symBinAddr: 0x10004002C, symSize: 0x470 }
  - { offsetInCU: 0x21B62, offset: 0x21B62, size: 0x8, addend: 0x0, symName: '__ZNSt3__126__insertion_sort_unguardedB8ue170006INS_17_ClassicAlgPolicyERZ4mainE3$_2P4RectEEvT1_S6_T0_', symObjAddr: 0x3D18C, symBinAddr: 0x100040880, symSize: 0x178 }
  - { offsetInCU: 0x21C3A, offset: 0x21C3A, size: 0x8, addend: 0x0, symName: '__ZNSt3__111__sift_downB8ue170006INS_17_ClassicAlgPolicyERZ4mainE3$_2P4RectEEvT1_OT0_NS_15iterator_traitsIS6_E15difference_typeES6_', symObjAddr: 0x3E5FC, symBinAddr: 0x100041CF0, symSize: 0x280 }
  - { offsetInCU: 0x21CE7, offset: 0x21CE7, size: 0x8, addend: 0x0, symName: '__ZNSt3__117__floyd_sift_downB8ue170006INS_17_ClassicAlgPolicyERZ4mainE3$_2P4RectEET1_S6_OT0_NS_15iterator_traitsIS6_E15difference_typeE', symObjAddr: 0x3EA78, symBinAddr: 0x10004216C, symSize: 0x108 }
  - { offsetInCU: 0x21D7F, offset: 0x21D7F, size: 0x8, addend: 0x0, symName: '__ZNSt3__131__partition_with_equals_on_leftB8ue170006INS_17_ClassicAlgPolicyEP4RectRZ4mainE3$_2EET0_S6_S6_T1_', symObjAddr: 0x3D510, symBinAddr: 0x100040C04, symSize: 0x2A0 }
  - { offsetInCU: 0x21E3C, offset: 0x21E3C, size: 0x8, addend: 0x0, symName: '__ZNSt3__118__bitset_partitionB8ue170006INS_17_ClassicAlgPolicyEP4RectRZ4mainE3$_2EENS_4pairIT0_bEES7_S7_T1_', symObjAddr: 0x3D7B0, symBinAddr: 0x100040EA4, symSize: 0x3C0 }
  - { offsetInCU: 0x21F39, offset: 0x21F39, size: 0x8, addend: 0x0, symName: __ZNSt3__124__swap_bitmap_pos_withinB8ue170006INS_17_ClassicAlgPolicyEP4RectEEvRT0_S5_RyS6_, symObjAddr: 0x3F230, symBinAddr: 0x100042924, symSize: 0x1E8 }
  - { offsetInCU: 0x22006, offset: 0x22006, size: 0x8, addend: 0x0, symName: '__ZNSt3__132__partition_with_equals_on_rightB8ue170006INS_17_ClassicAlgPolicyEP4RectRZ4mainE3$_2EENS_4pairIT0_bEES7_S7_T1_', symObjAddr: 0x3DB70, symBinAddr: 0x100041264, symSize: 0x298 }
  - { offsetInCU: 0x220D0, offset: 0x220D0, size: 0x8, addend: 0x0, symName: '__ZNSt3__127__insertion_sort_incompleteB8ue170006INS_17_ClassicAlgPolicyERZ4mainE3$_2P4RectEEbT1_S6_T0_', symObjAddr: 0x3DE08, symBinAddr: 0x1000414FC, symSize: 0x374 }
  - { offsetInCU: 0x2388C, offset: 0x2388C, size: 0x8, addend: 0x0, symName: __ZNSt3__17advanceB8ue170006INS_21__tree_const_iteratorINS_12basic_stringIcNS_11char_traitsIcEENS_9allocatorIcEEEEPNS_11__tree_nodeIS7_PvEElEEllvEEvRT_T0_, symObjAddr: 0x40838, symBinAddr: 0x100043F2C, symSize: 0x38 }
  - { offsetInCU: 0x281F9, offset: 0x281F9, size: 0x8, addend: 0x0, symName: '__ZNSt3__19transformB8ue170006INS_11__wrap_iterIPcEES3_Z13to_lower_caseRNS_12basic_stringIcNS_11char_traitsIcEENS_9allocatorIcEEEEE3$_0EET0_T_SD_SC_T1_', symObjAddr: 0xE0, symBinAddr: 0x100004448, symSize: 0x8C }
  - { offsetInCU: 0x28286, offset: 0x28286, size: 0x8, addend: 0x0, symName: __ZNSt3__1neB8ue170006ERKNS_16__deque_iteratorI8MyStringPS1_RS1_PS2_lLl512EEES7_, symObjAddr: 0x40DC, symBinAddr: 0x100008444, symSize: 0x34 }
  - { offsetInCU: 0x28491, offset: 0x28491, size: 0x8, addend: 0x0, symName: __ZNSt3__1neB8ue170006IPiEEbRKNS_11__wrap_iterIT_EES6_, symObjAddr: 0x468C, symBinAddr: 0x1000089F4, symSize: 0x34 }
  - { offsetInCU: 0x288DA, offset: 0x288DA, size: 0x8, addend: 0x0, symName: __ZNSt3__1eqB8ue170006IiNS_5dequeIiNS_9allocatorIiEEEEEEbRKNS_5stackIT_T0_EESA_, symObjAddr: 0x4CA0, symBinAddr: 0x100009008, symSize: 0x30 }
  - { offsetInCU: 0x28929, offset: 0x28929, size: 0x8, addend: 0x0, symName: __ZNSt3__14endlB8ue170006IcNS_11char_traitsIcEEEERNS_13basic_ostreamIT_T0_EES7_, symObjAddr: 0x4D44, symBinAddr: 0x100009064, symSize: 0x58 }
  - { offsetInCU: 0x28969, offset: 0x28969, size: 0x8, addend: 0x0, symName: __ZNSt3__1gtB8ue170006IiNS_5dequeIiNS_9allocatorIiEEEEEEbRKNS_5stackIT_T0_EESA_, symObjAddr: 0x4D9C, symBinAddr: 0x1000090BC, symSize: 0x30 }
  - { offsetInCU: 0x2A37A, offset: 0x2A37A, size: 0x8, addend: 0x0, symName: __ZNSt3__19make_pairB8ue170006IRA7_KciEENS_4pairINS_18__unwrap_ref_decayIT_E4typeENS5_IT0_E4typeEEEOS6_OS9_, symObjAddr: 0x5C5C, symBinAddr: 0x100009F7C, symSize: 0x38 }
  - { offsetInCU: 0x2A495, offset: 0x2A495, size: 0x8, addend: 0x0, symName: __ZNSt3__19make_pairB8ue170006IRA5_KcRA23_S1_EENS_4pairINS_18__unwrap_ref_decayIT_E4typeENS7_IT0_E4typeEEEOS8_OSB_, symObjAddr: 0x6094, symBinAddr: 0x10000A3B4, symSize: 0x48 }
  - { offsetInCU: 0x2A4E4, offset: 0x2A4E4, size: 0x8, addend: 0x0, symName: __ZNSt3__1neB8ue170006ERKNS_14__map_iteratorINS_15__tree_iteratorINS_12__value_typeINS_12basic_stringIcNS_11char_traitsIcEENS_9allocatorIcEEEES8_EEPNS_11__tree_nodeIS9_PvEElEEEESH_, symObjAddr: 0x614C, symBinAddr: 0x10000A46C, symSize: 0x30 }
  - { offsetInCU: 0x2A521, offset: 0x2A521, size: 0x8, addend: 0x0, symName: __ZNSt3__1lsB8ue170006IcNS_11char_traitsIcEENS_9allocatorIcEEEERNS_13basic_ostreamIT_T0_EES9_RKNS_12basic_stringIS6_S7_T1_EE, symObjAddr: 0x61A4, symBinAddr: 0x10000A4C4, symSize: 0x4C }
  - { offsetInCU: 0x2A662, offset: 0x2A662, size: 0x8, addend: 0x0, symName: __ZNSt3__14copyB8ue170006INS_11__wrap_iterIP5PointEENS_16ostream_iteratorIS2_cNS_11char_traitsIcEEEEEET0_T_SA_S9_, symObjAddr: 0x64E8, symBinAddr: 0x10000A808, symSize: 0x70 }
  - { offsetInCU: 0x2A6BC, offset: 0x2A6BC, size: 0x8, addend: 0x0, symName: __ZNSt3__14copyB8ue170006INS_21__tree_const_iteratorI5PointPNS_11__tree_nodeIS2_PvEElEENS_16ostream_iteratorIS2_cNS_11char_traitsIcEEEEEET0_T_SD_SC_, symObjAddr: 0x6558, symBinAddr: 0x10000A878, symSize: 0x70 }
  - { offsetInCU: 0x2A716, offset: 0x2A716, size: 0x8, addend: 0x0, symName: __ZNSt3__14copyB8ue170006INS_11__wrap_iterIPiEENS_20back_insert_iteratorINS_5dequeIiNS_9allocatorIiEEEEEEEET0_T_SB_SA_, symObjAddr: 0x66BC, symBinAddr: 0x10000A9DC, symSize: 0x60 }
  - { offsetInCU: 0x2A770, offset: 0x2A770, size: 0x8, addend: 0x0, symName: __ZNSt3__113back_inserterB8ue170006INS_5dequeIiNS_9allocatorIiEEEEEENS_20back_insert_iteratorIT_EERS6_, symObjAddr: 0x671C, symBinAddr: 0x10000AA3C, symSize: 0x2C }
  - { offsetInCU: 0x2A7A5, offset: 0x2A7A5, size: 0x8, addend: 0x0, symName: __ZNSt3__14copyB8ue170006INS_11__wrap_iterIPiEENS_21front_insert_iteratorINS_4listIiNS_9allocatorIiEEEEEEEET0_T_SB_SA_, symObjAddr: 0x6748, symBinAddr: 0x10000AA68, symSize: 0x60 }
  - { offsetInCU: 0x2A7FF, offset: 0x2A7FF, size: 0x8, addend: 0x0, symName: __ZNSt3__114front_inserterB8ue170006INS_4listIiNS_9allocatorIiEEEEEENS_21front_insert_iteratorIT_EERS6_, symObjAddr: 0x67A8, symBinAddr: 0x10000AAC8, symSize: 0x2C }
  - { offsetInCU: 0x2A834, offset: 0x2A834, size: 0x8, addend: 0x0, symName: __ZNSt3__14copyB8ue170006INS_11__wrap_iterIPiEENS_15insert_iteratorINS_6vectorIiNS_9allocatorIiEEEEEEEET0_T_SB_SA_, symObjAddr: 0x67D4, symBinAddr: 0x10000AAF4, symSize: 0x70 }
  - { offsetInCU: 0x2A88E, offset: 0x2A88E, size: 0x8, addend: 0x0, symName: __ZNSt3__18inserterB8ue170006INS_6vectorIiNS_9allocatorIiEEEEEENS_15insert_iteratorIT_EERS6_NS6_8iteratorE, symObjAddr: 0x6844, symBinAddr: 0x10000AB64, symSize: 0x40 }
  - { offsetInCU: 0x2B5F2, offset: 0x2B5F2, size: 0x8, addend: 0x0, symName: __ZNSt3__18for_eachB8ue170006INS_11__wrap_iterIPiEEPFvRKiEEET0_T_S9_S8_, symObjAddr: 0x68C0, symBinAddr: 0x10000ABE0, symSize: 0x68 }
  - { offsetInCU: 0x2B64C, offset: 0x2B64C, size: 0x8, addend: 0x0, symName: __ZNSt3__18for_eachB8ue170006INS_15__list_iteratorINS_12basic_stringIcNS_11char_traitsIcEENS_9allocatorIcEEEEPvEEPFvRKS7_EEET0_T_SF_SE_, symObjAddr: 0x6964, symBinAddr: 0x10000AC84, symSize: 0x68 }
  - { offsetInCU: 0x2B6A6, offset: 0x2B6A6, size: 0x8, addend: 0x0, symName: __ZNSt3__18for_eachB8ue170006INS_11__wrap_iterIP5PointEE13PointModifierEET0_T_S7_S6_, symObjAddr: 0x6A5C, symBinAddr: 0x10000AD7C, symSize: 0x6C }
  - { offsetInCU: 0x2B700, offset: 0x2B700, size: 0x8, addend: 0x0, symName: __ZNSt3__18for_eachB8ue170006INS_11__wrap_iterIP5PointEEPFvRKS2_EEET0_T_SA_S9_, symObjAddr: 0x6B04, symBinAddr: 0x10000AE24, symSize: 0x68 }
  - { offsetInCU: 0x2B75A, offset: 0x2B75A, size: 0x8, addend: 0x0, symName: __ZNSt3__14findB8ue170006INS_11__wrap_iterIP5PointEES2_EET_S5_S5_RKT0_, symObjAddr: 0x6BA4, symBinAddr: 0x10000AEC4, symSize: 0x78 }
  - { offsetInCU: 0x2B7C2, offset: 0x2B7C2, size: 0x8, addend: 0x0, symName: __ZNSt3__1neB8ue170006IP5PointEEbRKNS_11__wrap_iterIT_EES7_, symObjAddr: 0x6C1C, symBinAddr: 0x10000AF3C, symSize: 0x34 }
  - { offsetInCU: 0x2B805, offset: 0x2B805, size: 0x8, addend: 0x0, symName: __ZNSt3__18distanceB8ue170006INS_11__wrap_iterIP5PointEEEENS_15iterator_traitsIT_E15difference_typeES6_S6_, symObjAddr: 0x6C50, symBinAddr: 0x10000AF70, symSize: 0x3C }
  - { offsetInCU: 0x2B848, offset: 0x2B848, size: 0x8, addend: 0x0, symName: __ZNSt3__14sortB8ue170006INS_11__wrap_iterIP5PointEEEEvT_S5_, symObjAddr: 0x6CAC, symBinAddr: 0x10000AFCC, symSize: 0x3C }
  - { offsetInCU: 0x2B88A, offset: 0x2B88A, size: 0x8, addend: 0x0, symName: __ZNSt3__17find_ifB8ue170006INS_11__wrap_iterIP5PointEEPFbRKS2_EEET_S9_S9_T0_, symObjAddr: 0x6CE8, symBinAddr: 0x10000B008, symSize: 0x7C }
  - { offsetInCU: 0x2B8E4, offset: 0x2B8E4, size: 0x8, addend: 0x0, symName: '__ZNSt3__14sortB8ue170006INS_11__wrap_iterIP4RectEEZ4mainE3$_2EEvT_S6_T0_', symObjAddr: 0x6EC8, symBinAddr: 0x10000B1BC, symSize: 0x40 }
  - { offsetInCU: 0x2C4FA, offset: 0x2C4FA, size: 0x8, addend: 0x0, symName: '__ZNSt3__19transformB8ue170006INS_15__list_iteratorINS_12basic_stringIcNS_11char_traitsIcEENS_9allocatorIcEEEEPvEENS_15insert_iteratorINS_3setIS7_NS_4lessIS7_EENS5_IS7_EEEEEEZ4mainE3$_3EET0_T_SJ_SI_T1_', symObjAddr: 0x6F94, symBinAddr: 0x10000B288, symSize: 0xC8 }
  - { offsetInCU: 0x2C56B, offset: 0x2C56B, size: 0x8, addend: 0x0, symName: __ZNSt3__18inserterB8ue170006INS_3setINS_12basic_stringIcNS_11char_traitsIcEENS_9allocatorIcEEEENS_4lessIS7_EENS5_IS7_EEEEEENS_15insert_iteratorIT_EERSD_NSD_8iteratorE, symObjAddr: 0x705C, symBinAddr: 0x10000B350, symSize: 0x40 }
  - { offsetInCU: 0x2C5AE, offset: 0x2C5AE, size: 0x8, addend: 0x0, symName: __ZNSt3__1neB8ue170006ERKNS_21__tree_const_iteratorINS_12basic_stringIcNS_11char_traitsIcEENS_9allocatorIcEEEEPNS_11__tree_nodeIS6_PvEElEESD_, symObjAddr: 0x710C, symBinAddr: 0x10000B400, symSize: 0x34 }
  - { offsetInCU: 0x2C5EB, offset: 0x2C5EB, size: 0x8, addend: 0x0, symName: __ZNSt3__1neB8ue170006IPNS_12basic_stringIcNS_11char_traitsIcEENS_9allocatorIcEEEEEEbRKNS_11__wrap_iterIT_EESC_, symObjAddr: 0x72C0, symBinAddr: 0x10000B5B4, symSize: 0x34 }
  - { offsetInCU: 0x2C62E, offset: 0x2C62E, size: 0x8, addend: 0x0, symName: __ZNSt3__1eqB8ue170006IPiEEbRKNS_11__wrap_iterIT_EES6_, symObjAddr: 0x7680, symBinAddr: 0x10000B974, symSize: 0x48 }
  - { offsetInCU: 0x2C672, offset: 0x2C672, size: 0x8, addend: 0x0, symName: __ZNSt3__112__to_addressB8ue170006IPKcEEPT_S4_, symObjAddr: 0x7B50, symBinAddr: 0x10000BE38, symSize: 0x14 }
  - { offsetInCU: 0x2C6A7, offset: 0x2C6A7, size: 0x8, addend: 0x0, symName: __ZNSt3__119__libcpp_deallocateB8ue170006EPvmm, symObjAddr: 0x7C28, symBinAddr: 0x10000BF10, symSize: 0x60 }
  - { offsetInCU: 0x2C70D, offset: 0x2C70D, size: 0x8, addend: 0x0, symName: __ZNSt3__124__is_overaligned_for_newB8ue170006Em, symObjAddr: 0x7C88, symBinAddr: 0x10000BF70, symSize: 0x20 }
  - { offsetInCU: 0x2C73B, offset: 0x2C73B, size: 0x8, addend: 0x0, symName: __ZNSt3__127__do_deallocate_handle_sizeB8ue170006IJSt11align_val_tEEEvPvmDpT_, symObjAddr: 0x7CA8, symBinAddr: 0x10000BF90, symSize: 0x30 }
  - { offsetInCU: 0x2C78E, offset: 0x2C78E, size: 0x8, addend: 0x0, symName: __ZNSt3__127__do_deallocate_handle_sizeB8ue170006IJEEEvPvmDpT_, symObjAddr: 0x7CD8, symBinAddr: 0x10000BFC0, symSize: 0x28 }
  - { offsetInCU: 0x2C7CC, offset: 0x2C7CC, size: 0x8, addend: 0x0, symName: __ZNSt3__124__libcpp_operator_deleteB8ue170006IJPvSt11align_val_tEEEvDpT_, symObjAddr: 0x7D00, symBinAddr: 0x10000BFE8, symSize: 0x2C }
  - { offsetInCU: 0x2C815, offset: 0x2C815, size: 0x8, addend: 0x0, symName: __ZNSt3__124__libcpp_operator_deleteB8ue170006IJPvEEEvDpT_, symObjAddr: 0x7D2C, symBinAddr: 0x10000C014, symSize: 0x24 }
  - { offsetInCU: 0x2C84A, offset: 0x2C84A, size: 0x8, addend: 0x0, symName: __ZNSt3__1eqB8ue170006IP5PointEEbRKNS_11__wrap_iterIT_EES7_, symObjAddr: 0x8224, symBinAddr: 0x10000C50C, symSize: 0x48 }
  - { offsetInCU: 0x2C88D, offset: 0x2C88D, size: 0x8, addend: 0x0, symName: __ZNSt3__110__distanceB8ue170006INS_11__wrap_iterIP5PointEEEENS_15iterator_traitsIT_E15difference_typeES6_S6_NS_26random_access_iterator_tagE, symObjAddr: 0x8284, symBinAddr: 0x10000C56C, symSize: 0x30 }
  - { offsetInCU: 0x2C8DB, offset: 0x2C8DB, size: 0x8, addend: 0x0, symName: __ZNSt3__1miB8ue170006IP5PointS2_EEDTmicldtfp_4baseEcldtfp0_4baseEERKNS_11__wrap_iterIT_EERKNS4_IT0_EE, symObjAddr: 0x82B4, symBinAddr: 0x10000C59C, symSize: 0x48 }
  - { offsetInCU: 0x2C928, offset: 0x2C928, size: 0x8, addend: 0x0, symName: __ZNSt3__112__to_addressB8ue170006I5PointEEPT_S3_, symObjAddr: 0x82FC, symBinAddr: 0x10000C5E4, symSize: 0x14 }
  - { offsetInCU: 0x2C990, offset: 0x2C990, size: 0x8, addend: 0x0, symName: __ZNSt3__1eqB8ue170006IPNS_12basic_stringIcNS_11char_traitsIcEENS_9allocatorIcEEEEEEbRKNS_11__wrap_iterIT_EESC_, symObjAddr: 0x87D8, symBinAddr: 0x10000CA14, symSize: 0x48 }
  - { offsetInCU: 0x2CA06, offset: 0x2CA06, size: 0x8, addend: 0x0, symName: __ZNSt3__1neB8ue170006IPcEEbRKNS_11__wrap_iterIT_EES6_, symObjAddr: 0x9864, symBinAddr: 0x10000CF88, symSize: 0x34 }
  - { offsetInCU: 0x2CA49, offset: 0x2CA49, size: 0x8, addend: 0x0, symName: __ZNSt3__1eqB8ue170006IPcEEbRKNS_11__wrap_iterIT_EES6_, symObjAddr: 0x98F8, symBinAddr: 0x10000D01C, symSize: 0x48 }
  - { offsetInCU: 0x2CA8C, offset: 0x2CA8C, size: 0x8, addend: 0x0, symName: __ZNSt3__122__make_exception_guardB8ue170006INS_6vectorI5PointNS_9allocatorIS2_EEE16__destroy_vectorEEENS_28__exception_guard_exceptionsIT_EES8_, symObjAddr: 0x9AD8, symBinAddr: 0x10000D1FC, symSize: 0x40 }
  - { offsetInCU: 0x2CAC1, offset: 0x2CAC1, size: 0x8, addend: 0x0, symName: __ZNSt3__119__allocate_at_leastB8ue170006INS_9allocatorI5PointEEEENS_19__allocation_resultINS_16allocator_traitsIT_E7pointerEEERS6_m, symObjAddr: 0x9ED8, symBinAddr: 0x10000D5FC, symSize: 0x40 }
  - { offsetInCU: 0x2CB04, offset: 0x2CB04, size: 0x8, addend: 0x0, symName: __ZNSt3__13minB8ue170006ImEERKT_S3_S3_, symObjAddr: 0xA014, symBinAddr: 0x10000D738, symSize: 0x2C }
  - { offsetInCU: 0x2CD31, offset: 0x2CD31, size: 0x8, addend: 0x0, symName: __ZNSt3__13minB8ue170006ImNS_6__lessIvvEEEERKT_S5_S5_T0_, symObjAddr: 0xA0A0, symBinAddr: 0x10000D7C4, symSize: 0x54 }
  - { offsetInCU: 0x2CE64, offset: 0x2CE64, size: 0x8, addend: 0x0, symName: __ZNSt3__120__throw_length_errorB8ue170006EPKc, symObjAddr: 0xA17C, symBinAddr: 0x10000D8A0, symSize: 0x64 }
  - { offsetInCU: 0x2CE8E, offset: 0x2CE8E, size: 0x8, addend: 0x0, symName: __ZNSt3__117__libcpp_allocateB8ue170006Emm, symObjAddr: 0xA2EC, symBinAddr: 0x10000DA10, symSize: 0x60 }
  - { offsetInCU: 0x2CEE8, offset: 0x2CEE8, size: 0x8, addend: 0x0, symName: __ZNSt3__121__libcpp_operator_newB8ue170006IJmSt11align_val_tEEEPvDpT_, symObjAddr: 0xA34C, symBinAddr: 0x10000DA70, symSize: 0x2C }
  - { offsetInCU: 0x2CF35, offset: 0x2CF35, size: 0x8, addend: 0x0, symName: __ZNSt3__121__libcpp_operator_newB8ue170006IJmEEEPvDpT_, symObjAddr: 0xA378, symBinAddr: 0x10000DA9C, symSize: 0x24 }
  - { offsetInCU: 0x2CF6E, offset: 0x2CF6E, size: 0x8, addend: 0x0, symName: __ZNSt3__130__uninitialized_allocator_copyB8ue170006INS_9allocatorI5PointEEPKS2_S5_PS2_EET2_RT_T0_T1_S7_, symObjAddr: 0xA530, symBinAddr: 0x10000DC54, symSize: 0x80 }
  - { offsetInCU: 0x2D00B, offset: 0x2D00B, size: 0x8, addend: 0x0, symName: __ZNSt3__114__unwrap_rangeB8ue170006IPK5PointS3_EENS_4pairIT0_S5_EET_S7_, symObjAddr: 0xA620, symBinAddr: 0x10000DD44, symSize: 0x60 }
  - { offsetInCU: 0x2D057, offset: 0x2D057, size: 0x8, addend: 0x0, symName: __ZNSt3__135__uninitialized_allocator_copy_implB8ue170006INS_9allocatorI5PointEEKS2_S2_S2_LPv0EEEPT2_RT_PT0_SB_S7_, symObjAddr: 0xA680, symBinAddr: 0x10000DDA4, symSize: 0x38 }
  - { offsetInCU: 0x2D0D9, offset: 0x2D0D9, size: 0x8, addend: 0x0, symName: __ZNSt3__113__unwrap_iterB8ue170006IP5PointNS_18__unwrap_iter_implIS2_Lb1EEELi0EEEDTclsrT0_8__unwrapclsr3stdE7declvalIT_EEEES6_, symObjAddr: 0xA6B8, symBinAddr: 0x10000DDDC, symSize: 0x24 }
  - { offsetInCU: 0x2D11D, offset: 0x2D11D, size: 0x8, addend: 0x0, symName: __ZNSt3__113__rewrap_iterB8ue170006IP5PointS2_NS_18__unwrap_iter_implIS2_Lb1EEEEET_S5_T0_, symObjAddr: 0xA6DC, symBinAddr: 0x10000DE00, symSize: 0x3C }
  - { offsetInCU: 0x2D172, offset: 0x2D172, size: 0x8, addend: 0x0, symName: __ZNSt3__19make_pairB8ue170006IPK5PointS3_EENS_4pairINS_18__unwrap_ref_decayIT_E4typeENS5_IT0_E4typeEEEOS6_OS9_, symObjAddr: 0xA718, symBinAddr: 0x10000DE3C, symSize: 0x38 }
  - { offsetInCU: 0x2D1C1, offset: 0x2D1C1, size: 0x8, addend: 0x0, symName: __ZNSt3__113__unwrap_iterB8ue170006IPK5PointNS_18__unwrap_iter_implIS3_Lb1EEELi0EEEDTclsrT0_8__unwrapclsr3stdE7declvalIT_EEEES7_, symObjAddr: 0xA750, symBinAddr: 0x10000DE74, symSize: 0x24 }
  - { offsetInCU: 0x2D32D, offset: 0x2D32D, size: 0x8, addend: 0x0, symName: __ZNSt3__112__to_addressB8ue170006IK5PointEEPT_S4_, symObjAddr: 0xA808, symBinAddr: 0x10000DF2C, symSize: 0x14 }
  - { offsetInCU: 0x2D362, offset: 0x2D362, size: 0x8, addend: 0x0, symName: __ZNSt3__14copyB8ue170006IPK5PointPS1_EET0_T_S6_S5_, symObjAddr: 0xA81C, symBinAddr: 0x10000DF40, symSize: 0x40 }
  - { offsetInCU: 0x2D3BC, offset: 0x2D3BC, size: 0x8, addend: 0x0, symName: __ZNSt3__16__copyB8ue170006INS_17_ClassicAlgPolicyEPK5PointS4_PS2_EENS_4pairIT0_T2_EES7_T1_S8_, symObjAddr: 0xA85C, symBinAddr: 0x10000DF80, symSize: 0x44 }
  - { offsetInCU: 0x2D428, offset: 0x2D428, size: 0x8, addend: 0x0, symName: __ZNSt3__123__dispatch_copy_or_moveB8ue170006INS_17_ClassicAlgPolicyENS_11__copy_loopIS1_EENS_14__copy_trivialEPK5PointS7_PS5_EENS_4pairIT2_T4_EESA_T3_SB_, symObjAddr: 0xA8A0, symBinAddr: 0x10000DFC4, symSize: 0x44 }
  - { offsetInCU: 0x2D4A6, offset: 0x2D4A6, size: 0x8, addend: 0x0, symName: __ZNSt3__121__unwrap_and_dispatchB8ue170006INS_10__overloadINS_11__copy_loopINS_17_ClassicAlgPolicyEEENS_14__copy_trivialEEEPK5PointS9_PS7_Li0EEENS_4pairIT0_T2_EESC_T1_SD_, symObjAddr: 0xA8E4, symBinAddr: 0x10000E008, symSize: 0xB4 }
  - { offsetInCU: 0x2D76D, offset: 0x2D76D, size: 0x8, addend: 0x0, symName: __ZNSt3__19make_pairB8ue170006IPK5PointPS1_EENS_4pairINS_18__unwrap_ref_decayIT_E4typeENS6_IT0_E4typeEEEOS7_OSA_, symObjAddr: 0xA9E0, symBinAddr: 0x10000E104, symSize: 0x38 }
  - { offsetInCU: 0x2D7BC, offset: 0x2D7BC, size: 0x8, addend: 0x0, symName: __ZNSt3__114__rewrap_rangeB8ue170006IPK5PointS3_EET_S4_T0_, symObjAddr: 0xAA18, symBinAddr: 0x10000E13C, symSize: 0x2C }
  - { offsetInCU: 0x2D808, offset: 0x2D808, size: 0x8, addend: 0x0, symName: __ZNSt3__119__copy_trivial_implB8ue170006IK5PointS1_EENS_4pairIPT_PT0_EES5_S5_S7_, symObjAddr: 0xAA44, symBinAddr: 0x10000E168, symSize: 0x80 }
  - { offsetInCU: 0x2D870, offset: 0x2D870, size: 0x8, addend: 0x0, symName: __ZNSt3__119__constexpr_memmoveB8ue170006I5PointKS1_Li0EEEPT_S4_PT0_NS_15__element_countE, symObjAddr: 0xAAC4, symBinAddr: 0x10000E1E8, symSize: 0x64 }
  - { offsetInCU: 0x2D8DE, offset: 0x2D8DE, size: 0x8, addend: 0x0, symName: __ZNSt3__19make_pairB8ue170006IRPK5PointPS1_EENS_4pairINS_18__unwrap_ref_decayIT_E4typeENS7_IT0_E4typeEEEOS8_OSB_, symObjAddr: 0xAB28, symBinAddr: 0x10000E24C, symSize: 0x38 }
  - { offsetInCU: 0x2D92D, offset: 0x2D92D, size: 0x8, addend: 0x0, symName: __ZNSt3__113__rewrap_iterB8ue170006IPK5PointS3_NS_18__unwrap_iter_implIS3_Lb1EEEEET_S6_T0_, symObjAddr: 0xAC40, symBinAddr: 0x10000E364, symSize: 0x3C }
  - { offsetInCU: 0x2D9D5, offset: 0x2D9D5, size: 0x8, addend: 0x0, symName: __ZNSt3__1neB8ue170006ERKNS_16__deque_iteratorI5PointPS1_RS1_PS2_lLl512EEES7_, symObjAddr: 0xBF9C, symBinAddr: 0x10000F6C0, symSize: 0x34 }
  - { offsetInCU: 0x2DA13, offset: 0x2DA13, size: 0x8, addend: 0x0, symName: __ZNSt3__1eqB8ue170006ERKNS_16__deque_iteratorI5PointPS1_RS1_PS2_lLl512EEES7_, symObjAddr: 0xC154, symBinAddr: 0x10000F878, symSize: 0x30 }
  - { offsetInCU: 0x2DA51, offset: 0x2DA51, size: 0x8, addend: 0x0, symName: __ZNSt3__112__to_addressB8ue170006IP5PointEEPT_S4_, symObjAddr: 0xC530, symBinAddr: 0x10000FC54, symSize: 0x14 }
  - { offsetInCU: 0x2DA86, offset: 0x2DA86, size: 0x8, addend: 0x0, symName: __ZNSt3__14copyB8ue170006INS_11__wrap_iterIP5PointEENS_16__deque_iteratorIS2_S3_RS2_PS3_lLl512EEEEET0_T_SA_S9_, symObjAddr: 0xC834, symBinAddr: 0x10000FF58, symSize: 0x70 }
  - { offsetInCU: 0x2DAE0, offset: 0x2DAE0, size: 0x8, addend: 0x0, symName: __ZNSt3__16__copyB8ue170006INS_17_ClassicAlgPolicyENS_11__wrap_iterIP5PointEES5_NS_16__deque_iteratorIS3_S4_RS3_PS4_lLl512EEEEENS_4pairIT0_T2_EESB_T1_SC_, symObjAddr: 0xCD20, symBinAddr: 0x100010444, symSize: 0x54 }
  - { offsetInCU: 0x2DB4C, offset: 0x2DB4C, size: 0x8, addend: 0x0, symName: __ZNSt3__123__dispatch_copy_or_moveB8ue170006INS_17_ClassicAlgPolicyENS_11__copy_loopIS1_EENS_14__copy_trivialENS_11__wrap_iterIP5PointEES8_NS_16__deque_iteratorIS6_S7_RS6_PS7_lLl512EEEEENS_4pairIT2_T4_EESE_T3_SF_, symObjAddr: 0xCD74, symBinAddr: 0x100010498, symSize: 0x54 }
  - { offsetInCU: 0x2DBCA, offset: 0x2DBCA, size: 0x8, addend: 0x0, symName: __ZNSt3__121__unwrap_and_dispatchB8ue170006INS_10__overloadINS_11__copy_loopINS_17_ClassicAlgPolicyEEENS_14__copy_trivialEEENS_11__wrap_iterIP5PointEESA_NS_16__deque_iteratorIS8_S9_RS8_PS9_lLl512EEELi0EEENS_4pairIT0_T2_EESG_T1_SH_, symObjAddr: 0xCDC8, symBinAddr: 0x1000104EC, symSize: 0x110 }
  - { offsetInCU: 0x2DC59, offset: 0x2DC59, size: 0x8, addend: 0x0, symName: __ZNSt3__114__unwrap_rangeB8ue170006INS_11__wrap_iterIP5PointEES3_EENS_4pairIT0_S6_EET_S8_, symObjAddr: 0xCED8, symBinAddr: 0x1000105FC, symSize: 0x70 }
  - { offsetInCU: 0x2DF03, offset: 0x2DF03, size: 0x8, addend: 0x0, symName: __ZNSt3__113__unwrap_iterB8ue170006INS_16__deque_iteratorI5PointPS2_RS2_PS3_lLl512EEENS_18__unwrap_iter_implIS6_Lb0EEELi0EEEDTclsrT0_8__unwrapclsr3stdE7declvalIT_EEEESA_, symObjAddr: 0xD0AC, symBinAddr: 0x1000107D0, symSize: 0x44 }
  - { offsetInCU: 0x2DF47, offset: 0x2DF47, size: 0x8, addend: 0x0, symName: __ZNSt3__19make_pairB8ue170006INS_11__wrap_iterIP5PointEENS_16__deque_iteratorIS2_S3_RS2_PS3_lLl512EEEEENS_4pairINS_18__unwrap_ref_decayIT_E4typeENSA_IT0_E4typeEEEOSB_OSE_, symObjAddr: 0xD0F0, symBinAddr: 0x100010814, symSize: 0x38 }
  - { offsetInCU: 0x2DF96, offset: 0x2DF96, size: 0x8, addend: 0x0, symName: __ZNSt3__114__rewrap_rangeB8ue170006INS_11__wrap_iterIP5PointEES3_EET_S5_T0_, symObjAddr: 0xD128, symBinAddr: 0x10001084C, symSize: 0x3C }
  - { offsetInCU: 0x2DFE2, offset: 0x2DFE2, size: 0x8, addend: 0x0, symName: __ZNSt3__113__rewrap_iterB8ue170006INS_16__deque_iteratorI5PointPS2_RS2_PS3_lLl512EEES6_NS_18__unwrap_iter_implIS6_Lb0EEEEET_S9_T0_, symObjAddr: 0xD164, symBinAddr: 0x100010888, symSize: 0x74 }
  - { offsetInCU: 0x2E037, offset: 0x2E037, size: 0x8, addend: 0x0, symName: __ZNSt3__19make_pairB8ue170006IP5PointS2_EENS_4pairINS_18__unwrap_ref_decayIT_E4typeENS4_IT0_E4typeEEEOS5_OS8_, symObjAddr: 0xD1D8, symBinAddr: 0x1000108FC, symSize: 0x38 }
  - { offsetInCU: 0x2E086, offset: 0x2E086, size: 0x8, addend: 0x0, symName: __ZNSt3__113__unwrap_iterB8ue170006INS_11__wrap_iterIP5PointEENS_18__unwrap_iter_implIS4_Lb1EEELi0EEEDTclsrT0_8__unwrapclsr3stdE7declvalIT_EEEES8_, symObjAddr: 0xD210, symBinAddr: 0x100010934, symSize: 0x2C }
  - { offsetInCU: 0x2E220, offset: 0x2E220, size: 0x8, addend: 0x0, symName: __ZNSt3__112__to_addressB8ue170006INS_11__wrap_iterIP5PointEEvEEu7__decayIDTclsr19__to_address_helperIT_EE6__callclsr3stdE7declvalIRKS5_EEEEES7_, symObjAddr: 0xD2D4, symBinAddr: 0x1000109F8, symSize: 0x24 }
  - { offsetInCU: 0x2E2FC, offset: 0x2E2FC, size: 0x8, addend: 0x0, symName: __ZNSt3__19make_pairB8ue170006IP5PointNS_16__deque_iteratorIS1_S2_RS1_PS2_lLl512EEEEENS_4pairINS_18__unwrap_ref_decayIT_E4typeENS8_IT0_E4typeEEEOS9_OSC_, symObjAddr: 0xD354, symBinAddr: 0x100010A78, symSize: 0x38 }
  - { offsetInCU: 0x2E3F7, offset: 0x2E3F7, size: 0x8, addend: 0x0, symName: __ZNSt3__13minB8ue170006IlEERKT_S3_S3_, symObjAddr: 0xD3D8, symBinAddr: 0x100010AFC, symSize: 0x2C }
  - { offsetInCU: 0x2E43A, offset: 0x2E43A, size: 0x8, addend: 0x0, symName: __ZNSt3__16__copyB8ue170006INS_17_ClassicAlgPolicyEP5PointS3_S3_EENS_4pairIT0_T2_EES5_T1_S6_, symObjAddr: 0xD404, symBinAddr: 0x100010B28, symSize: 0x44 }
  - { offsetInCU: 0x2E4A2, offset: 0x2E4A2, size: 0x8, addend: 0x0, symName: __ZNSt3__13minB8ue170006IlNS_6__lessIvvEEEERKT_S5_S5_T0_, symObjAddr: 0xD554, symBinAddr: 0x100010C78, symSize: 0x54 }
  - { offsetInCU: 0x2E4FC, offset: 0x2E4FC, size: 0x8, addend: 0x0, symName: __ZNSt3__123__dispatch_copy_or_moveB8ue170006INS_17_ClassicAlgPolicyENS_11__copy_loopIS1_EENS_14__copy_trivialEP5PointS6_S6_EENS_4pairIT2_T4_EES8_T3_S9_, symObjAddr: 0xD5DC, symBinAddr: 0x100010D00, symSize: 0x44 }
  - { offsetInCU: 0x2E57A, offset: 0x2E57A, size: 0x8, addend: 0x0, symName: __ZNSt3__121__unwrap_and_dispatchB8ue170006INS_10__overloadINS_11__copy_loopINS_17_ClassicAlgPolicyEEENS_14__copy_trivialEEEP5PointS8_S8_Li0EEENS_4pairIT0_T2_EESA_T1_SB_, symObjAddr: 0xD620, symBinAddr: 0x100010D44, symSize: 0xB4 }
  - { offsetInCU: 0x2E608, offset: 0x2E608, size: 0x8, addend: 0x0, symName: __ZNSt3__114__unwrap_rangeB8ue170006IP5PointS2_EENS_4pairIT0_S4_EET_S6_, symObjAddr: 0xD6D4, symBinAddr: 0x100010DF8, symSize: 0x60 }
  - { offsetInCU: 0x2E654, offset: 0x2E654, size: 0x8, addend: 0x0, symName: __ZNSt3__114__rewrap_rangeB8ue170006IP5PointS2_EET_S3_T0_, symObjAddr: 0xD77C, symBinAddr: 0x100010EA0, symSize: 0x2C }
  - { offsetInCU: 0x2E6A0, offset: 0x2E6A0, size: 0x8, addend: 0x0, symName: __ZNSt3__119__copy_trivial_implB8ue170006I5PointS1_EENS_4pairIPT_PT0_EES4_S4_S6_, symObjAddr: 0xD7A8, symBinAddr: 0x100010ECC, symSize: 0x80 }
  - { offsetInCU: 0x2E708, offset: 0x2E708, size: 0x8, addend: 0x0, symName: __ZNSt3__119__constexpr_memmoveB8ue170006I5PointS1_Li0EEEPT_S3_PT0_NS_15__element_countE, symObjAddr: 0xD828, symBinAddr: 0x100010F4C, symSize: 0x64 }
  - { offsetInCU: 0x2E776, offset: 0x2E776, size: 0x8, addend: 0x0, symName: __ZNSt3__19make_pairB8ue170006IRP5PointS2_EENS_4pairINS_18__unwrap_ref_decayIT_E4typeENS5_IT0_E4typeEEEOS6_OS9_, symObjAddr: 0xD88C, symBinAddr: 0x100010FB0, symSize: 0x38 }
  - { offsetInCU: 0x2E8E1, offset: 0x2E8E1, size: 0x8, addend: 0x0, symName: __ZNSt3__113__rewrap_iterB8ue170006INS_11__wrap_iterIP5PointEES3_NS_18__unwrap_iter_implIS4_Lb1EEEEET_S7_T0_, symObjAddr: 0xD9C8, symBinAddr: 0x1000110EC, symSize: 0x4C }
  - { offsetInCU: 0x2E936, offset: 0x2E936, size: 0x8, addend: 0x0, symName: __ZNSt3__1neB8ue170006ERKNS_5dequeI5PointNS_9allocatorIS1_EEE13__deque_rangeES7_, symObjAddr: 0xE2A8, symBinAddr: 0x1000119CC, symSize: 0x34 }
  - { offsetInCU: 0x2E973, offset: 0x2E973, size: 0x8, addend: 0x0, symName: __ZNSt3__13maxB8ue170006ImEERKT_S3_S3_, symObjAddr: 0xECB0, symBinAddr: 0x1000123D4, symSize: 0x2C }
  - { offsetInCU: 0x2E9B7, offset: 0x2E9B7, size: 0x8, addend: 0x0, symName: __ZNSt3__14swapB8ue170006IPP5PointEENS_9enable_ifIXaasr21is_move_constructibleIT_EE5valuesr18is_move_assignableIS5_EE5valueEvE4typeERS5_S8_, symObjAddr: 0xF488, symBinAddr: 0x100012BAC, symSize: 0x3C }
  - { offsetInCU: 0x2EA08, offset: 0x2EA08, size: 0x8, addend: 0x0, symName: __ZNSt3__14moveB8ue170006IPP5PointS3_EET0_T_S5_S4_, symObjAddr: 0xF540, symBinAddr: 0x100012C64, symSize: 0x40 }
  - { offsetInCU: 0x2EA62, offset: 0x2EA62, size: 0x8, addend: 0x0, symName: __ZNSt3__16__moveB8ue170006INS_17_ClassicAlgPolicyEPP5PointS4_S4_EENS_4pairIT0_T2_EES6_T1_S7_, symObjAddr: 0xF648, symBinAddr: 0x100012D6C, symSize: 0x44 }
  - { offsetInCU: 0x2EACE, offset: 0x2EACE, size: 0x8, addend: 0x0, symName: __ZNSt3__123__dispatch_copy_or_moveB8ue170006INS_17_ClassicAlgPolicyENS_11__move_loopIS1_EENS_14__move_trivialEPP5PointS7_S7_EENS_4pairIT2_T4_EES9_T3_SA_, symObjAddr: 0xF68C, symBinAddr: 0x100012DB0, symSize: 0x44 }
  - { offsetInCU: 0x2EB4C, offset: 0x2EB4C, size: 0x8, addend: 0x0, symName: __ZNSt3__121__unwrap_and_dispatchB8ue170006INS_10__overloadINS_11__move_loopINS_17_ClassicAlgPolicyEEENS_14__move_trivialEEEPP5PointS9_S9_Li0EEENS_4pairIT0_T2_EESB_T1_SC_, symObjAddr: 0xF6D0, symBinAddr: 0x100012DF4, symSize: 0xB4 }
  - { offsetInCU: 0x2EBDA, offset: 0x2EBDA, size: 0x8, addend: 0x0, symName: __ZNSt3__114__unwrap_rangeB8ue170006IPP5PointS3_EENS_4pairIT0_S5_EET_S7_, symObjAddr: 0xF784, symBinAddr: 0x100012EA8, symSize: 0x60 }
  - { offsetInCU: 0x2EE8E, offset: 0x2EE8E, size: 0x8, addend: 0x0, symName: __ZNSt3__113__unwrap_iterB8ue170006IPP5PointNS_18__unwrap_iter_implIS3_Lb1EEELi0EEEDTclsrT0_8__unwrapclsr3stdE7declvalIT_EEEES7_, symObjAddr: 0xF82C, symBinAddr: 0x100012F50, symSize: 0x24 }
  - { offsetInCU: 0x2EED2, offset: 0x2EED2, size: 0x8, addend: 0x0, symName: __ZNSt3__19make_pairB8ue170006IPP5PointS3_EENS_4pairINS_18__unwrap_ref_decayIT_E4typeENS5_IT0_E4typeEEEOS6_OS9_, symObjAddr: 0xF850, symBinAddr: 0x100012F74, symSize: 0x38 }
  - { offsetInCU: 0x2EF21, offset: 0x2EF21, size: 0x8, addend: 0x0, symName: __ZNSt3__114__rewrap_rangeB8ue170006IPP5PointS3_EET_S4_T0_, symObjAddr: 0xF888, symBinAddr: 0x100012FAC, symSize: 0x2C }
  - { offsetInCU: 0x2EF6D, offset: 0x2EF6D, size: 0x8, addend: 0x0, symName: __ZNSt3__113__rewrap_iterB8ue170006IPP5PointS3_NS_18__unwrap_iter_implIS3_Lb1EEEEET_S6_T0_, symObjAddr: 0xF8B4, symBinAddr: 0x100012FD8, symSize: 0x3C }
  - { offsetInCU: 0x2EFC2, offset: 0x2EFC2, size: 0x8, addend: 0x0, symName: __ZNSt3__119__copy_trivial_implB8ue170006IP5PointS2_EENS_4pairIPT_PT0_EES5_S5_S7_, symObjAddr: 0xF8F0, symBinAddr: 0x100013014, symSize: 0x80 }
  - { offsetInCU: 0x2F02A, offset: 0x2F02A, size: 0x8, addend: 0x0, symName: __ZNSt3__119__constexpr_memmoveB8ue170006IP5PointS2_Li0EEEPT_S4_PT0_NS_15__element_countE, symObjAddr: 0xF970, symBinAddr: 0x100013094, symSize: 0x64 }
  - { offsetInCU: 0x2F098, offset: 0x2F098, size: 0x8, addend: 0x0, symName: __ZNSt3__19make_pairB8ue170006IRPP5PointS3_EENS_4pairINS_18__unwrap_ref_decayIT_E4typeENS6_IT0_E4typeEEEOS7_OSA_, symObjAddr: 0xF9D4, symBinAddr: 0x1000130F8, symSize: 0x38 }
  - { offsetInCU: 0x2F13A, offset: 0x2F13A, size: 0x8, addend: 0x0, symName: __ZNSt3__18distanceB8ue170006INS_13move_iteratorIPP5PointEEEENS_15iterator_traitsIT_E15difference_typeES7_S7_, symObjAddr: 0xFC3C, symBinAddr: 0x100013360, symSize: 0x3C }
  - { offsetInCU: 0x2F17D, offset: 0x2F17D, size: 0x8, addend: 0x0, symName: __ZNSt3__110__distanceB8ue170006INS_13move_iteratorIPP5PointEEEENS_15iterator_traitsIT_E15difference_typeES7_S7_NS_26random_access_iterator_tagE, symObjAddr: 0xFE40, symBinAddr: 0x100013564, symSize: 0x30 }
  - { offsetInCU: 0x2F1CB, offset: 0x2F1CB, size: 0x8, addend: 0x0, symName: __ZNSt3__1miB8ue170006IPP5PointS3_EEDTmicldtfp_4baseEcldtfp0_4baseEERKNS_13move_iteratorIT_EERKNS5_IT0_EE, symObjAddr: 0xFE70, symBinAddr: 0x100013594, symSize: 0x48 }
  - { offsetInCU: 0x2F21A, offset: 0x2F21A, size: 0x8, addend: 0x0, symName: __ZNSt3__113move_backwardB8ue170006IPP5PointS3_EET0_T_S5_S4_, symObjAddr: 0xFF18, symBinAddr: 0x10001363C, symSize: 0x40 }
  - { offsetInCU: 0x2F274, offset: 0x2F274, size: 0x8, addend: 0x0, symName: __ZNSt3__115__move_backwardB8ue170006INS_17_ClassicAlgPolicyEPP5PointS4_S4_EENS_4pairIT0_T2_EES6_T1_S7_, symObjAddr: 0xFF58, symBinAddr: 0x10001367C, symSize: 0x44 }
  - { offsetInCU: 0x2F2E0, offset: 0x2F2E0, size: 0x8, addend: 0x0, symName: __ZNSt3__123__dispatch_copy_or_moveB8ue170006INS_17_ClassicAlgPolicyENS_20__move_backward_loopIS1_EENS_23__move_backward_trivialEPP5PointS7_S7_EENS_4pairIT2_T4_EES9_T3_SA_, symObjAddr: 0xFF9C, symBinAddr: 0x1000136C0, symSize: 0x44 }
  - { offsetInCU: 0x2F35E, offset: 0x2F35E, size: 0x8, addend: 0x0, symName: __ZNSt3__121__unwrap_and_dispatchB8ue170006INS_10__overloadINS_20__move_backward_loopINS_17_ClassicAlgPolicyEEENS_23__move_backward_trivialEEEPP5PointS9_S9_Li0EEENS_4pairIT0_T2_EESB_T1_SC_, symObjAddr: 0xFFE0, symBinAddr: 0x100013704, symSize: 0xB4 }
  - { offsetInCU: 0x2F522, offset: 0x2F522, size: 0x8, addend: 0x0, symName: __ZNSt3__128__copy_backward_trivial_implB8ue170006IP5PointS2_EENS_4pairIPT_PT0_EES5_S5_S7_, symObjAddr: 0x100DC, symBinAddr: 0x100013800, symSize: 0x90 }
  - { offsetInCU: 0x2F58A, offset: 0x2F58A, size: 0x8, addend: 0x0, symName: __ZNSt3__19make_pairB8ue170006IRPP5PointS4_EENS_4pairINS_18__unwrap_ref_decayIT_E4typeENS6_IT0_E4typeEEEOS7_OSA_, symObjAddr: 0x1016C, symBinAddr: 0x100013890, symSize: 0x38 }
  - { offsetInCU: 0x2F5D9, offset: 0x2F5D9, size: 0x8, addend: 0x0, symName: __ZNSt3__13maxB8ue170006ImNS_6__lessIvvEEEERKT_S5_S5_T0_, symObjAddr: 0x10214, symBinAddr: 0x100013938, symSize: 0x54 }
  - { offsetInCU: 0x2F633, offset: 0x2F633, size: 0x8, addend: 0x0, symName: __ZNSt3__119__allocate_at_leastB8ue170006INS_9allocatorIP5PointEEEENS_19__allocation_resultINS_16allocator_traitsIT_E7pointerEEERS7_m, symObjAddr: 0x10378, symBinAddr: 0x100013A9C, symSize: 0x40 }
  - { offsetInCU: 0x2F676, offset: 0x2F676, size: 0x8, addend: 0x0, symName: __ZNSt3__1eqB8ue170006ERKNS_5dequeI5PointNS_9allocatorIS1_EEE13__deque_rangeES7_, symObjAddr: 0x1083C, symBinAddr: 0x100013F60, symSize: 0x30 }
  - { offsetInCU: 0x2F6B3, offset: 0x2F6B3, size: 0x8, addend: 0x0, symName: __ZNSt3__1miB8ue170006ERKNS_16__deque_iteratorI5PointPKS1_RS2_PKS3_lLl512EEES9_, symObjAddr: 0x109A0, symBinAddr: 0x1000140C4, symSize: 0xA4 }
  - { offsetInCU: 0x2F6F0, offset: 0x2F6F0, size: 0x8, addend: 0x0, symName: __ZNSt3__1neB8ue170006ERKNS_16__deque_iteratorI5PointPKS1_RS2_PKS3_lLl512EEES9_, symObjAddr: 0x10B8C, symBinAddr: 0x1000142B0, symSize: 0x34 }
  - { offsetInCU: 0x2F72E, offset: 0x2F72E, size: 0x8, addend: 0x0, symName: __ZNSt3__1eqB8ue170006ERKNS_16__deque_iteratorI5PointPKS1_RS2_PKS3_lLl512EEES9_, symObjAddr: 0x10BC0, symBinAddr: 0x1000142E4, symSize: 0x30 }
  - { offsetInCU: 0x2F76C, offset: 0x2F76C, size: 0x8, addend: 0x0, symName: __ZNSt3__112__to_addressB8ue170006I8MyStringEEPT_S3_, symObjAddr: 0x1194C, symBinAddr: 0x100015070, symSize: 0x14 }
  - { offsetInCU: 0x2F7A2, offset: 0x2F7A2, size: 0x8, addend: 0x0, symName: __ZNSt3__112__to_addressB8ue170006IP8MyStringEEPT_S4_, symObjAddr: 0x12270, symBinAddr: 0x100015994, symSize: 0x14 }
  - { offsetInCU: 0x2FC31, offset: 0x2FC31, size: 0x8, addend: 0x0, symName: __ZNSt3__14swapB8ue170006IPP8MyStringEENS_9enable_ifIXaasr21is_move_constructibleIT_EE5valuesr18is_move_assignableIS5_EE5valueEvE4typeERS5_S8_, symObjAddr: 0x135A4, symBinAddr: 0x100016CC8, symSize: 0x3C }
  - { offsetInCU: 0x2FC82, offset: 0x2FC82, size: 0x8, addend: 0x0, symName: __ZNSt3__14moveB8ue170006IPP8MyStringS3_EET0_T_S5_S4_, symObjAddr: 0x13688, symBinAddr: 0x100016DAC, symSize: 0x40 }
  - { offsetInCU: 0x2FCDC, offset: 0x2FCDC, size: 0x8, addend: 0x0, symName: __ZNSt3__16__moveB8ue170006INS_17_ClassicAlgPolicyEPP8MyStringS4_S4_EENS_4pairIT0_T2_EES6_T1_S7_, symObjAddr: 0x13790, symBinAddr: 0x100016EB4, symSize: 0x44 }
  - { offsetInCU: 0x2FD48, offset: 0x2FD48, size: 0x8, addend: 0x0, symName: __ZNSt3__123__dispatch_copy_or_moveB8ue170006INS_17_ClassicAlgPolicyENS_11__move_loopIS1_EENS_14__move_trivialEPP8MyStringS7_S7_EENS_4pairIT2_T4_EES9_T3_SA_, symObjAddr: 0x137D4, symBinAddr: 0x100016EF8, symSize: 0x44 }
  - { offsetInCU: 0x2FDC6, offset: 0x2FDC6, size: 0x8, addend: 0x0, symName: __ZNSt3__121__unwrap_and_dispatchB8ue170006INS_10__overloadINS_11__move_loopINS_17_ClassicAlgPolicyEEENS_14__move_trivialEEEPP8MyStringS9_S9_Li0EEENS_4pairIT0_T2_EESB_T1_SC_, symObjAddr: 0x13818, symBinAddr: 0x100016F3C, symSize: 0xB4 }
  - { offsetInCU: 0x2FE54, offset: 0x2FE54, size: 0x8, addend: 0x0, symName: __ZNSt3__114__unwrap_rangeB8ue170006IPP8MyStringS3_EENS_4pairIT0_S5_EET_S7_, symObjAddr: 0x138CC, symBinAddr: 0x100016FF0, symSize: 0x60 }
  - { offsetInCU: 0x2FFD2, offset: 0x2FFD2, size: 0x8, addend: 0x0, symName: __ZNSt3__113__unwrap_iterB8ue170006IPP8MyStringNS_18__unwrap_iter_implIS3_Lb1EEELi0EEEDTclsrT0_8__unwrapclsr3stdE7declvalIT_EEEES7_, symObjAddr: 0x13974, symBinAddr: 0x100017098, symSize: 0x24 }
  - { offsetInCU: 0x30016, offset: 0x30016, size: 0x8, addend: 0x0, symName: __ZNSt3__19make_pairB8ue170006IPP8MyStringS3_EENS_4pairINS_18__unwrap_ref_decayIT_E4typeENS5_IT0_E4typeEEEOS6_OS9_, symObjAddr: 0x13998, symBinAddr: 0x1000170BC, symSize: 0x38 }
  - { offsetInCU: 0x30065, offset: 0x30065, size: 0x8, addend: 0x0, symName: __ZNSt3__114__rewrap_rangeB8ue170006IPP8MyStringS3_EET_S4_T0_, symObjAddr: 0x139D0, symBinAddr: 0x1000170F4, symSize: 0x2C }
  - { offsetInCU: 0x300B1, offset: 0x300B1, size: 0x8, addend: 0x0, symName: __ZNSt3__113__rewrap_iterB8ue170006IPP8MyStringS3_NS_18__unwrap_iter_implIS3_Lb1EEEEET_S6_T0_, symObjAddr: 0x139FC, symBinAddr: 0x100017120, symSize: 0x3C }
  - { offsetInCU: 0x30106, offset: 0x30106, size: 0x8, addend: 0x0, symName: __ZNSt3__119__copy_trivial_implB8ue170006IP8MyStringS2_EENS_4pairIPT_PT0_EES5_S5_S7_, symObjAddr: 0x13A38, symBinAddr: 0x10001715C, symSize: 0x80 }
  - { offsetInCU: 0x3016E, offset: 0x3016E, size: 0x8, addend: 0x0, symName: __ZNSt3__119__constexpr_memmoveB8ue170006IP8MyStringS2_Li0EEEPT_S4_PT0_NS_15__element_countE, symObjAddr: 0x13AB8, symBinAddr: 0x1000171DC, symSize: 0x64 }
  - { offsetInCU: 0x301DC, offset: 0x301DC, size: 0x8, addend: 0x0, symName: __ZNSt3__19make_pairB8ue170006IRPP8MyStringS3_EENS_4pairINS_18__unwrap_ref_decayIT_E4typeENS6_IT0_E4typeEEEOS7_OSA_, symObjAddr: 0x13B1C, symBinAddr: 0x100017240, symSize: 0x38 }
  - { offsetInCU: 0x3027E, offset: 0x3027E, size: 0x8, addend: 0x0, symName: __ZNSt3__18distanceB8ue170006INS_13move_iteratorIPP8MyStringEEEENS_15iterator_traitsIT_E15difference_typeES7_S7_, symObjAddr: 0x13D84, symBinAddr: 0x1000174A8, symSize: 0x3C }
  - { offsetInCU: 0x302C1, offset: 0x302C1, size: 0x8, addend: 0x0, symName: __ZNSt3__110__distanceB8ue170006INS_13move_iteratorIPP8MyStringEEEENS_15iterator_traitsIT_E15difference_typeES7_S7_NS_26random_access_iterator_tagE, symObjAddr: 0x13F88, symBinAddr: 0x1000176AC, symSize: 0x30 }
  - { offsetInCU: 0x3030F, offset: 0x3030F, size: 0x8, addend: 0x0, symName: __ZNSt3__1miB8ue170006IPP8MyStringS3_EEDTmicldtfp_4baseEcldtfp0_4baseEERKNS_13move_iteratorIT_EERKNS5_IT0_EE, symObjAddr: 0x13FB8, symBinAddr: 0x1000176DC, symSize: 0x48 }
  - { offsetInCU: 0x3035E, offset: 0x3035E, size: 0x8, addend: 0x0, symName: __ZNSt3__113move_backwardB8ue170006IPP8MyStringS3_EET0_T_S5_S4_, symObjAddr: 0x140F0, symBinAddr: 0x100017814, symSize: 0x40 }
  - { offsetInCU: 0x303B8, offset: 0x303B8, size: 0x8, addend: 0x0, symName: __ZNSt3__115__move_backwardB8ue170006INS_17_ClassicAlgPolicyEPP8MyStringS4_S4_EENS_4pairIT0_T2_EES6_T1_S7_, symObjAddr: 0x14130, symBinAddr: 0x100017854, symSize: 0x44 }
  - { offsetInCU: 0x30424, offset: 0x30424, size: 0x8, addend: 0x0, symName: __ZNSt3__123__dispatch_copy_or_moveB8ue170006INS_17_ClassicAlgPolicyENS_20__move_backward_loopIS1_EENS_23__move_backward_trivialEPP8MyStringS7_S7_EENS_4pairIT2_T4_EES9_T3_SA_, symObjAddr: 0x14174, symBinAddr: 0x100017898, symSize: 0x44 }
  - { offsetInCU: 0x304A2, offset: 0x304A2, size: 0x8, addend: 0x0, symName: __ZNSt3__121__unwrap_and_dispatchB8ue170006INS_10__overloadINS_20__move_backward_loopINS_17_ClassicAlgPolicyEEENS_23__move_backward_trivialEEEPP8MyStringS9_S9_Li0EEENS_4pairIT0_T2_EESB_T1_SC_, symObjAddr: 0x141B8, symBinAddr: 0x1000178DC, symSize: 0xB4 }
  - { offsetInCU: 0x30530, offset: 0x30530, size: 0x8, addend: 0x0, symName: __ZNSt3__128__copy_backward_trivial_implB8ue170006IP8MyStringS2_EENS_4pairIPT_PT0_EES5_S5_S7_, symObjAddr: 0x142B4, symBinAddr: 0x1000179D8, symSize: 0x90 }
  - { offsetInCU: 0x30598, offset: 0x30598, size: 0x8, addend: 0x0, symName: __ZNSt3__19make_pairB8ue170006IRPP8MyStringS4_EENS_4pairINS_18__unwrap_ref_decayIT_E4typeENS6_IT0_E4typeEEEOS7_OSA_, symObjAddr: 0x14344, symBinAddr: 0x100017A68, symSize: 0x38 }
  - { offsetInCU: 0x305E7, offset: 0x305E7, size: 0x8, addend: 0x0, symName: __ZNSt3__119__allocate_at_leastB8ue170006INS_9allocatorIP8MyStringEEEENS_19__allocation_resultINS_16allocator_traitsIT_E7pointerEEERS7_m, symObjAddr: 0x144FC, symBinAddr: 0x100017C20, symSize: 0x40 }
  - { offsetInCU: 0x3062A, offset: 0x3062A, size: 0x8, addend: 0x0, symName: __ZNSt3__1miB8ue170006ERKNS_16__deque_iteratorI8MyStringPKS1_RS2_PKS3_lLl512EEES9_, symObjAddr: 0x15754, symBinAddr: 0x100018E78, symSize: 0xA4 }
  - { offsetInCU: 0x30667, offset: 0x30667, size: 0x8, addend: 0x0, symName: __ZNSt3__14prevB8ue170006INS_16__deque_iteratorI8MyStringPS2_RS2_PS3_lLl512EEEEENS_9enable_ifIXsr29__has_input_iterator_categoryIT_EE5valueES8_E4typeES8_NS_15iterator_traitsIS8_E15difference_typeE, symObjAddr: 0x157F8, symBinAddr: 0x100018F1C, symSize: 0x4C }
  - { offsetInCU: 0x306AA, offset: 0x306AA, size: 0x8, addend: 0x0, symName: __ZNSt3__14moveB8ue170006INS_16__deque_iteratorI8MyStringPS2_RS2_PS3_lLl512EEES6_EET0_T_S8_S7_, symObjAddr: 0x15844, symBinAddr: 0x100018F68, symSize: 0x78 }
  - { offsetInCU: 0x30704, offset: 0x30704, size: 0x8, addend: 0x0, symName: __ZNSt3__14nextB8ue170006INS_16__deque_iteratorI8MyStringPS2_RS2_PS3_lLl512EEEEENS_9enable_ifIXsr29__has_input_iterator_categoryIT_EE5valueES8_E4typeES8_NS_15iterator_traitsIS8_E15difference_typeE, symObjAddr: 0x158BC, symBinAddr: 0x100018FE0, symSize: 0x44 }
  - { offsetInCU: 0x30747, offset: 0x30747, size: 0x8, addend: 0x0, symName: __ZNSt3__113move_backwardB8ue170006INS_16__deque_iteratorI8MyStringPS2_RS2_PS3_lLl512EEES6_EET0_T_S8_S7_, symObjAddr: 0x15900, symBinAddr: 0x100019024, symSize: 0x78 }
  - { offsetInCU: 0x307A1, offset: 0x307A1, size: 0x8, addend: 0x0, symName: __ZNSt3__1neB8ue170006ERKNS_16__deque_iteratorI8MyStringPKS1_RS2_PKS3_lLl512EEES9_, symObjAddr: 0x159B8, symBinAddr: 0x1000190DC, symSize: 0x34 }
  - { offsetInCU: 0x307DF, offset: 0x307DF, size: 0x8, addend: 0x0, symName: __ZNSt3__1eqB8ue170006ERKNS_16__deque_iteratorI8MyStringPKS1_RS2_PKS3_lLl512EEES9_, symObjAddr: 0x159EC, symBinAddr: 0x100019110, symSize: 0x30 }
  - { offsetInCU: 0x3081D, offset: 0x3081D, size: 0x8, addend: 0x0, symName: __ZNSt3__121__convert_to_integralB8ue170006El, symObjAddr: 0x15A54, symBinAddr: 0x100019178, symSize: 0x14 }
  - { offsetInCU: 0x30849, offset: 0x30849, size: 0x8, addend: 0x0, symName: __ZNSt3__19__advanceB8ue170006INS_16__deque_iteratorI8MyStringPS2_RS2_PS3_lLl512EEEEEvRT_NS_15iterator_traitsIS7_E15difference_typeENS_26random_access_iterator_tagE, symObjAddr: 0x15A68, symBinAddr: 0x10001918C, symSize: 0x2C }
  - { offsetInCU: 0x30893, offset: 0x30893, size: 0x8, addend: 0x0, symName: __ZNSt3__16__moveB8ue170006INS_17_ClassicAlgPolicyENS_16__deque_iteratorI8MyStringPS3_RS3_PS4_lLl512EEES7_S7_EENS_4pairIT0_T2_EES9_T1_SA_, symObjAddr: 0x15A94, symBinAddr: 0x1000191B8, symSize: 0x64 }
  - { offsetInCU: 0x308FF, offset: 0x308FF, size: 0x8, addend: 0x0, symName: __ZNSt3__123__dispatch_copy_or_moveB8ue170006INS_17_ClassicAlgPolicyENS_11__move_loopIS1_EENS_14__move_trivialENS_16__deque_iteratorI8MyStringPS6_RS6_PS7_lLl512EEESA_SA_EENS_4pairIT2_T4_EESC_T3_SD_, symObjAddr: 0x15AF8, symBinAddr: 0x10001921C, symSize: 0x64 }
  - { offsetInCU: 0x3097D, offset: 0x3097D, size: 0x8, addend: 0x0, symName: __ZNSt3__121__unwrap_and_dispatchB8ue170006INS_10__overloadINS_11__move_loopINS_17_ClassicAlgPolicyEEENS_14__move_trivialEEENS_16__deque_iteratorI8MyStringPS8_RS8_PS9_lLl512EEESC_SC_Li0EEENS_4pairIT0_T2_EESE_T1_SF_, symObjAddr: 0x15B5C, symBinAddr: 0x100019280, symSize: 0x12C }
  - { offsetInCU: 0x30A0D, offset: 0x30A0D, size: 0x8, addend: 0x0, symName: __ZNSt3__114__unwrap_rangeB8ue170006INS_16__deque_iteratorI8MyStringPS2_RS2_PS3_lLl512EEES6_EENS_4pairIT0_S8_EET_SA_, symObjAddr: 0x15C88, symBinAddr: 0x1000193AC, symSize: 0x84 }
  - { offsetInCU: 0x30B8B, offset: 0x30B8B, size: 0x8, addend: 0x0, symName: __ZNSt3__113__unwrap_iterB8ue170006INS_16__deque_iteratorI8MyStringPS2_RS2_PS3_lLl512EEENS_18__unwrap_iter_implIS6_Lb0EEELi0EEEDTclsrT0_8__unwrapclsr3stdE7declvalIT_EEEESA_, symObjAddr: 0x15D94, symBinAddr: 0x1000194B8, symSize: 0x44 }
  - { offsetInCU: 0x30BCF, offset: 0x30BCF, size: 0x8, addend: 0x0, symName: __ZNSt3__19make_pairB8ue170006INS_16__deque_iteratorI8MyStringPS2_RS2_PS3_lLl512EEES6_EENS_4pairINS_18__unwrap_ref_decayIT_E4typeENS8_IT0_E4typeEEEOS9_OSC_, symObjAddr: 0x15DD8, symBinAddr: 0x1000194FC, symSize: 0x38 }
  - { offsetInCU: 0x30C1E, offset: 0x30C1E, size: 0x8, addend: 0x0, symName: __ZNSt3__114__rewrap_rangeB8ue170006INS_16__deque_iteratorI8MyStringPS2_RS2_PS3_lLl512EEES6_EET_S7_T0_, symObjAddr: 0x15E10, symBinAddr: 0x100019534, symSize: 0x5C }
  - { offsetInCU: 0x30C6A, offset: 0x30C6A, size: 0x8, addend: 0x0, symName: __ZNSt3__113__rewrap_iterB8ue170006INS_16__deque_iteratorI8MyStringPS2_RS2_PS3_lLl512EEES6_NS_18__unwrap_iter_implIS6_Lb0EEEEET_S9_T0_, symObjAddr: 0x15E6C, symBinAddr: 0x100019590, symSize: 0x74 }
  - { offsetInCU: 0x30CBF, offset: 0x30CBF, size: 0x8, addend: 0x0, symName: __ZNSt3__118__for_each_segmentB8ue170006INS_16__deque_iteratorI8MyStringPS2_RS2_PS3_lLl512EEENS_11__move_loopINS_17_ClassicAlgPolicyEE12_MoveSegmentIS6_S6_EEEEvT_SC_T0_, symObjAddr: 0x15EE0, symBinAddr: 0x100019604, symSize: 0x174 }
  - { offsetInCU: 0x30D32, offset: 0x30D32, size: 0x8, addend: 0x0, symName: __ZNSt3__19make_pairB8ue170006IRNS_16__deque_iteratorI8MyStringPS2_RS2_PS3_lLl512EEES6_EENS_4pairINS_18__unwrap_ref_decayIT_E4typeENS9_IT0_E4typeEEEOSA_OSD_, symObjAddr: 0x16088, symBinAddr: 0x1000197AC, symSize: 0x38 }
  - { offsetInCU: 0x30D81, offset: 0x30D81, size: 0x8, addend: 0x0, symName: __ZNSt3__16__moveB8ue170006INS_17_ClassicAlgPolicyEP8MyStringS3_NS_16__deque_iteratorIS2_S3_RS2_PS3_lLl512EEEEENS_4pairIT0_T2_EES9_T1_SA_, symObjAddr: 0x1618C, symBinAddr: 0x1000198B0, symSize: 0x44 }
  - { offsetInCU: 0x30DED, offset: 0x30DED, size: 0x8, addend: 0x0, symName: __ZNSt3__123__dispatch_copy_or_moveB8ue170006INS_17_ClassicAlgPolicyENS_11__move_loopIS1_EENS_14__move_trivialEP8MyStringS6_NS_16__deque_iteratorIS5_S6_RS5_PS6_lLl512EEEEENS_4pairIT2_T4_EESC_T3_SD_, symObjAddr: 0x161D0, symBinAddr: 0x1000198F4, symSize: 0x44 }
  - { offsetInCU: 0x30E6B, offset: 0x30E6B, size: 0x8, addend: 0x0, symName: __ZNSt3__121__unwrap_and_dispatchB8ue170006INS_10__overloadINS_11__move_loopINS_17_ClassicAlgPolicyEEENS_14__move_trivialEEEP8MyStringS8_NS_16__deque_iteratorIS7_S8_RS7_PS8_lLl512EEELi0EEENS_4pairIT0_T2_EESE_T1_SF_, symObjAddr: 0x16214, symBinAddr: 0x100019938, symSize: 0xF0 }
  - { offsetInCU: 0x30EFA, offset: 0x30EFA, size: 0x8, addend: 0x0, symName: __ZNSt3__114__unwrap_rangeB8ue170006IP8MyStringS2_EENS_4pairIT0_S4_EET_S6_, symObjAddr: 0x16304, symBinAddr: 0x100019A28, symSize: 0x60 }
  - { offsetInCU: 0x31049, offset: 0x31049, size: 0x8, addend: 0x0, symName: __ZNSt3__19make_pairB8ue170006IP8MyStringNS_16__deque_iteratorIS1_S2_RS1_PS2_lLl512EEEEENS_4pairINS_18__unwrap_ref_decayIT_E4typeENS8_IT0_E4typeEEEOS9_OSC_, symObjAddr: 0x164C8, symBinAddr: 0x100019BEC, symSize: 0x38 }
  - { offsetInCU: 0x31098, offset: 0x31098, size: 0x8, addend: 0x0, symName: __ZNSt3__114__rewrap_rangeB8ue170006IP8MyStringS2_EET_S3_T0_, symObjAddr: 0x16500, symBinAddr: 0x100019C24, symSize: 0x2C }
  - { offsetInCU: 0x310E4, offset: 0x310E4, size: 0x8, addend: 0x0, symName: __ZNSt3__19make_pairB8ue170006IP8MyStringS2_EENS_4pairINS_18__unwrap_ref_decayIT_E4typeENS4_IT0_E4typeEEEOS5_OS8_, symObjAddr: 0x1652C, symBinAddr: 0x100019C50, symSize: 0x38 }
  - { offsetInCU: 0x31133, offset: 0x31133, size: 0x8, addend: 0x0, symName: __ZNSt3__113__unwrap_iterB8ue170006IP8MyStringNS_18__unwrap_iter_implIS2_Lb1EEELi0EEEDTclsrT0_8__unwrapclsr3stdE7declvalIT_EEEES6_, symObjAddr: 0x16564, symBinAddr: 0x100019C88, symSize: 0x24 }
  - { offsetInCU: 0x3129E, offset: 0x3129E, size: 0x8, addend: 0x0, symName: __ZNSt3__16__moveB8ue170006INS_17_ClassicAlgPolicyEP8MyStringS3_S3_EENS_4pairIT0_T2_EES5_T1_S6_, symObjAddr: 0x1661C, symBinAddr: 0x100019D40, symSize: 0x44 }
  - { offsetInCU: 0x3130A, offset: 0x3130A, size: 0x8, addend: 0x0, symName: __ZNSt3__123__dispatch_copy_or_moveB8ue170006INS_17_ClassicAlgPolicyENS_11__move_loopIS1_EENS_14__move_trivialEP8MyStringS6_S6_EENS_4pairIT2_T4_EES8_T3_S9_, symObjAddr: 0x166E4, symBinAddr: 0x100019E08, symSize: 0x44 }
  - { offsetInCU: 0x31388, offset: 0x31388, size: 0x8, addend: 0x0, symName: __ZNSt3__121__unwrap_and_dispatchB8ue170006INS_10__overloadINS_11__move_loopINS_17_ClassicAlgPolicyEEENS_14__move_trivialEEEP8MyStringS8_S8_Li0EEENS_4pairIT0_T2_EESA_T1_SB_, symObjAddr: 0x16728, symBinAddr: 0x100019E4C, symSize: 0xB4 }
  - { offsetInCU: 0x31416, offset: 0x31416, size: 0x8, addend: 0x0, symName: __ZNSt3__113__rewrap_iterB8ue170006IP8MyStringS2_NS_18__unwrap_iter_implIS2_Lb1EEEEET_S5_T0_, symObjAddr: 0x1686C, symBinAddr: 0x100019F90, symSize: 0x3C }
  - { offsetInCU: 0x31775, offset: 0x31775, size: 0x8, addend: 0x0, symName: __ZNSt3__115__move_backwardB8ue170006INS_17_ClassicAlgPolicyENS_16__deque_iteratorI8MyStringPS3_RS3_PS4_lLl512EEES7_S7_EENS_4pairIT0_T2_EES9_T1_SA_, symObjAddr: 0x16AE4, symBinAddr: 0x10001A208, symSize: 0x64 }
  - { offsetInCU: 0x317E1, offset: 0x317E1, size: 0x8, addend: 0x0, symName: __ZNSt3__123__dispatch_copy_or_moveB8ue170006INS_17_ClassicAlgPolicyENS_20__move_backward_loopIS1_EENS_23__move_backward_trivialENS_16__deque_iteratorI8MyStringPS6_RS6_PS7_lLl512EEESA_SA_EENS_4pairIT2_T4_EESC_T3_SD_, symObjAddr: 0x16B48, symBinAddr: 0x10001A26C, symSize: 0x64 }
  - { offsetInCU: 0x3185F, offset: 0x3185F, size: 0x8, addend: 0x0, symName: __ZNSt3__121__unwrap_and_dispatchB8ue170006INS_10__overloadINS_20__move_backward_loopINS_17_ClassicAlgPolicyEEENS_23__move_backward_trivialEEENS_16__deque_iteratorI8MyStringPS8_RS8_PS9_lLl512EEESC_SC_Li0EEENS_4pairIT0_T2_EESE_T1_SF_, symObjAddr: 0x16BAC, symBinAddr: 0x10001A2D0, symSize: 0x12C }
  - { offsetInCU: 0x319B9, offset: 0x319B9, size: 0x8, addend: 0x0, symName: __ZNSt3__115__move_backwardB8ue170006INS_17_ClassicAlgPolicyEP8MyStringS3_NS_16__deque_iteratorIS2_S3_RS2_PS3_lLl512EEEEENS_4pairIT0_T2_EES9_T1_SA_, symObjAddr: 0x16F08, symBinAddr: 0x10001A62C, symSize: 0x44 }
  - { offsetInCU: 0x31A25, offset: 0x31A25, size: 0x8, addend: 0x0, symName: __ZNSt3__19make_pairB8ue170006IRNS_16__deque_iteratorI8MyStringPS2_RS2_PS3_lLl512EEES7_EENS_4pairINS_18__unwrap_ref_decayIT_E4typeENS9_IT0_E4typeEEEOSA_OSD_, symObjAddr: 0x16F4C, symBinAddr: 0x10001A670, symSize: 0x38 }
  - { offsetInCU: 0x31A74, offset: 0x31A74, size: 0x8, addend: 0x0, symName: __ZNSt3__123__dispatch_copy_or_moveB8ue170006INS_17_ClassicAlgPolicyENS_20__move_backward_loopIS1_EENS_23__move_backward_trivialEP8MyStringS6_NS_16__deque_iteratorIS5_S6_RS5_PS6_lLl512EEEEENS_4pairIT2_T4_EESC_T3_SD_, symObjAddr: 0x16F84, symBinAddr: 0x10001A6A8, symSize: 0x44 }
  - { offsetInCU: 0x31AF2, offset: 0x31AF2, size: 0x8, addend: 0x0, symName: __ZNSt3__121__unwrap_and_dispatchB8ue170006INS_10__overloadINS_20__move_backward_loopINS_17_ClassicAlgPolicyEEENS_23__move_backward_trivialEEEP8MyStringS8_NS_16__deque_iteratorIS7_S8_RS7_PS8_lLl512EEELi0EEENS_4pairIT0_T2_EESE_T1_SF_, symObjAddr: 0x16FC8, symBinAddr: 0x10001A6EC, symSize: 0xF0 }
  - { offsetInCU: 0x31B81, offset: 0x31B81, size: 0x8, addend: 0x0, symName: __ZNSt3__19make_pairB8ue170006IRP8MyStringRNS_16__deque_iteratorIS1_S2_RS1_PS2_lLl512EEEEENS_4pairINS_18__unwrap_ref_decayIT_E4typeENSA_IT0_E4typeEEEOSB_OSE_, symObjAddr: 0x17254, symBinAddr: 0x10001A978, symSize: 0x38 }
  - { offsetInCU: 0x31BD0, offset: 0x31BD0, size: 0x8, addend: 0x0, symName: __ZNSt3__115__move_backwardB8ue170006INS_17_ClassicAlgPolicyEP8MyStringS3_S3_EENS_4pairIT0_T2_EES5_T1_S6_, symObjAddr: 0x1728C, symBinAddr: 0x10001A9B0, symSize: 0x44 }
  - { offsetInCU: 0x31C3C, offset: 0x31C3C, size: 0x8, addend: 0x0, symName: __ZNSt3__123__dispatch_copy_or_moveB8ue170006INS_17_ClassicAlgPolicyENS_20__move_backward_loopIS1_EENS_23__move_backward_trivialEP8MyStringS6_S6_EENS_4pairIT2_T4_EES8_T3_S9_, symObjAddr: 0x17340, symBinAddr: 0x10001AA64, symSize: 0x44 }
  - { offsetInCU: 0x31CBA, offset: 0x31CBA, size: 0x8, addend: 0x0, symName: __ZNSt3__121__unwrap_and_dispatchB8ue170006INS_10__overloadINS_20__move_backward_loopINS_17_ClassicAlgPolicyEEENS_23__move_backward_trivialEEEP8MyStringS8_S8_Li0EEENS_4pairIT0_T2_EESA_T1_SB_, symObjAddr: 0x17384, symBinAddr: 0x10001AAA8, symSize: 0xB4 }
  - { offsetInCU: 0x31D49, offset: 0x31D49, size: 0x8, addend: 0x0, symName: __ZNSt3__1eqB8ue170006ERKNS_16__deque_iteratorI8MyStringPS1_RS1_PS2_lLl512EEES7_, symObjAddr: 0x17820, symBinAddr: 0x10001AF44, symSize: 0x30 }
  - { offsetInCU: 0x31D86, offset: 0x31D86, size: 0x8, addend: 0x0, symName: __ZNSt3__122__make_exception_guardB8ue170006INS_6vectorIiNS_9allocatorIiEEE16__destroy_vectorEEENS_28__exception_guard_exceptionsIT_EES7_, symObjAddr: 0x17CA8, symBinAddr: 0x10001B3CC, symSize: 0x40 }
  - { offsetInCU: 0x31DBB, offset: 0x31DBB, size: 0x8, addend: 0x0, symName: __ZNSt3__119__allocate_at_leastB8ue170006INS_9allocatorIiEEEENS_19__allocation_resultINS_16allocator_traitsIT_E7pointerEEERS5_m, symObjAddr: 0x180A8, symBinAddr: 0x10001B7CC, symSize: 0x40 }
  - { offsetInCU: 0x31DFF, offset: 0x31DFF, size: 0x8, addend: 0x0, symName: __ZNSt3__112__to_addressB8ue170006IiEEPT_S2_, symObjAddr: 0x183CC, symBinAddr: 0x10001BAF0, symSize: 0x14 }
  - { offsetInCU: 0x31E34, offset: 0x31E34, size: 0x8, addend: 0x0, symName: __ZNSt3__130__uninitialized_allocator_copyB8ue170006INS_9allocatorIiEEPKiS4_PiEET2_RT_T0_T1_S6_, symObjAddr: 0x1847C, symBinAddr: 0x10001BBA0, symSize: 0x80 }
  - { offsetInCU: 0x31ED1, offset: 0x31ED1, size: 0x8, addend: 0x0, symName: __ZNSt3__114__unwrap_rangeB8ue170006IPKiS2_EENS_4pairIT0_S4_EET_S6_, symObjAddr: 0x1856C, symBinAddr: 0x10001BC90, symSize: 0x60 }
  - { offsetInCU: 0x31F1D, offset: 0x31F1D, size: 0x8, addend: 0x0, symName: __ZNSt3__135__uninitialized_allocator_copy_implB8ue170006INS_9allocatorIiEEKiiiLPv0EEEPT2_RT_PT0_SA_S6_, symObjAddr: 0x185CC, symBinAddr: 0x10001BCF0, symSize: 0x38 }
  - { offsetInCU: 0x31F9F, offset: 0x31F9F, size: 0x8, addend: 0x0, symName: __ZNSt3__113__unwrap_iterB8ue170006IPiNS_18__unwrap_iter_implIS1_Lb1EEELi0EEEDTclsrT0_8__unwrapclsr3stdE7declvalIT_EEEES5_, symObjAddr: 0x18604, symBinAddr: 0x10001BD28, symSize: 0x24 }
  - { offsetInCU: 0x31FE3, offset: 0x31FE3, size: 0x8, addend: 0x0, symName: __ZNSt3__113__rewrap_iterB8ue170006IPiS1_NS_18__unwrap_iter_implIS1_Lb1EEEEET_S4_T0_, symObjAddr: 0x18628, symBinAddr: 0x10001BD4C, symSize: 0x3C }
  - { offsetInCU: 0x32038, offset: 0x32038, size: 0x8, addend: 0x0, symName: __ZNSt3__19make_pairB8ue170006IPKiS2_EENS_4pairINS_18__unwrap_ref_decayIT_E4typeENS4_IT0_E4typeEEEOS5_OS8_, symObjAddr: 0x18664, symBinAddr: 0x10001BD88, symSize: 0x38 }
  - { offsetInCU: 0x32087, offset: 0x32087, size: 0x8, addend: 0x0, symName: __ZNSt3__113__unwrap_iterB8ue170006IPKiNS_18__unwrap_iter_implIS2_Lb1EEELi0EEEDTclsrT0_8__unwrapclsr3stdE7declvalIT_EEEES6_, symObjAddr: 0x1869C, symBinAddr: 0x10001BDC0, symSize: 0x24 }
  - { offsetInCU: 0x321F3, offset: 0x321F3, size: 0x8, addend: 0x0, symName: __ZNSt3__112__to_addressB8ue170006IKiEEPT_S3_, symObjAddr: 0x18754, symBinAddr: 0x10001BE78, symSize: 0x14 }
  - { offsetInCU: 0x32228, offset: 0x32228, size: 0x8, addend: 0x0, symName: __ZNSt3__14copyB8ue170006IPKiPiEET0_T_S5_S4_, symObjAddr: 0x18768, symBinAddr: 0x10001BE8C, symSize: 0x40 }
  - { offsetInCU: 0x32282, offset: 0x32282, size: 0x8, addend: 0x0, symName: __ZNSt3__16__copyB8ue170006INS_17_ClassicAlgPolicyEPKiS3_PiEENS_4pairIT0_T2_EES6_T1_S7_, symObjAddr: 0x187A8, symBinAddr: 0x10001BECC, symSize: 0x44 }
  - { offsetInCU: 0x322EE, offset: 0x322EE, size: 0x8, addend: 0x0, symName: __ZNSt3__123__dispatch_copy_or_moveB8ue170006INS_17_ClassicAlgPolicyENS_11__copy_loopIS1_EENS_14__copy_trivialEPKiS6_PiEENS_4pairIT2_T4_EES9_T3_SA_, symObjAddr: 0x187EC, symBinAddr: 0x10001BF10, symSize: 0x44 }
  - { offsetInCU: 0x3236C, offset: 0x3236C, size: 0x8, addend: 0x0, symName: __ZNSt3__121__unwrap_and_dispatchB8ue170006INS_10__overloadINS_11__copy_loopINS_17_ClassicAlgPolicyEEENS_14__copy_trivialEEEPKiS8_PiLi0EEENS_4pairIT0_T2_EESB_T1_SC_, symObjAddr: 0x18830, symBinAddr: 0x10001BF54, symSize: 0xB4 }
  - { offsetInCU: 0x324FD, offset: 0x324FD, size: 0x8, addend: 0x0, symName: __ZNSt3__19make_pairB8ue170006IPKiPiEENS_4pairINS_18__unwrap_ref_decayIT_E4typeENS5_IT0_E4typeEEEOS6_OS9_, symObjAddr: 0x1892C, symBinAddr: 0x10001C050, symSize: 0x38 }
  - { offsetInCU: 0x3254C, offset: 0x3254C, size: 0x8, addend: 0x0, symName: __ZNSt3__114__rewrap_rangeB8ue170006IPKiS2_EET_S3_T0_, symObjAddr: 0x18964, symBinAddr: 0x10001C088, symSize: 0x2C }
  - { offsetInCU: 0x32598, offset: 0x32598, size: 0x8, addend: 0x0, symName: __ZNSt3__119__copy_trivial_implB8ue170006IKiiEENS_4pairIPT_PT0_EES4_S4_S6_, symObjAddr: 0x18990, symBinAddr: 0x10001C0B4, symSize: 0x80 }
  - { offsetInCU: 0x32600, offset: 0x32600, size: 0x8, addend: 0x0, symName: __ZNSt3__119__constexpr_memmoveB8ue170006IiKiLi0EEEPT_S3_PT0_NS_15__element_countE, symObjAddr: 0x18A10, symBinAddr: 0x10001C134, symSize: 0x64 }
  - { offsetInCU: 0x3266E, offset: 0x3266E, size: 0x8, addend: 0x0, symName: __ZNSt3__19make_pairB8ue170006IRPKiPiEENS_4pairINS_18__unwrap_ref_decayIT_E4typeENS6_IT0_E4typeEEEOS7_OSA_, symObjAddr: 0x18A74, symBinAddr: 0x10001C198, symSize: 0x38 }
  - { offsetInCU: 0x326BD, offset: 0x326BD, size: 0x8, addend: 0x0, symName: __ZNSt3__113__rewrap_iterB8ue170006IPKiS2_NS_18__unwrap_iter_implIS2_Lb1EEEEET_S5_T0_, symObjAddr: 0x18B8C, symBinAddr: 0x10001C2B0, symSize: 0x3C }
  - { offsetInCU: 0x32765, offset: 0x32765, size: 0x8, addend: 0x0, symName: __ZNSt3__1neB8ue170006IPKiEEbRKNS_11__wrap_iterIT_EES7_, symObjAddr: 0x19074, symBinAddr: 0x10001C798, symSize: 0x34 }
  - { offsetInCU: 0x327A8, offset: 0x327A8, size: 0x8, addend: 0x0, symName: __ZNSt3__1eqB8ue170006IPKiEEbRKNS_11__wrap_iterIT_EES7_, symObjAddr: 0x19164, symBinAddr: 0x10001C888, symSize: 0x48 }
  - { offsetInCU: 0x327EB, offset: 0x327EB, size: 0x8, addend: 0x0, symName: __ZNSt3__1neB8ue170006ERKNS_16__deque_iteratorIiPiRiPS1_lLl1024EEES6_, symObjAddr: 0x19708, symBinAddr: 0x10001CE2C, symSize: 0x34 }
  - { offsetInCU: 0x32829, offset: 0x32829, size: 0x8, addend: 0x0, symName: __ZNSt3__1eqB8ue170006ERKNS_16__deque_iteratorIiPiRiPS1_lLl1024EEES6_, symObjAddr: 0x19A14, symBinAddr: 0x10001D138, symSize: 0x30 }
  - { offsetInCU: 0x32867, offset: 0x32867, size: 0x8, addend: 0x0, symName: __ZNSt3__112__to_addressB8ue170006IPiEEPT_S3_, symObjAddr: 0x1A3E0, symBinAddr: 0x10001DB04, symSize: 0x14 }
  - { offsetInCU: 0x32C42, offset: 0x32C42, size: 0x8, addend: 0x0, symName: __ZNSt3__14swapB8ue170006IPPiEENS_9enable_ifIXaasr21is_move_constructibleIT_EE5valuesr18is_move_assignableIS4_EE5valueEvE4typeERS4_S7_, symObjAddr: 0x1B844, symBinAddr: 0x10001EF68, symSize: 0x3C }
  - { offsetInCU: 0x32C93, offset: 0x32C93, size: 0x8, addend: 0x0, symName: __ZNSt3__14moveB8ue170006IPPiS2_EET0_T_S4_S3_, symObjAddr: 0x1B928, symBinAddr: 0x10001F04C, symSize: 0x40 }
  - { offsetInCU: 0x32CED, offset: 0x32CED, size: 0x8, addend: 0x0, symName: __ZNSt3__16__moveB8ue170006INS_17_ClassicAlgPolicyEPPiS3_S3_EENS_4pairIT0_T2_EES5_T1_S6_, symObjAddr: 0x1BA30, symBinAddr: 0x10001F154, symSize: 0x44 }
  - { offsetInCU: 0x32D59, offset: 0x32D59, size: 0x8, addend: 0x0, symName: __ZNSt3__123__dispatch_copy_or_moveB8ue170006INS_17_ClassicAlgPolicyENS_11__move_loopIS1_EENS_14__move_trivialEPPiS6_S6_EENS_4pairIT2_T4_EES8_T3_S9_, symObjAddr: 0x1BA74, symBinAddr: 0x10001F198, symSize: 0x44 }
  - { offsetInCU: 0x32DD7, offset: 0x32DD7, size: 0x8, addend: 0x0, symName: __ZNSt3__121__unwrap_and_dispatchB8ue170006INS_10__overloadINS_11__move_loopINS_17_ClassicAlgPolicyEEENS_14__move_trivialEEEPPiS8_S8_Li0EEENS_4pairIT0_T2_EESA_T1_SB_, symObjAddr: 0x1BAB8, symBinAddr: 0x10001F1DC, symSize: 0xB4 }
  - { offsetInCU: 0x32E65, offset: 0x32E65, size: 0x8, addend: 0x0, symName: __ZNSt3__114__unwrap_rangeB8ue170006IPPiS2_EENS_4pairIT0_S4_EET_S6_, symObjAddr: 0x1BB6C, symBinAddr: 0x10001F290, symSize: 0x60 }
  - { offsetInCU: 0x32FE3, offset: 0x32FE3, size: 0x8, addend: 0x0, symName: __ZNSt3__113__unwrap_iterB8ue170006IPPiNS_18__unwrap_iter_implIS2_Lb1EEELi0EEEDTclsrT0_8__unwrapclsr3stdE7declvalIT_EEEES6_, symObjAddr: 0x1BC14, symBinAddr: 0x10001F338, symSize: 0x24 }
  - { offsetInCU: 0x33027, offset: 0x33027, size: 0x8, addend: 0x0, symName: __ZNSt3__19make_pairB8ue170006IPPiS2_EENS_4pairINS_18__unwrap_ref_decayIT_E4typeENS4_IT0_E4typeEEEOS5_OS8_, symObjAddr: 0x1BC38, symBinAddr: 0x10001F35C, symSize: 0x38 }
  - { offsetInCU: 0x33076, offset: 0x33076, size: 0x8, addend: 0x0, symName: __ZNSt3__114__rewrap_rangeB8ue170006IPPiS2_EET_S3_T0_, symObjAddr: 0x1BC70, symBinAddr: 0x10001F394, symSize: 0x2C }
  - { offsetInCU: 0x330C2, offset: 0x330C2, size: 0x8, addend: 0x0, symName: __ZNSt3__113__rewrap_iterB8ue170006IPPiS2_NS_18__unwrap_iter_implIS2_Lb1EEEEET_S5_T0_, symObjAddr: 0x1BC9C, symBinAddr: 0x10001F3C0, symSize: 0x3C }
  - { offsetInCU: 0x33117, offset: 0x33117, size: 0x8, addend: 0x0, symName: __ZNSt3__119__copy_trivial_implB8ue170006IPiS1_EENS_4pairIPT_PT0_EES4_S4_S6_, symObjAddr: 0x1BCD8, symBinAddr: 0x10001F3FC, symSize: 0x80 }
  - { offsetInCU: 0x3317F, offset: 0x3317F, size: 0x8, addend: 0x0, symName: __ZNSt3__119__constexpr_memmoveB8ue170006IPiS1_Li0EEEPT_S3_PT0_NS_15__element_countE, symObjAddr: 0x1BD58, symBinAddr: 0x10001F47C, symSize: 0x64 }
  - { offsetInCU: 0x331ED, offset: 0x331ED, size: 0x8, addend: 0x0, symName: __ZNSt3__19make_pairB8ue170006IRPPiS2_EENS_4pairINS_18__unwrap_ref_decayIT_E4typeENS5_IT0_E4typeEEEOS6_OS9_, symObjAddr: 0x1BDBC, symBinAddr: 0x10001F4E0, symSize: 0x38 }
  - { offsetInCU: 0x3328F, offset: 0x3328F, size: 0x8, addend: 0x0, symName: __ZNSt3__18distanceB8ue170006INS_13move_iteratorIPPiEEEENS_15iterator_traitsIT_E15difference_typeES6_S6_, symObjAddr: 0x1C024, symBinAddr: 0x10001F748, symSize: 0x3C }
  - { offsetInCU: 0x332D2, offset: 0x332D2, size: 0x8, addend: 0x0, symName: __ZNSt3__110__distanceB8ue170006INS_13move_iteratorIPPiEEEENS_15iterator_traitsIT_E15difference_typeES6_S6_NS_26random_access_iterator_tagE, symObjAddr: 0x1C228, symBinAddr: 0x10001F94C, symSize: 0x30 }
  - { offsetInCU: 0x33320, offset: 0x33320, size: 0x8, addend: 0x0, symName: __ZNSt3__1miB8ue170006IPPiS2_EEDTmicldtfp_4baseEcldtfp0_4baseEERKNS_13move_iteratorIT_EERKNS4_IT0_EE, symObjAddr: 0x1C258, symBinAddr: 0x10001F97C, symSize: 0x48 }
  - { offsetInCU: 0x3336F, offset: 0x3336F, size: 0x8, addend: 0x0, symName: __ZNSt3__113move_backwardB8ue170006IPPiS2_EET0_T_S4_S3_, symObjAddr: 0x1C300, symBinAddr: 0x10001FA24, symSize: 0x40 }
  - { offsetInCU: 0x333C9, offset: 0x333C9, size: 0x8, addend: 0x0, symName: __ZNSt3__115__move_backwardB8ue170006INS_17_ClassicAlgPolicyEPPiS3_S3_EENS_4pairIT0_T2_EES5_T1_S6_, symObjAddr: 0x1C340, symBinAddr: 0x10001FA64, symSize: 0x44 }
  - { offsetInCU: 0x33435, offset: 0x33435, size: 0x8, addend: 0x0, symName: __ZNSt3__123__dispatch_copy_or_moveB8ue170006INS_17_ClassicAlgPolicyENS_20__move_backward_loopIS1_EENS_23__move_backward_trivialEPPiS6_S6_EENS_4pairIT2_T4_EES8_T3_S9_, symObjAddr: 0x1C384, symBinAddr: 0x10001FAA8, symSize: 0x44 }
  - { offsetInCU: 0x334B3, offset: 0x334B3, size: 0x8, addend: 0x0, symName: __ZNSt3__121__unwrap_and_dispatchB8ue170006INS_10__overloadINS_20__move_backward_loopINS_17_ClassicAlgPolicyEEENS_23__move_backward_trivialEEEPPiS8_S8_Li0EEENS_4pairIT0_T2_EESA_T1_SB_, symObjAddr: 0x1C3C8, symBinAddr: 0x10001FAEC, symSize: 0xB4 }
  - { offsetInCU: 0x33541, offset: 0x33541, size: 0x8, addend: 0x0, symName: __ZNSt3__128__copy_backward_trivial_implB8ue170006IPiS1_EENS_4pairIPT_PT0_EES4_S4_S6_, symObjAddr: 0x1C4C4, symBinAddr: 0x10001FBE8, symSize: 0x90 }
  - { offsetInCU: 0x335A9, offset: 0x335A9, size: 0x8, addend: 0x0, symName: __ZNSt3__19make_pairB8ue170006IRPPiS3_EENS_4pairINS_18__unwrap_ref_decayIT_E4typeENS5_IT0_E4typeEEEOS6_OS9_, symObjAddr: 0x1C554, symBinAddr: 0x10001FC78, symSize: 0x38 }
  - { offsetInCU: 0x335F8, offset: 0x335F8, size: 0x8, addend: 0x0, symName: __ZNSt3__119__allocate_at_leastB8ue170006INS_9allocatorIPiEEEENS_19__allocation_resultINS_16allocator_traitsIT_E7pointerEEERS6_m, symObjAddr: 0x1C70C, symBinAddr: 0x10001FE30, symSize: 0x40 }
  - { offsetInCU: 0x3363B, offset: 0x3363B, size: 0x8, addend: 0x0, symName: __ZNSt3__18distanceB8ue170006INS_16__deque_iteratorIiPKiRS2_PKS3_lLl1024EEEEENS_15iterator_traitsIT_E15difference_typeES9_S9_, symObjAddr: 0x1D930, symBinAddr: 0x100021054, symSize: 0x4C }
  - { offsetInCU: 0x3367E, offset: 0x3367E, size: 0x8, addend: 0x0, symName: __ZNSt3__1neB8ue170006ERKNS_5dequeIiNS_9allocatorIiEEE13__deque_rangeES6_, symObjAddr: 0x1E0B8, symBinAddr: 0x1000217DC, symSize: 0x34 }
  - { offsetInCU: 0x336BB, offset: 0x336BB, size: 0x8, addend: 0x0, symName: __ZNSt3__1eqB8ue170006ERKNS_5dequeIiNS_9allocatorIiEEE13__deque_rangeES6_, symObjAddr: 0x1E6EC, symBinAddr: 0x100021E10, symSize: 0x30 }
  - { offsetInCU: 0x336F8, offset: 0x336F8, size: 0x8, addend: 0x0, symName: __ZNSt3__110__distanceB8ue170006INS_16__deque_iteratorIiPKiRS2_PKS3_lLl1024EEEEENS_15iterator_traitsIT_E15difference_typeES9_S9_NS_26random_access_iterator_tagE, symObjAddr: 0x1E828, symBinAddr: 0x100021F4C, symSize: 0x38 }
  - { offsetInCU: 0x33746, offset: 0x33746, size: 0x8, addend: 0x0, symName: __ZNSt3__1miB8ue170006ERKNS_16__deque_iteratorIiPKiRS1_PKS2_lLl1024EEES8_, symObjAddr: 0x1E860, symBinAddr: 0x100021F84, symSize: 0xA8 }
  - { offsetInCU: 0x33783, offset: 0x33783, size: 0x8, addend: 0x0, symName: __ZNSt3__1neB8ue170006ERKNS_16__deque_iteratorIiPKiRS1_PKS2_lLl1024EEES8_, symObjAddr: 0x1E908, symBinAddr: 0x10002202C, symSize: 0x34 }
  - { offsetInCU: 0x337C1, offset: 0x337C1, size: 0x8, addend: 0x0, symName: __ZNSt3__1eqB8ue170006ERKNS_16__deque_iteratorIiPKiRS1_PKS2_lLl1024EEES8_, symObjAddr: 0x1E93C, symBinAddr: 0x100022060, symSize: 0x30 }
  - { offsetInCU: 0x337FE, offset: 0x337FE, size: 0x8, addend: 0x0, symName: __ZNSt3__19push_heapB8ue170006INS_11__wrap_iterIPiEENS_4lessIiEEEEvT_S6_T0_, symObjAddr: 0x1EE0C, symBinAddr: 0x100022530, symSize: 0x40 }
  - { offsetInCU: 0x33854, offset: 0x33854, size: 0x8, addend: 0x0, symName: __ZNSt3__142__uninitialized_allocator_move_if_noexceptB8ue170006INS_9allocatorIiEENS_16reverse_iteratorIPiEES5_ivEET1_RT_T0_S9_S6_, symObjAddr: 0x1F414, symBinAddr: 0x100022B38, symSize: 0x78 }
  - { offsetInCU: 0x338D3, offset: 0x338D3, size: 0x8, addend: 0x0, symName: __ZNSt3__14swapB8ue170006IPiEENS_9enable_ifIXaasr21is_move_constructibleIT_EE5valuesr18is_move_assignableIS3_EE5valueEvE4typeERS3_S6_, symObjAddr: 0x1F4D8, symBinAddr: 0x100022BFC, symSize: 0x3C }
  - { offsetInCU: 0x33924, offset: 0x33924, size: 0x8, addend: 0x0, symName: __ZNSt3__14moveB8ue170006INS_16reverse_iteratorIPiEES3_EET0_T_S5_S4_, symObjAddr: 0x1F514, symBinAddr: 0x100022C38, symSize: 0x78 }
  - { offsetInCU: 0x3397E, offset: 0x3397E, size: 0x8, addend: 0x0, symName: __ZNSt3__16__moveB8ue170006INS_17_ClassicAlgPolicyENS_16reverse_iteratorIPiEES4_S4_EENS_4pairIT0_T2_EES6_T1_S7_, symObjAddr: 0x1F58C, symBinAddr: 0x100022CB0, symSize: 0x64 }
  - { offsetInCU: 0x339EA, offset: 0x339EA, size: 0x8, addend: 0x0, symName: __ZNSt3__123__dispatch_copy_or_moveB8ue170006INS_17_ClassicAlgPolicyENS_11__move_loopIS1_EENS_14__move_trivialENS_16reverse_iteratorIPiEES7_S7_EENS_4pairIT2_T4_EES9_T3_SA_, symObjAddr: 0x1F5F0, symBinAddr: 0x100022D14, symSize: 0x64 }
  - { offsetInCU: 0x33A68, offset: 0x33A68, size: 0x8, addend: 0x0, symName: __ZNSt3__121__unwrap_and_dispatchB8ue170006INS_10__overloadINS_11__move_loopINS_17_ClassicAlgPolicyEEENS_14__move_trivialEEENS_16reverse_iteratorIPiEES9_S9_Li0EEENS_4pairIT0_T2_EESB_T1_SC_, symObjAddr: 0x1F654, symBinAddr: 0x100022D78, symSize: 0x12C }
  - { offsetInCU: 0x33AF8, offset: 0x33AF8, size: 0x8, addend: 0x0, symName: __ZNSt3__114__unwrap_rangeB8ue170006INS_16reverse_iteratorIPiEES3_EENS_4pairIT0_S5_EET_S7_, symObjAddr: 0x1F780, symBinAddr: 0x100022EA4, symSize: 0x84 }
  - { offsetInCU: 0x33C18, offset: 0x33C18, size: 0x8, addend: 0x0, symName: __ZNSt3__113__unwrap_iterB8ue170006INS_16reverse_iteratorIPiEENS_18__unwrap_iter_implIS3_Lb0EEELi0EEEDTclsrT0_8__unwrapclsr3stdE7declvalIT_EEEES7_, symObjAddr: 0x1F8A4, symBinAddr: 0x100022FC8, symSize: 0x44 }
  - { offsetInCU: 0x33C5C, offset: 0x33C5C, size: 0x8, addend: 0x0, symName: __ZNSt3__19make_pairB8ue170006INS_16reverse_iteratorIPiEES3_EENS_4pairINS_18__unwrap_ref_decayIT_E4typeENS5_IT0_E4typeEEEOS6_OS9_, symObjAddr: 0x1F8E8, symBinAddr: 0x10002300C, symSize: 0x38 }
  - { offsetInCU: 0x33CAB, offset: 0x33CAB, size: 0x8, addend: 0x0, symName: __ZNSt3__114__rewrap_rangeB8ue170006INS_16reverse_iteratorIPiEES3_EET_S4_T0_, symObjAddr: 0x1F920, symBinAddr: 0x100023044, symSize: 0x5C }
  - { offsetInCU: 0x33CF7, offset: 0x33CF7, size: 0x8, addend: 0x0, symName: __ZNSt3__113__rewrap_iterB8ue170006INS_16reverse_iteratorIPiEES3_NS_18__unwrap_iter_implIS3_Lb0EEEEET_S6_T0_, symObjAddr: 0x1F97C, symBinAddr: 0x1000230A0, symSize: 0x74 }
  - { offsetInCU: 0x33D4C, offset: 0x33D4C, size: 0x8, addend: 0x0, symName: __ZNSt3__1neB8ue170006IPiS1_EEbRKNS_16reverse_iteratorIT_EERKNS2_IT0_EE, symObjAddr: 0x1F9F0, symBinAddr: 0x100023114, symSize: 0x48 }
  - { offsetInCU: 0x33E04, offset: 0x33E04, size: 0x8, addend: 0x0, symName: __ZNSt3__111__push_heapB8ue170006INS_17_ClassicAlgPolicyENS_11__wrap_iterIPiEENS_4lessIiEEEEvT0_S7_RT1_, symObjAddr: 0x1FD80, symBinAddr: 0x1000234A4, symSize: 0x5C }
  - { offsetInCU: 0x33E71, offset: 0x33E71, size: 0x8, addend: 0x0, symName: __ZNSt3__1miB8ue170006IPiS1_EEDTmicldtfp_4baseEcldtfp0_4baseEERKNS_11__wrap_iterIT_EERKNS3_IT0_EE, symObjAddr: 0x1FDDC, symBinAddr: 0x100023500, symSize: 0x48 }
  - { offsetInCU: 0x33EBD, offset: 0x33EBD, size: 0x8, addend: 0x0, symName: __ZNSt3__19__sift_upB8ue170006INS_17_ClassicAlgPolicyERNS_4lessIiEENS_11__wrap_iterIPiEEEEvT1_S8_OT0_NS_15iterator_traitsIS8_E15difference_typeE, symObjAddr: 0x1FE24, symBinAddr: 0x100023548, symSize: 0x168 }
  - { offsetInCU: 0x33F6D, offset: 0x33F6D, size: 0x8, addend: 0x0, symName: __ZNSt3__18pop_heapB8ue170006INS_11__wrap_iterIPiEENS_4lessIiEEEEvT_S6_T0_, symObjAddr: 0x20170, symBinAddr: 0x100023894, symSize: 0x58 }
  - { offsetInCU: 0x33FD1, offset: 0x33FD1, size: 0x8, addend: 0x0, symName: __ZNSt3__110__pop_heapB8ue170006INS_17_ClassicAlgPolicyENS_4lessIiEENS_11__wrap_iterIPiEEEEvT1_S7_RT0_NS_15iterator_traitsIS7_E15difference_typeE, symObjAddr: 0x201F4, symBinAddr: 0x100023918, symSize: 0x144 }
  - { offsetInCU: 0x34081, offset: 0x34081, size: 0x8, addend: 0x0, symName: __ZNSt3__130__uninitialized_allocator_copyB8ue170006INS_9allocatorIiEEPiS3_S3_EET2_RT_T0_T1_S4_, symObjAddr: 0x2085C, symBinAddr: 0x100023F80, symSize: 0x80 }
  - { offsetInCU: 0x3411E, offset: 0x3411E, size: 0x8, addend: 0x0, symName: __ZNSt3__114__unwrap_rangeB8ue170006IPiS1_EENS_4pairIT0_S3_EET_S5_, symObjAddr: 0x208DC, symBinAddr: 0x100024000, symSize: 0x60 }
  - { offsetInCU: 0x3416A, offset: 0x3416A, size: 0x8, addend: 0x0, symName: __ZNSt3__135__uninitialized_allocator_copy_implB8ue170006INS_9allocatorIiEEiiiLPv0EEEPT2_RT_PT0_S9_S5_, symObjAddr: 0x2093C, symBinAddr: 0x100024060, symSize: 0x38 }
  - { offsetInCU: 0x341EC, offset: 0x341EC, size: 0x8, addend: 0x0, symName: __ZNSt3__19make_pairB8ue170006IPiS1_EENS_4pairINS_18__unwrap_ref_decayIT_E4typeENS3_IT0_E4typeEEEOS4_OS7_, symObjAddr: 0x20974, symBinAddr: 0x100024098, symSize: 0x38 }
  - { offsetInCU: 0x3436D, offset: 0x3436D, size: 0x8, addend: 0x0, symName: __ZNSt3__14copyB8ue170006IPiS1_EET0_T_S3_S2_, symObjAddr: 0x20A1C, symBinAddr: 0x100024140, symSize: 0x40 }
  - { offsetInCU: 0x343C7, offset: 0x343C7, size: 0x8, addend: 0x0, symName: __ZNSt3__16__copyB8ue170006INS_17_ClassicAlgPolicyEPiS2_S2_EENS_4pairIT0_T2_EES4_T1_S5_, symObjAddr: 0x20A5C, symBinAddr: 0x100024180, symSize: 0x44 }
  - { offsetInCU: 0x34433, offset: 0x34433, size: 0x8, addend: 0x0, symName: __ZNSt3__123__dispatch_copy_or_moveB8ue170006INS_17_ClassicAlgPolicyENS_11__copy_loopIS1_EENS_14__copy_trivialEPiS5_S5_EENS_4pairIT2_T4_EES7_T3_S8_, symObjAddr: 0x20AA0, symBinAddr: 0x1000241C4, symSize: 0x44 }
  - { offsetInCU: 0x344B1, offset: 0x344B1, size: 0x8, addend: 0x0, symName: __ZNSt3__121__unwrap_and_dispatchB8ue170006INS_10__overloadINS_11__copy_loopINS_17_ClassicAlgPolicyEEENS_14__copy_trivialEEEPiS7_S7_Li0EEENS_4pairIT0_T2_EES9_T1_SA_, symObjAddr: 0x20AE4, symBinAddr: 0x100024208, symSize: 0xB4 }
  - { offsetInCU: 0x3453F, offset: 0x3453F, size: 0x8, addend: 0x0, symName: __ZNSt3__114__rewrap_rangeB8ue170006IPiS1_EET_S2_T0_, symObjAddr: 0x20BE0, symBinAddr: 0x100024304, symSize: 0x2C }
  - { offsetInCU: 0x3458B, offset: 0x3458B, size: 0x8, addend: 0x0, symName: __ZNSt3__119__copy_trivial_implB8ue170006IiiEENS_4pairIPT_PT0_EES3_S3_S5_, symObjAddr: 0x20C0C, symBinAddr: 0x100024330, symSize: 0x80 }
  - { offsetInCU: 0x345F3, offset: 0x345F3, size: 0x8, addend: 0x0, symName: __ZNSt3__119__constexpr_memmoveB8ue170006IiiLi0EEEPT_S2_PT0_NS_15__element_countE, symObjAddr: 0x20C8C, symBinAddr: 0x1000243B0, symSize: 0x64 }
  - { offsetInCU: 0x34661, offset: 0x34661, size: 0x8, addend: 0x0, symName: __ZNSt3__19make_pairB8ue170006IRPiS1_EENS_4pairINS_18__unwrap_ref_decayIT_E4typeENS4_IT0_E4typeEEEOS5_OS8_, symObjAddr: 0x20CF0, symBinAddr: 0x100024414, symSize: 0x38 }
  - { offsetInCU: 0x346B0, offset: 0x346B0, size: 0x8, addend: 0x0, symName: __ZNSt3__1eqB8ue170006IiNS_9allocatorIiEEEEbRKNS_5dequeIT_T0_EES8_, symObjAddr: 0x20EA0, symBinAddr: 0x1000245C4, symSize: 0xB4 }
  - { offsetInCU: 0x3470E, offset: 0x3470E, size: 0x8, addend: 0x0, symName: __ZNSt3__15equalB8ue170006INS_16__deque_iteratorIiPKiRS2_PKS3_lLl1024EEES7_EEbT_S8_T0_, symObjAddr: 0x20F54, symBinAddr: 0x100024678, symSize: 0x68 }
  - { offsetInCU: 0x34768, offset: 0x34768, size: 0x8, addend: 0x0, symName: __ZNSt3__15equalB8ue170006INS_16__deque_iteratorIiPKiRS2_PKS3_lLl1024EEES7_NS_10__equal_toEEEbT_S9_T0_T1_, symObjAddr: 0x20FBC, symBinAddr: 0x1000246E0, symSize: 0xA8 }
  - { offsetInCU: 0x347D9, offset: 0x347D9, size: 0x8, addend: 0x0, symName: __ZNSt3__117__equal_iter_implB8ue170006INS_16__deque_iteratorIiPKiRS2_PKS3_lLl1024EEES7_NS_10__equal_toEEEbT_S9_T0_RT1_, symObjAddr: 0x21064, symBinAddr: 0x100024788, symSize: 0xC8 }
  - { offsetInCU: 0x3484A, offset: 0x3484A, size: 0x8, addend: 0x0, symName: __ZNSt3__113__unwrap_iterB8ue170006INS_16__deque_iteratorIiPKiRS2_PKS3_lLl1024EEENS_18__unwrap_iter_implIS7_Lb0EEELi0EEEDTclsrT0_8__unwrapclsr3stdE7declvalIT_EEEESB_, symObjAddr: 0x2112C, symBinAddr: 0x100024850, symSize: 0x44 }
  - { offsetInCU: 0x34911, offset: 0x34911, size: 0x8, addend: 0x0, symName: __ZNSt3__1ltB8ue170006IiNS_5dequeIiNS_9allocatorIiEEEEEEbRKNS_5stackIT_T0_EESA_, symObjAddr: 0x211C8, symBinAddr: 0x1000248EC, symSize: 0x30 }
  - { offsetInCU: 0x34960, offset: 0x34960, size: 0x8, addend: 0x0, symName: __ZNSt3__1ltB8ue170006IiNS_9allocatorIiEEEEbRKNS_5dequeIT_T0_EES8_, symObjAddr: 0x211F8, symBinAddr: 0x10002491C, symSize: 0x88 }
  - { offsetInCU: 0x349AF, offset: 0x349AF, size: 0x8, addend: 0x0, symName: __ZNSt3__123lexicographical_compareB8ue170006INS_16__deque_iteratorIiPKiRS2_PKS3_lLl1024EEES7_EEbT_S8_T0_S9_, symObjAddr: 0x21280, symBinAddr: 0x1000249A4, symSize: 0x80 }
  - { offsetInCU: 0x34A17, offset: 0x34A17, size: 0x8, addend: 0x0, symName: __ZNSt3__123lexicographical_compareB8ue170006INS_16__deque_iteratorIiPKiRS2_PKS3_lLl1024EEES7_NS_6__lessIvvEEEEbT_SA_T0_SB_T1_, symObjAddr: 0x21300, symBinAddr: 0x100024A24, symSize: 0x8C }
  - { offsetInCU: 0x34A97, offset: 0x34A97, size: 0x8, addend: 0x0, symName: __ZNSt3__125__lexicographical_compareB8ue170006IRNS_6__lessIvvEENS_16__deque_iteratorIiPKiRS5_PKS6_lLl1024EEESA_EEbT0_SB_T1_SC_T_, symObjAddr: 0x2138C, symBinAddr: 0x100024AB0, symSize: 0x130 }
  - { offsetInCU: 0x34B16, offset: 0x34B16, size: 0x8, addend: 0x0, symName: __ZNSt3__1neB8ue170006ERKNS_16__deque_iteratorIP5PointPS2_RS2_PS3_lLl512EEES8_, symObjAddr: 0x223A0, symBinAddr: 0x100025AC4, symSize: 0x34 }
  - { offsetInCU: 0x34B54, offset: 0x34B54, size: 0x8, addend: 0x0, symName: __ZNSt3__1eqB8ue170006ERKNS_16__deque_iteratorIP5PointPS2_RS2_PS3_lLl512EEES8_, symObjAddr: 0x22558, symBinAddr: 0x100025C7C, symSize: 0x30 }
  - { offsetInCU: 0x34B92, offset: 0x34B92, size: 0x8, addend: 0x0, symName: __ZNSt3__112__to_addressB8ue170006IPP5PointEEPT_S5_, symObjAddr: 0x22934, symBinAddr: 0x100026058, symSize: 0x14 }
  - { offsetInCU: 0x34F6D, offset: 0x34F6D, size: 0x8, addend: 0x0, symName: __ZNSt3__14swapB8ue170006IPPP5PointEENS_9enable_ifIXaasr21is_move_constructibleIT_EE5valuesr18is_move_assignableIS6_EE5valueEvE4typeERS6_S9_, symObjAddr: 0x23C34, symBinAddr: 0x100027358, symSize: 0x3C }
  - { offsetInCU: 0x34FBE, offset: 0x34FBE, size: 0x8, addend: 0x0, symName: __ZNSt3__14moveB8ue170006IPPP5PointS4_EET0_T_S6_S5_, symObjAddr: 0x23D18, symBinAddr: 0x10002743C, symSize: 0x40 }
  - { offsetInCU: 0x35018, offset: 0x35018, size: 0x8, addend: 0x0, symName: __ZNSt3__16__moveB8ue170006INS_17_ClassicAlgPolicyEPPP5PointS5_S5_EENS_4pairIT0_T2_EES7_T1_S8_, symObjAddr: 0x23E20, symBinAddr: 0x100027544, symSize: 0x44 }
  - { offsetInCU: 0x35084, offset: 0x35084, size: 0x8, addend: 0x0, symName: __ZNSt3__123__dispatch_copy_or_moveB8ue170006INS_17_ClassicAlgPolicyENS_11__move_loopIS1_EENS_14__move_trivialEPPP5PointS8_S8_EENS_4pairIT2_T4_EESA_T3_SB_, symObjAddr: 0x23E64, symBinAddr: 0x100027588, symSize: 0x44 }
  - { offsetInCU: 0x35102, offset: 0x35102, size: 0x8, addend: 0x0, symName: __ZNSt3__121__unwrap_and_dispatchB8ue170006INS_10__overloadINS_11__move_loopINS_17_ClassicAlgPolicyEEENS_14__move_trivialEEEPPP5PointSA_SA_Li0EEENS_4pairIT0_T2_EESC_T1_SD_, symObjAddr: 0x23EA8, symBinAddr: 0x1000275CC, symSize: 0xB4 }
  - { offsetInCU: 0x35190, offset: 0x35190, size: 0x8, addend: 0x0, symName: __ZNSt3__114__unwrap_rangeB8ue170006IPPP5PointS4_EENS_4pairIT0_S6_EET_S8_, symObjAddr: 0x23F5C, symBinAddr: 0x100027680, symSize: 0x60 }
  - { offsetInCU: 0x3530E, offset: 0x3530E, size: 0x8, addend: 0x0, symName: __ZNSt3__113__unwrap_iterB8ue170006IPPP5PointNS_18__unwrap_iter_implIS4_Lb1EEELi0EEEDTclsrT0_8__unwrapclsr3stdE7declvalIT_EEEES8_, symObjAddr: 0x24004, symBinAddr: 0x100027728, symSize: 0x24 }
  - { offsetInCU: 0x35352, offset: 0x35352, size: 0x8, addend: 0x0, symName: __ZNSt3__19make_pairB8ue170006IPPP5PointS4_EENS_4pairINS_18__unwrap_ref_decayIT_E4typeENS6_IT0_E4typeEEEOS7_OSA_, symObjAddr: 0x24028, symBinAddr: 0x10002774C, symSize: 0x38 }
  - { offsetInCU: 0x353A1, offset: 0x353A1, size: 0x8, addend: 0x0, symName: __ZNSt3__114__rewrap_rangeB8ue170006IPPP5PointS4_EET_S5_T0_, symObjAddr: 0x24060, symBinAddr: 0x100027784, symSize: 0x2C }
  - { offsetInCU: 0x353ED, offset: 0x353ED, size: 0x8, addend: 0x0, symName: __ZNSt3__113__rewrap_iterB8ue170006IPPP5PointS4_NS_18__unwrap_iter_implIS4_Lb1EEEEET_S7_T0_, symObjAddr: 0x2408C, symBinAddr: 0x1000277B0, symSize: 0x3C }
  - { offsetInCU: 0x35442, offset: 0x35442, size: 0x8, addend: 0x0, symName: __ZNSt3__119__copy_trivial_implB8ue170006IPP5PointS3_EENS_4pairIPT_PT0_EES6_S6_S8_, symObjAddr: 0x240C8, symBinAddr: 0x1000277EC, symSize: 0x80 }
  - { offsetInCU: 0x354AA, offset: 0x354AA, size: 0x8, addend: 0x0, symName: __ZNSt3__119__constexpr_memmoveB8ue170006IPP5PointS3_Li0EEEPT_S5_PT0_NS_15__element_countE, symObjAddr: 0x24148, symBinAddr: 0x10002786C, symSize: 0x64 }
  - { offsetInCU: 0x35518, offset: 0x35518, size: 0x8, addend: 0x0, symName: __ZNSt3__19make_pairB8ue170006IRPPP5PointS4_EENS_4pairINS_18__unwrap_ref_decayIT_E4typeENS7_IT0_E4typeEEEOS8_OSB_, symObjAddr: 0x241AC, symBinAddr: 0x1000278D0, symSize: 0x38 }
  - { offsetInCU: 0x355BA, offset: 0x355BA, size: 0x8, addend: 0x0, symName: __ZNSt3__18distanceB8ue170006INS_13move_iteratorIPPP5PointEEEENS_15iterator_traitsIT_E15difference_typeES8_S8_, symObjAddr: 0x24414, symBinAddr: 0x100027B38, symSize: 0x3C }
  - { offsetInCU: 0x355FD, offset: 0x355FD, size: 0x8, addend: 0x0, symName: __ZNSt3__110__distanceB8ue170006INS_13move_iteratorIPPP5PointEEEENS_15iterator_traitsIT_E15difference_typeES8_S8_NS_26random_access_iterator_tagE, symObjAddr: 0x24618, symBinAddr: 0x100027D3C, symSize: 0x30 }
  - { offsetInCU: 0x3564B, offset: 0x3564B, size: 0x8, addend: 0x0, symName: __ZNSt3__1miB8ue170006IPPP5PointS4_EEDTmicldtfp_4baseEcldtfp0_4baseEERKNS_13move_iteratorIT_EERKNS6_IT0_EE, symObjAddr: 0x24648, symBinAddr: 0x100027D6C, symSize: 0x48 }
  - { offsetInCU: 0x3569A, offset: 0x3569A, size: 0x8, addend: 0x0, symName: __ZNSt3__113move_backwardB8ue170006IPPP5PointS4_EET0_T_S6_S5_, symObjAddr: 0x246F0, symBinAddr: 0x100027E14, symSize: 0x40 }
  - { offsetInCU: 0x356F4, offset: 0x356F4, size: 0x8, addend: 0x0, symName: __ZNSt3__115__move_backwardB8ue170006INS_17_ClassicAlgPolicyEPPP5PointS5_S5_EENS_4pairIT0_T2_EES7_T1_S8_, symObjAddr: 0x24730, symBinAddr: 0x100027E54, symSize: 0x44 }
  - { offsetInCU: 0x35760, offset: 0x35760, size: 0x8, addend: 0x0, symName: __ZNSt3__123__dispatch_copy_or_moveB8ue170006INS_17_ClassicAlgPolicyENS_20__move_backward_loopIS1_EENS_23__move_backward_trivialEPPP5PointS8_S8_EENS_4pairIT2_T4_EESA_T3_SB_, symObjAddr: 0x24774, symBinAddr: 0x100027E98, symSize: 0x44 }
  - { offsetInCU: 0x357DE, offset: 0x357DE, size: 0x8, addend: 0x0, symName: __ZNSt3__121__unwrap_and_dispatchB8ue170006INS_10__overloadINS_20__move_backward_loopINS_17_ClassicAlgPolicyEEENS_23__move_backward_trivialEEEPPP5PointSA_SA_Li0EEENS_4pairIT0_T2_EESC_T1_SD_, symObjAddr: 0x247B8, symBinAddr: 0x100027EDC, symSize: 0xB4 }
  - { offsetInCU: 0x3586C, offset: 0x3586C, size: 0x8, addend: 0x0, symName: __ZNSt3__128__copy_backward_trivial_implB8ue170006IPP5PointS3_EENS_4pairIPT_PT0_EES6_S6_S8_, symObjAddr: 0x248B4, symBinAddr: 0x100027FD8, symSize: 0x90 }
  - { offsetInCU: 0x358D4, offset: 0x358D4, size: 0x8, addend: 0x0, symName: __ZNSt3__19make_pairB8ue170006IRPPP5PointS5_EENS_4pairINS_18__unwrap_ref_decayIT_E4typeENS7_IT0_E4typeEEEOS8_OSB_, symObjAddr: 0x24944, symBinAddr: 0x100028068, symSize: 0x38 }
  - { offsetInCU: 0x35923, offset: 0x35923, size: 0x8, addend: 0x0, symName: __ZNSt3__119__allocate_at_leastB8ue170006INS_9allocatorIPP5PointEEEENS_19__allocation_resultINS_16allocator_traitsIT_E7pointerEEERS8_m, symObjAddr: 0x24AFC, symBinAddr: 0x100028220, symSize: 0x40 }
  - { offsetInCU: 0x35966, offset: 0x35966, size: 0x8, addend: 0x0, symName: __ZNSt3__18distanceB8ue170006INS_16__deque_iteratorIP5PointPKS3_RS4_PKS5_lLl512EEEEENS_15iterator_traitsIT_E15difference_typeESB_SB_, symObjAddr: 0x25944, symBinAddr: 0x100029068, symSize: 0x4C }
  - { offsetInCU: 0x359A9, offset: 0x359A9, size: 0x8, addend: 0x0, symName: __ZNSt3__1neB8ue170006ERKNS_5dequeIP5PointNS_9allocatorIS2_EEE13__deque_rangeES8_, symObjAddr: 0x260CC, symBinAddr: 0x1000297F0, symSize: 0x34 }
  - { offsetInCU: 0x359E6, offset: 0x359E6, size: 0x8, addend: 0x0, symName: __ZNSt3__1eqB8ue170006ERKNS_5dequeIP5PointNS_9allocatorIS2_EEE13__deque_rangeES8_, symObjAddr: 0x26700, symBinAddr: 0x100029E24, symSize: 0x30 }
  - { offsetInCU: 0x35A23, offset: 0x35A23, size: 0x8, addend: 0x0, symName: __ZNSt3__110__distanceB8ue170006INS_16__deque_iteratorIP5PointPKS3_RS4_PKS5_lLl512EEEEENS_15iterator_traitsIT_E15difference_typeESB_SB_NS_26random_access_iterator_tagE, symObjAddr: 0x2683C, symBinAddr: 0x100029F60, symSize: 0x38 }
  - { offsetInCU: 0x35A71, offset: 0x35A71, size: 0x8, addend: 0x0, symName: __ZNSt3__1miB8ue170006ERKNS_16__deque_iteratorIP5PointPKS2_RS3_PKS4_lLl512EEESA_, symObjAddr: 0x26874, symBinAddr: 0x100029F98, symSize: 0xA4 }
  - { offsetInCU: 0x35AAE, offset: 0x35AAE, size: 0x8, addend: 0x0, symName: __ZNSt3__1neB8ue170006ERKNS_16__deque_iteratorIP5PointPKS2_RS3_PKS4_lLl512EEESA_, symObjAddr: 0x26918, symBinAddr: 0x10002A03C, symSize: 0x34 }
  - { offsetInCU: 0x35AEC, offset: 0x35AEC, size: 0x8, addend: 0x0, symName: __ZNSt3__1eqB8ue170006ERKNS_16__deque_iteratorIP5PointPKS2_RS3_PKS4_lLl512EEESA_, symObjAddr: 0x2694C, symBinAddr: 0x10002A070, symSize: 0x30 }
  - { offsetInCU: 0x35B29, offset: 0x35B29, size: 0x8, addend: 0x0, symName: __ZNSt3__19make_heapB8ue170006INS_11__wrap_iterIPPKcEENS_4lessIS3_EEEEvT_S8_T0_, symObjAddr: 0x26E90, symBinAddr: 0x10002A5B4, symSize: 0x40 }
  - { offsetInCU: 0x35B7F, offset: 0x35B7F, size: 0x8, addend: 0x0, symName: __ZNSt3__18distanceB8ue170006IPPKcEENS_15iterator_traitsIT_E15difference_typeES5_S5_, symObjAddr: 0x26FE0, symBinAddr: 0x10002A704, symSize: 0x2C }
  - { offsetInCU: 0x35BC3, offset: 0x35BC3, size: 0x8, addend: 0x0, symName: __ZNSt3__110__distanceB8ue170006IPPKcEENS_15iterator_traitsIT_E15difference_typeES5_S5_NS_26random_access_iterator_tagE, symObjAddr: 0x2718C, symBinAddr: 0x10002A8B0, symSize: 0x28 }
  - { offsetInCU: 0x35C11, offset: 0x35C11, size: 0x8, addend: 0x0, symName: __ZNSt3__122__make_exception_guardB8ue170006INS_6vectorIPKcNS_9allocatorIS3_EEE16__destroy_vectorEEENS_28__exception_guard_exceptionsIT_EES9_, symObjAddr: 0x271B4, symBinAddr: 0x10002A8D8, symSize: 0x40 }
  - { offsetInCU: 0x35C46, offset: 0x35C46, size: 0x8, addend: 0x0, symName: __ZNSt3__119__allocate_at_leastB8ue170006INS_9allocatorIPKcEEEENS_19__allocation_resultINS_16allocator_traitsIT_E7pointerEEERS7_m, symObjAddr: 0x27448, symBinAddr: 0x10002AB6C, symSize: 0x40 }
  - { offsetInCU: 0x35C89, offset: 0x35C89, size: 0x8, addend: 0x0, symName: __ZNSt3__130__uninitialized_allocator_copyB8ue170006INS_9allocatorIPKcEEPS3_S5_S5_EET2_RT_T0_T1_S6_, symObjAddr: 0x276C0, symBinAddr: 0x10002ADE4, symSize: 0x80 }
  - { offsetInCU: 0x35D26, offset: 0x35D26, size: 0x8, addend: 0x0, symName: __ZNSt3__114__unwrap_rangeB8ue170006IPPKcS3_EENS_4pairIT0_S5_EET_S7_, symObjAddr: 0x277B0, symBinAddr: 0x10002AED4, symSize: 0x60 }
  - { offsetInCU: 0x35D72, offset: 0x35D72, size: 0x8, addend: 0x0, symName: __ZNSt3__135__uninitialized_allocator_copy_implB8ue170006INS_9allocatorIPKcEES3_S3_S3_LPv0EEEPT2_RT_PT0_SB_S7_, symObjAddr: 0x27810, symBinAddr: 0x10002AF34, symSize: 0x38 }
  - { offsetInCU: 0x35DF4, offset: 0x35DF4, size: 0x8, addend: 0x0, symName: __ZNSt3__113__unwrap_iterB8ue170006IPPKcNS_18__unwrap_iter_implIS3_Lb1EEELi0EEEDTclsrT0_8__unwrapclsr3stdE7declvalIT_EEEES7_, symObjAddr: 0x27848, symBinAddr: 0x10002AF6C, symSize: 0x24 }
  - { offsetInCU: 0x35E38, offset: 0x35E38, size: 0x8, addend: 0x0, symName: __ZNSt3__113__rewrap_iterB8ue170006IPPKcS3_NS_18__unwrap_iter_implIS3_Lb1EEEEET_S6_T0_, symObjAddr: 0x2786C, symBinAddr: 0x10002AF90, symSize: 0x3C }
  - { offsetInCU: 0x35E8D, offset: 0x35E8D, size: 0x8, addend: 0x0, symName: __ZNSt3__19make_pairB8ue170006IPPKcS3_EENS_4pairINS_18__unwrap_ref_decayIT_E4typeENS5_IT0_E4typeEEEOS6_OS9_, symObjAddr: 0x278A8, symBinAddr: 0x10002AFCC, symSize: 0x38 }
  - { offsetInCU: 0x35FDF, offset: 0x35FDF, size: 0x8, addend: 0x0, symName: __ZNSt3__14copyB8ue170006IPPKcS3_EET0_T_S5_S4_, symObjAddr: 0x27950, symBinAddr: 0x10002B074, symSize: 0x40 }
  - { offsetInCU: 0x36039, offset: 0x36039, size: 0x8, addend: 0x0, symName: __ZNSt3__16__copyB8ue170006INS_17_ClassicAlgPolicyEPPKcS4_S4_EENS_4pairIT0_T2_EES6_T1_S7_, symObjAddr: 0x27990, symBinAddr: 0x10002B0B4, symSize: 0x44 }
  - { offsetInCU: 0x360A5, offset: 0x360A5, size: 0x8, addend: 0x0, symName: __ZNSt3__123__dispatch_copy_or_moveB8ue170006INS_17_ClassicAlgPolicyENS_11__copy_loopIS1_EENS_14__copy_trivialEPPKcS7_S7_EENS_4pairIT2_T4_EES9_T3_SA_, symObjAddr: 0x279D4, symBinAddr: 0x10002B0F8, symSize: 0x44 }
  - { offsetInCU: 0x36123, offset: 0x36123, size: 0x8, addend: 0x0, symName: __ZNSt3__121__unwrap_and_dispatchB8ue170006INS_10__overloadINS_11__copy_loopINS_17_ClassicAlgPolicyEEENS_14__copy_trivialEEEPPKcS9_S9_Li0EEENS_4pairIT0_T2_EESB_T1_SC_, symObjAddr: 0x27A18, symBinAddr: 0x10002B13C, symSize: 0xB4 }
  - { offsetInCU: 0x361B1, offset: 0x361B1, size: 0x8, addend: 0x0, symName: __ZNSt3__114__rewrap_rangeB8ue170006IPPKcS3_EET_S4_T0_, symObjAddr: 0x27B14, symBinAddr: 0x10002B238, symSize: 0x2C }
  - { offsetInCU: 0x361FD, offset: 0x361FD, size: 0x8, addend: 0x0, symName: __ZNSt3__119__copy_trivial_implB8ue170006IPKcS2_EENS_4pairIPT_PT0_EES5_S5_S7_, symObjAddr: 0x27B40, symBinAddr: 0x10002B264, symSize: 0x80 }
  - { offsetInCU: 0x36265, offset: 0x36265, size: 0x8, addend: 0x0, symName: __ZNSt3__119__constexpr_memmoveB8ue170006IPKcS2_Li0EEEPT_S4_PT0_NS_15__element_countE, symObjAddr: 0x27BC0, symBinAddr: 0x10002B2E4, symSize: 0x64 }
  - { offsetInCU: 0x362D3, offset: 0x362D3, size: 0x8, addend: 0x0, symName: __ZNSt3__19make_pairB8ue170006IRPPKcS3_EENS_4pairINS_18__unwrap_ref_decayIT_E4typeENS6_IT0_E4typeEEEOS7_OSA_, symObjAddr: 0x27C24, symBinAddr: 0x10002B348, symSize: 0x38 }
  - { offsetInCU: 0x36375, offset: 0x36375, size: 0x8, addend: 0x0, symName: __ZNSt3__111__make_heapB8ue170006INS_17_ClassicAlgPolicyERNS_4lessIPKcEENS_11__wrap_iterIPS4_EEEEvT1_SA_OT0_, symObjAddr: 0x27DA8, symBinAddr: 0x10002B4CC, symSize: 0xD4 }
  - { offsetInCU: 0x36417, offset: 0x36417, size: 0x8, addend: 0x0, symName: __ZNSt3__1miB8ue170006IPPKcS3_EEDTmicldtfp_4baseEcldtfp0_4baseEERKNS_11__wrap_iterIT_EERKNS5_IT0_EE, symObjAddr: 0x27E7C, symBinAddr: 0x10002B5A0, symSize: 0x48 }
  - { offsetInCU: 0x36487, offset: 0x36487, size: 0x8, addend: 0x0, symName: __ZNSt3__1lsB8ue170006INS_11char_traitsIcEEEERNS_13basic_ostreamIcT_EES6_c, symObjAddr: 0x28384, symBinAddr: 0x10002BAA8, symSize: 0x34 }
  - { offsetInCU: 0x364CD, offset: 0x364CD, size: 0x8, addend: 0x0, symName: __ZNSt3__18pop_heapB8ue170006INS_11__wrap_iterIPPKcEENS_4lessIS3_EEEEvT_S8_T0_, symObjAddr: 0x2846C, symBinAddr: 0x10002BB90, symSize: 0x58 }
  - { offsetInCU: 0x36531, offset: 0x36531, size: 0x8, addend: 0x0, symName: __ZNSt3__110__pop_heapB8ue170006INS_17_ClassicAlgPolicyENS_4lessIPKcEENS_11__wrap_iterIPS4_EEEEvT1_S9_RT0_NS_15iterator_traitsIS9_E15difference_typeE, symObjAddr: 0x284F0, symBinAddr: 0x10002BC14, symSize: 0x144 }
  - { offsetInCU: 0x365E1, offset: 0x365E1, size: 0x8, addend: 0x0, symName: __ZNSt3__1eqB8ue170006IPPKcEEbRKNS_11__wrap_iterIT_EES8_, symObjAddr: 0x287A0, symBinAddr: 0x10002BEC4, symSize: 0x48 }
  - { offsetInCU: 0x36624, offset: 0x36624, size: 0x8, addend: 0x0, symName: __ZNSt3__19__sift_upB8ue170006INS_17_ClassicAlgPolicyERNS_4lessIPKcEENS_11__wrap_iterIPS4_EEEEvT1_SA_OT0_NS_15iterator_traitsISA_E15difference_typeE, symObjAddr: 0x287E8, symBinAddr: 0x10002BF0C, symSize: 0x168 }
  - { offsetInCU: 0x366D4, offset: 0x366D4, size: 0x8, addend: 0x0, symName: '__ZNSt3__19make_heapB8ue170006INS_11__wrap_iterIPPKcEEZ4mainE3$_1EEvT_S7_T0_', symObjAddr: 0x28C84, symBinAddr: 0x10002C3A8, symSize: 0x40 }
  - { offsetInCU: 0x3672A, offset: 0x3672A, size: 0x8, addend: 0x0, symName: '__ZNSt3__111__make_heapB8ue170006INS_17_ClassicAlgPolicyERZ4mainE3$_1NS_11__wrap_iterIPPKcEEEEvT1_S9_OT0_', symObjAddr: 0x28CC4, symBinAddr: 0x10002C3E8, symSize: 0xD4 }
  - { offsetInCU: 0x367CC, offset: 0x367CC, size: 0x8, addend: 0x0, symName: '__ZNSt3__18pop_heapB8ue170006INS_11__wrap_iterIPPKcEEZ4mainE3$_1EEvT_S7_T0_', symObjAddr: 0x2918C, symBinAddr: 0x10002C8B0, symSize: 0x58 }
  - { offsetInCU: 0x36830, offset: 0x36830, size: 0x8, addend: 0x0, symName: '__ZNSt3__110__pop_heapB8ue170006INS_17_ClassicAlgPolicyEZ4mainE3$_1NS_11__wrap_iterIPPKcEEEEvT1_S8_RT0_NS_15iterator_traitsIS8_E15difference_typeE', symObjAddr: 0x291E4, symBinAddr: 0x10002C908, symSize: 0x144 }
  - { offsetInCU: 0x368E0, offset: 0x368E0, size: 0x8, addend: 0x0, symName: '__ZNSt3__19__sift_upB8ue170006INS_17_ClassicAlgPolicyERZ4mainE3$_1NS_11__wrap_iterIPPKcEEEEvT1_S9_OT0_NS_15iterator_traitsIS9_E15difference_typeE', symObjAddr: 0x2947C, symBinAddr: 0x10002CBA0, symSize: 0x174 }
  - { offsetInCU: 0x369E1, offset: 0x369E1, size: 0x8, addend: 0x0, symName: __ZNSt3__127__tree_balance_after_insertB8ue170006IPNS_16__tree_node_baseIPvEEEEvT_S5_, symObjAddr: 0x2A70C, symBinAddr: 0x10002DE30, symSize: 0x32C }
  - { offsetInCU: 0x36A5E, offset: 0x36A5E, size: 0x8, addend: 0x0, symName: __ZNSt3__120__tree_is_left_childB8ue170006IPNS_16__tree_node_baseIPvEEEEbT_, symObjAddr: 0x2AA78, symBinAddr: 0x10002E19C, symSize: 0x2C }
  - { offsetInCU: 0x36A93, offset: 0x36A93, size: 0x8, addend: 0x0, symName: __ZNSt3__118__tree_left_rotateB8ue170006IPNS_16__tree_node_baseIPvEEEEvT_, symObjAddr: 0x2AAA4, symBinAddr: 0x10002E1C8, symSize: 0xD8 }
  - { offsetInCU: 0x36AD5, offset: 0x36AD5, size: 0x8, addend: 0x0, symName: __ZNSt3__119__tree_right_rotateB8ue170006IPNS_16__tree_node_baseIPvEEEEvT_, symObjAddr: 0x2AB7C, symBinAddr: 0x10002E2A0, symSize: 0xCC }
  - { offsetInCU: 0x36B17, offset: 0x36B17, size: 0x8, addend: 0x0, symName: __ZNSt3__1neB8ue170006ERKNS_21__tree_const_iteratorI5PointPNS_11__tree_nodeIS1_PvEElEES8_, symObjAddr: 0x2AF48, symBinAddr: 0x10002E66C, symSize: 0x34 }
  - { offsetInCU: 0x36B55, offset: 0x36B55, size: 0x8, addend: 0x0, symName: __ZNSt3__1eqB8ue170006ERKNS_21__tree_const_iteratorI5PointPNS_11__tree_nodeIS1_PvEElEES8_, symObjAddr: 0x2B0AC, symBinAddr: 0x10002E7D0, symSize: 0x30 }
  - { offsetInCU: 0x36B92, offset: 0x36B92, size: 0x8, addend: 0x0, symName: __ZNSt3__116__tree_next_iterB8ue170006IPNS_15__tree_end_nodeIPNS_16__tree_node_baseIPvEEEES5_EET_T0_, symObjAddr: 0x2B0F4, symBinAddr: 0x10002E818, symSize: 0x80 }
  - { offsetInCU: 0x36BD1, offset: 0x36BD1, size: 0x8, addend: 0x0, symName: __ZNSt3__110__tree_minB8ue170006IPNS_16__tree_node_baseIPvEEEET_S5_, symObjAddr: 0x2B174, symBinAddr: 0x10002E898, symSize: 0x40 }
  - { offsetInCU: 0x36C07, offset: 0x36C07, size: 0x8, addend: 0x0, symName: __ZNSt3__1eqB8ue170006ERKNS_21__tree_const_iteratorIiPNS_11__tree_nodeIiPvEElEES7_, symObjAddr: 0x2BE00, symBinAddr: 0x10002F524, symSize: 0x30 }
  - { offsetInCU: 0x36C44, offset: 0x36C44, size: 0x8, addend: 0x0, symName: __ZNSt3__14nextB8ue170006INS_21__tree_const_iteratorIiPNS_11__tree_nodeIiPvEElEEEENS_9enable_ifIXsr29__has_input_iterator_categoryIT_EE5valueES8_E4typeES8_NS_15iterator_traitsIS8_E15difference_typeE, symObjAddr: 0x2C0D8, symBinAddr: 0x10002F7FC, symSize: 0x3C }
  - { offsetInCU: 0x36C87, offset: 0x36C87, size: 0x8, addend: 0x0, symName: __ZNSt3__116__tree_prev_iterB8ue170006IPNS_16__tree_node_baseIPvEEPNS_15__tree_end_nodeIS4_EEEET_T0_, symObjAddr: 0x2C1D8, symBinAddr: 0x10002F8FC, symSize: 0x88 }
  - { offsetInCU: 0x36CD4, offset: 0x36CD4, size: 0x8, addend: 0x0, symName: __ZNSt3__110__tree_maxB8ue170006IPNS_16__tree_node_baseIPvEEEET_S5_, symObjAddr: 0x2C260, symBinAddr: 0x10002F984, symSize: 0x40 }
  - { offsetInCU: 0x36D09, offset: 0x36D09, size: 0x8, addend: 0x0, symName: __ZNSt3__19__advanceB8ue170006INS_21__tree_const_iteratorIiPNS_11__tree_nodeIiPvEElEEEEvRT_NS_15iterator_traitsIS7_E15difference_typeENS_26bidirectional_iterator_tagE, symObjAddr: 0x2C324, symBinAddr: 0x10002FA48, symSize: 0xA4 }
  - { offsetInCU: 0x36D71, offset: 0x36D71, size: 0x8, addend: 0x0, symName: __ZNSt3__1neB8ue170006ERKNS_21__tree_const_iteratorIiPNS_11__tree_nodeIiPvEElEES7_, symObjAddr: 0x2CC14, symBinAddr: 0x100030338, symSize: 0x34 }
  - { offsetInCU: 0x36DAE, offset: 0x36DAE, size: 0x8, addend: 0x0, symName: __ZNSt3__17launderB8ue170006INS_4pairIKPKciEEEEPT_S7_, symObjAddr: 0x2DB14, symBinAddr: 0x100031238, symSize: 0x24 }
  - { offsetInCU: 0x36DE6, offset: 0x36DE6, size: 0x8, addend: 0x0, symName: __ZNSt3__19__launderB8ue170006INS_4pairIKPKciEEEEPT_S7_, symObjAddr: 0x2DB38, symBinAddr: 0x10003125C, symSize: 0x14 }
  - { offsetInCU: 0x36E54, offset: 0x36E54, size: 0x8, addend: 0x0, symName: __ZNSt3__116forward_as_tupleB8ue170006IJPKcEEENS_5tupleIJDpOT_EEES6_, symObjAddr: 0x2DCE0, symBinAddr: 0x100031404, symSize: 0x2C }
  - { offsetInCU: 0x36E8E, offset: 0x36E8E, size: 0x8, addend: 0x0, symName: __ZNSt3__116forward_as_tupleB8ue170006IJEEENS_5tupleIJDpOT_EEES4_, symObjAddr: 0x2DD0C, symBinAddr: 0x100031430, symSize: 0x4 }
  - { offsetInCU: 0x36EB2, offset: 0x36EB2, size: 0x8, addend: 0x0, symName: __ZNSt3__17launderB8ue170006IKNS_4pairIKPKciEEEEPT_S8_, symObjAddr: 0x2E2F4, symBinAddr: 0x100031A18, symSize: 0x24 }
  - { offsetInCU: 0x36EEA, offset: 0x36EEA, size: 0x8, addend: 0x0, symName: __ZNSt3__19__launderB8ue170006IKNS_4pairIKPKciEEEEPT_S8_, symObjAddr: 0x2E318, symBinAddr: 0x100031A3C, symSize: 0x14 }
  - { offsetInCU: 0x36F4B, offset: 0x36F4B, size: 0x8, addend: 0x0, symName: __ZNSt3__13getB8ue170006ILm0EJOPKcEEERNS_13tuple_elementIXT_ENS_5tupleIJDpT0_EEEE4typeERS8_, symObjAddr: 0x2E75C, symBinAddr: 0x100031E80, symSize: 0x24 }
  - { offsetInCU: 0x37013, offset: 0x37013, size: 0x8, addend: 0x0, symName: __ZNSt3__1eqB8ue170006ERKNS_15__tree_iteratorINS_12__value_typeIPKciEEPNS_11__tree_nodeIS4_PvEElEESB_, symObjAddr: 0x2F3F0, symBinAddr: 0x100032B14, symSize: 0x30 }
  - { offsetInCU: 0x37050, offset: 0x37050, size: 0x8, addend: 0x0, symName: __ZNSt3__1neB8ue170006ERKNS_15__tree_iteratorINS_12__value_typeIPKciEEPNS_11__tree_nodeIS4_PvEElEESB_, symObjAddr: 0x2F5C4, symBinAddr: 0x100032CE8, symSize: 0x34 }
  - { offsetInCU: 0x3708D, offset: 0x3708D, size: 0x8, addend: 0x0, symName: __ZNSt3__113__tree_removeB8ue170006IPNS_16__tree_node_baseIPvEEEEvT_S5_, symObjAddr: 0x2F7A0, symBinAddr: 0x100032EC4, symSize: 0x6E0 }
  - { offsetInCU: 0x3710B, offset: 0x3710B, size: 0x8, addend: 0x0, symName: __ZNSt3__111__tree_nextB8ue170006IPNS_16__tree_node_baseIPvEEEET_S5_, symObjAddr: 0x2FE80, symBinAddr: 0x1000335A4, symSize: 0x80 }
  - { offsetInCU: 0x37140, offset: 0x37140, size: 0x8, addend: 0x0, symName: __ZNSt3__1neB8ue170006ERKNS_20__map_const_iteratorINS_21__tree_const_iteratorINS_12__value_typeIPKciEEPNS_11__tree_nodeIS5_PvEElEEEESD_, symObjAddr: 0x2FF90, symBinAddr: 0x1000336B4, symSize: 0x30 }
  - { offsetInCU: 0x3717D, offset: 0x3717D, size: 0x8, addend: 0x0, symName: __ZNSt3__1neB8ue170006ERKNS_21__tree_const_iteratorINS_12__value_typeIPKciEEPNS_11__tree_nodeIS4_PvEElEESB_, symObjAddr: 0x30138, symBinAddr: 0x10003385C, symSize: 0x34 }
  - { offsetInCU: 0x371BB, offset: 0x371BB, size: 0x8, addend: 0x0, symName: __ZNSt3__1eqB8ue170006ERKNS_21__tree_const_iteratorINS_12__value_typeIPKciEEPNS_11__tree_nodeIS4_PvEElEESB_, symObjAddr: 0x3016C, symBinAddr: 0x100033890, symSize: 0x30 }
  - { offsetInCU: 0x37249, offset: 0x37249, size: 0x8, addend: 0x0, symName: __ZNSt3__17launderB8ue170006INS_4pairIKNS_12basic_stringIcNS_11char_traitsIcEENS_9allocatorIcEEEES7_EEEEPT_SB_, symObjAddr: 0x31238, symBinAddr: 0x10003495C, symSize: 0x24 }
  - { offsetInCU: 0x37281, offset: 0x37281, size: 0x8, addend: 0x0, symName: __ZNSt3__19__launderB8ue170006INS_4pairIKNS_12basic_stringIcNS_11char_traitsIcEENS_9allocatorIcEEEES7_EEEEPT_SB_, symObjAddr: 0x3125C, symBinAddr: 0x100034980, symSize: 0x14 }
  - { offsetInCU: 0x372B9, offset: 0x372B9, size: 0x8, addend: 0x0, symName: __ZNSt3__1eqB8ue170006ERKNS_21__tree_const_iteratorINS_12__value_typeINS_12basic_stringIcNS_11char_traitsIcEENS_9allocatorIcEEEES7_EEPNS_11__tree_nodeIS8_PvEElEESF_, symObjAddr: 0x312AC, symBinAddr: 0x1000349D0, symSize: 0x30 }
  - { offsetInCU: 0x372F6, offset: 0x372F6, size: 0x8, addend: 0x0, symName: __ZNSt3__1ltB8ue170006IcNS_11char_traitsIcEENS_9allocatorIcEEEEbRKNS_12basic_stringIT_T0_T1_EESB_, symObjAddr: 0x317E4, symBinAddr: 0x100034F08, symSize: 0x38 }
  - { offsetInCU: 0x3734F, offset: 0x3734F, size: 0x8, addend: 0x0, symName: __ZNSt3__112__to_addressB8ue170006IKcEEPT_S3_, symObjAddr: 0x31A70, symBinAddr: 0x100035194, symSize: 0x14 }
  - { offsetInCU: 0x373B7, offset: 0x373B7, size: 0x8, addend: 0x0, symName: __ZNSt3__17launderB8ue170006IKNS_4pairIKNS_12basic_stringIcNS_11char_traitsIcEENS_9allocatorIcEEEES7_EEEEPT_SC_, symObjAddr: 0x31BA4, symBinAddr: 0x1000352C8, symSize: 0x24 }
  - { offsetInCU: 0x373EF, offset: 0x373EF, size: 0x8, addend: 0x0, symName: __ZNSt3__19__launderB8ue170006IKNS_4pairIKNS_12basic_stringIcNS_11char_traitsIcEENS_9allocatorIcEEEES7_EEEEPT_SC_, symObjAddr: 0x31BC8, symBinAddr: 0x1000352EC, symSize: 0x14 }
  - { offsetInCU: 0x37426, offset: 0x37426, size: 0x8, addend: 0x0, symName: __ZNSt3__1neB8ue170006ERKNS_15__tree_iteratorINS_12__value_typeINS_12basic_stringIcNS_11char_traitsIcEENS_9allocatorIcEEEES7_EEPNS_11__tree_nodeIS8_PvEElEESF_, symObjAddr: 0x326C8, symBinAddr: 0x100035DEC, symSize: 0x34 }
  - { offsetInCU: 0x37464, offset: 0x37464, size: 0x8, addend: 0x0, symName: __ZNSt3__1eqB8ue170006ERKNS_15__tree_iteratorINS_12__value_typeINS_12basic_stringIcNS_11char_traitsIcEENS_9allocatorIcEEEES7_EEPNS_11__tree_nodeIS8_PvEElEESF_, symObjAddr: 0x326FC, symBinAddr: 0x100035E20, symSize: 0x30 }
  - { offsetInCU: 0x375DB, offset: 0x375DB, size: 0x8, addend: 0x0, symName: __ZNSt3__14nextB8ue170006INS_21__tree_const_iteratorI5PointPNS_11__tree_nodeIS2_PvEElEEEENS_9enable_ifIXsr29__has_input_iterator_categoryIT_EE5valueES9_E4typeES9_NS_15iterator_traitsIS9_E15difference_typeE, symObjAddr: 0x332C8, symBinAddr: 0x1000369EC, symSize: 0x3C }
  - { offsetInCU: 0x3761E, offset: 0x3761E, size: 0x8, addend: 0x0, symName: __ZNSt3__19__advanceB8ue170006INS_21__tree_const_iteratorI5PointPNS_11__tree_nodeIS2_PvEElEEEEvRT_NS_15iterator_traitsIS8_E15difference_typeENS_26bidirectional_iterator_tagE, symObjAddr: 0x33390, symBinAddr: 0x100036AB4, symSize: 0xA4 }
  - { offsetInCU: 0x37668, offset: 0x37668, size: 0x8, addend: 0x0, symName: __ZNSt3__18distanceB8ue170006INS_16reverse_iteratorINS_21__tree_const_iteratorI5PointPNS_11__tree_nodeIS3_PvEElEEEEEENS_15iterator_traitsIT_E15difference_typeESB_SB_, symObjAddr: 0x33598, symBinAddr: 0x100036CBC, symSize: 0x4C }
  - { offsetInCU: 0x376AB, offset: 0x376AB, size: 0x8, addend: 0x0, symName: __ZNSt3__110__distanceB8ue170006INS_16reverse_iteratorINS_21__tree_const_iteratorI5PointPNS_11__tree_nodeIS3_PvEElEEEEEENS_15iterator_traitsIT_E15difference_typeESB_SB_NS_18input_iterator_tagE, symObjAddr: 0x336BC, symBinAddr: 0x100036DE0, symSize: 0x64 }
  - { offsetInCU: 0x37707, offset: 0x37707, size: 0x8, addend: 0x0, symName: __ZNSt3__1neB8ue170006INS_21__tree_const_iteratorI5PointPNS_11__tree_nodeIS2_PvEElEES7_EEbRKNS_16reverse_iteratorIT_EERKNS8_IT0_EE, symObjAddr: 0x33720, symBinAddr: 0x100036E44, symSize: 0x54 }
  - { offsetInCU: 0x37753, offset: 0x37753, size: 0x8, addend: 0x0, symName: __ZNSt3__130__uninitialized_allocator_copyB8ue170006INS_9allocatorI5PointEENS_16reverse_iteratorINS_21__tree_const_iteratorIS2_PNS_11__tree_nodeIS2_PvEElEEEESB_PS2_EET2_RT_T0_T1_SD_, symObjAddr: 0x33870, symBinAddr: 0x100036F94, symSize: 0xA4 }
  - { offsetInCU: 0x377F1, offset: 0x377F1, size: 0x8, addend: 0x0, symName: __ZNSt3__114__unwrap_rangeB8ue170006INS_16reverse_iteratorINS_21__tree_const_iteratorI5PointPNS_11__tree_nodeIS3_PvEElEEEES9_EENS_4pairIT0_SB_EET_SD_, symObjAddr: 0x33914, symBinAddr: 0x100037038, symSize: 0x84 }
  - { offsetInCU: 0x3783D, offset: 0x3783D, size: 0x8, addend: 0x0, symName: __ZNSt3__135__uninitialized_allocator_copy_implB8ue170006INS_9allocatorI5PointEENS_16reverse_iteratorINS_21__tree_const_iteratorIS2_PNS_11__tree_nodeIS2_PvEElEEEESB_PS2_EET2_RT_T0_T1_SD_, symObjAddr: 0x33998, symBinAddr: 0x1000370BC, symSize: 0x110 }
  - { offsetInCU: 0x378DB, offset: 0x378DB, size: 0x8, addend: 0x0, symName: __ZNSt3__19make_pairB8ue170006INS_16reverse_iteratorINS_21__tree_const_iteratorI5PointPNS_11__tree_nodeIS3_PvEElEEEES9_EENS_4pairINS_18__unwrap_ref_decayIT_E4typeENSB_IT0_E4typeEEEOSC_OSF_, symObjAddr: 0x33AA8, symBinAddr: 0x1000371CC, symSize: 0x38 }
  - { offsetInCU: 0x3792A, offset: 0x3792A, size: 0x8, addend: 0x0, symName: __ZNSt3__113__unwrap_iterB8ue170006INS_16reverse_iteratorINS_21__tree_const_iteratorI5PointPNS_11__tree_nodeIS3_PvEElEEEENS_18__unwrap_iter_implIS9_Lb0EEELi0EEEDTclsrT0_8__unwrapclsr3stdE7declvalIT_EEEESD_, symObjAddr: 0x33AE0, symBinAddr: 0x100037204, symSize: 0x44 }
  - { offsetInCU: 0x37A8A, offset: 0x37A8A, size: 0x8, addend: 0x0, symName: __ZNSt3__122__make_exception_guardB8ue170006INS_29_AllocatorDestroyRangeReverseINS_9allocatorI5PointEEPS3_EEEENS_28__exception_guard_exceptionsIT_EES8_, symObjAddr: 0x33BB8, symBinAddr: 0x1000372DC, symSize: 0x4C }
  - { offsetInCU: 0x37AC0, offset: 0x37AC0, size: 0x8, addend: 0x0, symName: __ZNSt3__119__allocator_destroyB8ue170006INS_9allocatorI5PointEENS_16reverse_iteratorIPS2_EES6_EEvRT_T0_T1_, symObjAddr: 0x33E74, symBinAddr: 0x100037598, symSize: 0x70 }
  - { offsetInCU: 0x37B23, offset: 0x37B23, size: 0x8, addend: 0x0, symName: __ZNSt3__1neB8ue170006IP5PointS2_EEbRKNS_16reverse_iteratorIT_EERKNS3_IT0_EE, symObjAddr: 0x33F18, symBinAddr: 0x10003763C, symSize: 0x48 }
  - { offsetInCU: 0x37B6F, offset: 0x37B6F, size: 0x8, addend: 0x0, symName: __ZNSt3__112__to_addressB8ue170006INS_16reverse_iteratorIP5PointEEvEEu7__decayIDTclsr19__to_address_helperIT_EE6__callclsr3stdE7declvalIRKS5_EEEEES7_, symObjAddr: 0x33F60, symBinAddr: 0x100037684, symSize: 0x24 }
  - { offsetInCU: 0x37BCF, offset: 0x37BCF, size: 0x8, addend: 0x0, symName: __ZNSt3__1neB8ue170006IPK5PointEEbRKNS_11__wrap_iterIT_EES8_, symObjAddr: 0x340C8, symBinAddr: 0x1000377EC, symSize: 0x34 }
  - { offsetInCU: 0x37C12, offset: 0x37C12, size: 0x8, addend: 0x0, symName: __ZNSt3__1eqB8ue170006IPK5PointEEbRKNS_11__wrap_iterIT_EES8_, symObjAddr: 0x341B8, symBinAddr: 0x1000378DC, symSize: 0x48 }
  - { offsetInCU: 0x37C55, offset: 0x37C55, size: 0x8, addend: 0x0, symName: __ZNSt3__16__copyB8ue170006INS_17_ClassicAlgPolicyENS_11__wrap_iterIP5PointEES5_NS_16ostream_iteratorIS3_cNS_11char_traitsIcEEEEEENS_4pairIT0_T2_EESB_T1_SC_, symObjAddr: 0x34244, symBinAddr: 0x100037968, symSize: 0x54 }
  - { offsetInCU: 0x37CC1, offset: 0x37CC1, size: 0x8, addend: 0x0, symName: __ZNSt3__123__dispatch_copy_or_moveB8ue170006INS_17_ClassicAlgPolicyENS_11__copy_loopIS1_EENS_14__copy_trivialENS_11__wrap_iterIP5PointEES8_NS_16ostream_iteratorIS6_cNS_11char_traitsIcEEEEEENS_4pairIT2_T4_EESE_T3_SF_, symObjAddr: 0x34298, symBinAddr: 0x1000379BC, symSize: 0x54 }
  - { offsetInCU: 0x37D3F, offset: 0x37D3F, size: 0x8, addend: 0x0, symName: __ZNSt3__121__unwrap_and_dispatchB8ue170006INS_10__overloadINS_11__copy_loopINS_17_ClassicAlgPolicyEEENS_14__copy_trivialEEENS_11__wrap_iterIP5PointEESA_NS_16ostream_iteratorIS8_cNS_11char_traitsIcEEEELi0EEENS_4pairIT0_T2_EESG_T1_SH_, symObjAddr: 0x342EC, symBinAddr: 0x100037A10, symSize: 0x110 }
  - { offsetInCU: 0x37EA2, offset: 0x37EA2, size: 0x8, addend: 0x0, symName: __ZNSt3__113__unwrap_iterB8ue170006INS_16ostream_iteratorI5PointcNS_11char_traitsIcEEEENS_18__unwrap_iter_implIS5_Lb0EEELi0EEEDTclsrT0_8__unwrapclsr3stdE7declvalIT_EEEES9_, symObjAddr: 0x3448C, symBinAddr: 0x100037BB0, symSize: 0x44 }
  - { offsetInCU: 0x37EE6, offset: 0x37EE6, size: 0x8, addend: 0x0, symName: __ZNSt3__19make_pairB8ue170006INS_11__wrap_iterIP5PointEENS_16ostream_iteratorIS2_cNS_11char_traitsIcEEEEEENS_4pairINS_18__unwrap_ref_decayIT_E4typeENSA_IT0_E4typeEEEOSB_OSE_, symObjAddr: 0x344D0, symBinAddr: 0x100037BF4, symSize: 0x38 }
  - { offsetInCU: 0x37F35, offset: 0x37F35, size: 0x8, addend: 0x0, symName: __ZNSt3__113__rewrap_iterB8ue170006INS_16ostream_iteratorI5PointcNS_11char_traitsIcEEEES5_NS_18__unwrap_iter_implIS5_Lb0EEEEET_S8_T0_, symObjAddr: 0x34508, symBinAddr: 0x100037C2C, symSize: 0x74 }
  - { offsetInCU: 0x37F8A, offset: 0x37F8A, size: 0x8, addend: 0x0, symName: __ZNSt3__19make_pairB8ue170006IP5PointNS_16ostream_iteratorIS1_cNS_11char_traitsIcEEEEEENS_4pairINS_18__unwrap_ref_decayIT_E4typeENS8_IT0_E4typeEEEOS9_OSC_, symObjAddr: 0x34608, symBinAddr: 0x100037D2C, symSize: 0x38 }
  - { offsetInCU: 0x380F5, offset: 0x380F5, size: 0x8, addend: 0x0, symName: __ZNSt3__16__copyB8ue170006INS_17_ClassicAlgPolicyENS_21__tree_const_iteratorI5PointPNS_11__tree_nodeIS3_PvEElEES8_NS_16ostream_iteratorIS3_cNS_11char_traitsIcEEEEEENS_4pairIT0_T2_EESE_T1_SF_, symObjAddr: 0x34770, symBinAddr: 0x100037E94, symSize: 0x54 }
  - { offsetInCU: 0x38161, offset: 0x38161, size: 0x8, addend: 0x0, symName: __ZNSt3__123__dispatch_copy_or_moveB8ue170006INS_17_ClassicAlgPolicyENS_11__copy_loopIS1_EENS_14__copy_trivialENS_21__tree_const_iteratorI5PointPNS_11__tree_nodeIS6_PvEElEESB_NS_16ostream_iteratorIS6_cNS_11char_traitsIcEEEEEENS_4pairIT2_T4_EESH_T3_SI_, symObjAddr: 0x347C4, symBinAddr: 0x100037EE8, symSize: 0x54 }
  - { offsetInCU: 0x381DF, offset: 0x381DF, size: 0x8, addend: 0x0, symName: __ZNSt3__121__unwrap_and_dispatchB8ue170006INS_10__overloadINS_11__copy_loopINS_17_ClassicAlgPolicyEEENS_14__copy_trivialEEENS_21__tree_const_iteratorI5PointPNS_11__tree_nodeIS8_PvEElEESD_NS_16ostream_iteratorIS8_cNS_11char_traitsIcEEEELi0EEENS_4pairIT0_T2_EESJ_T1_SK_, symObjAddr: 0x34818, symBinAddr: 0x100037F3C, symSize: 0x114 }
  - { offsetInCU: 0x3826E, offset: 0x3826E, size: 0x8, addend: 0x0, symName: __ZNSt3__114__unwrap_rangeB8ue170006INS_21__tree_const_iteratorI5PointPNS_11__tree_nodeIS2_PvEElEES7_EENS_4pairIT0_S9_EET_SB_, symObjAddr: 0x3492C, symBinAddr: 0x100038050, symSize: 0x70 }
  - { offsetInCU: 0x3838E, offset: 0x3838E, size: 0x8, addend: 0x0, symName: __ZNSt3__19make_pairB8ue170006INS_21__tree_const_iteratorI5PointPNS_11__tree_nodeIS2_PvEElEENS_16ostream_iteratorIS2_cNS_11char_traitsIcEEEEEENS_4pairINS_18__unwrap_ref_decayIT_E4typeENSD_IT0_E4typeEEEOSE_OSH_, symObjAddr: 0x34A2C, symBinAddr: 0x100038150, symSize: 0x38 }
  - { offsetInCU: 0x383DD, offset: 0x383DD, size: 0x8, addend: 0x0, symName: __ZNSt3__114__rewrap_rangeB8ue170006INS_21__tree_const_iteratorI5PointPNS_11__tree_nodeIS2_PvEElEES7_EET_S8_T0_, symObjAddr: 0x34A64, symBinAddr: 0x100038188, symSize: 0x44 }
  - { offsetInCU: 0x38429, offset: 0x38429, size: 0x8, addend: 0x0, symName: __ZNSt3__19make_pairB8ue170006INS_21__tree_const_iteratorI5PointPNS_11__tree_nodeIS2_PvEElEES7_EENS_4pairINS_18__unwrap_ref_decayIT_E4typeENS9_IT0_E4typeEEEOSA_OSD_, symObjAddr: 0x34AA8, symBinAddr: 0x1000381CC, symSize: 0x38 }
  - { offsetInCU: 0x38478, offset: 0x38478, size: 0x8, addend: 0x0, symName: __ZNSt3__113__unwrap_iterB8ue170006INS_21__tree_const_iteratorI5PointPNS_11__tree_nodeIS2_PvEElEENS_18__unwrap_iter_implIS7_Lb0EEELi0EEEDTclsrT0_8__unwrapclsr3stdE7declvalIT_EEEESB_, symObjAddr: 0x34AE0, symBinAddr: 0x100038204, symSize: 0x34 }
  - { offsetInCU: 0x38504, offset: 0x38504, size: 0x8, addend: 0x0, symName: __ZNSt3__113__rewrap_iterB8ue170006INS_21__tree_const_iteratorI5PointPNS_11__tree_nodeIS2_PvEElEES7_NS_18__unwrap_iter_implIS7_Lb0EEEEET_SA_T0_, symObjAddr: 0x34C10, symBinAddr: 0x100038334, symSize: 0x54 }
  - { offsetInCU: 0x38559, offset: 0x38559, size: 0x8, addend: 0x0, symName: __ZNSt3__16__copyB8ue170006INS_17_ClassicAlgPolicyENS_11__wrap_iterIPiEES4_NS_20back_insert_iteratorINS_5dequeIiNS_9allocatorIiEEEEEEEENS_4pairIT0_T2_EESC_T1_SD_, symObjAddr: 0x35128, symBinAddr: 0x10003884C, symSize: 0x5C }
  - { offsetInCU: 0x385C5, offset: 0x385C5, size: 0x8, addend: 0x0, symName: __ZNSt3__123__dispatch_copy_or_moveB8ue170006INS_17_ClassicAlgPolicyENS_11__copy_loopIS1_EENS_14__copy_trivialENS_11__wrap_iterIPiEES7_NS_20back_insert_iteratorINS_5dequeIiNS_9allocatorIiEEEEEEEENS_4pairIT2_T4_EESF_T3_SG_, symObjAddr: 0x35184, symBinAddr: 0x1000388A8, symSize: 0x5C }
  - { offsetInCU: 0x38643, offset: 0x38643, size: 0x8, addend: 0x0, symName: __ZNSt3__121__unwrap_and_dispatchB8ue170006INS_10__overloadINS_11__copy_loopINS_17_ClassicAlgPolicyEEENS_14__copy_trivialEEENS_11__wrap_iterIPiEES9_NS_20back_insert_iteratorINS_5dequeIiNS_9allocatorIiEEEEEELi0EEENS_4pairIT0_T2_EESH_T1_SI_, symObjAddr: 0x351E0, symBinAddr: 0x100038904, symSize: 0xE8 }
  - { offsetInCU: 0x386D2, offset: 0x386D2, size: 0x8, addend: 0x0, symName: __ZNSt3__114__unwrap_rangeB8ue170006INS_11__wrap_iterIPiEES2_EENS_4pairIT0_S5_EET_S7_, symObjAddr: 0x352C8, symBinAddr: 0x1000389EC, symSize: 0x70 }
  - { offsetInCU: 0x387F2, offset: 0x387F2, size: 0x8, addend: 0x0, symName: __ZNSt3__113__unwrap_iterB8ue170006INS_20back_insert_iteratorINS_5dequeIiNS_9allocatorIiEEEEEENS_18__unwrap_iter_implIS6_Lb0EEELi0EEEDTclsrT0_8__unwrapclsr3stdE7declvalIT_EEEESA_, symObjAddr: 0x353CC, symBinAddr: 0x100038AF0, symSize: 0x34 }
  - { offsetInCU: 0x38836, offset: 0x38836, size: 0x8, addend: 0x0, symName: __ZNSt3__19make_pairB8ue170006INS_11__wrap_iterIPiEENS_20back_insert_iteratorINS_5dequeIiNS_9allocatorIiEEEEEEEENS_4pairINS_18__unwrap_ref_decayIT_E4typeENSB_IT0_E4typeEEEOSC_OSF_, symObjAddr: 0x35400, symBinAddr: 0x100038B24, symSize: 0x38 }
  - { offsetInCU: 0x38885, offset: 0x38885, size: 0x8, addend: 0x0, symName: __ZNSt3__114__rewrap_rangeB8ue170006INS_11__wrap_iterIPiEES2_EET_S4_T0_, symObjAddr: 0x35438, symBinAddr: 0x100038B5C, symSize: 0x3C }
  - { offsetInCU: 0x388D1, offset: 0x388D1, size: 0x8, addend: 0x0, symName: __ZNSt3__113__rewrap_iterB8ue170006INS_20back_insert_iteratorINS_5dequeIiNS_9allocatorIiEEEEEES6_NS_18__unwrap_iter_implIS6_Lb0EEEEET_S9_T0_, symObjAddr: 0x35474, symBinAddr: 0x100038B98, symSize: 0x54 }
  - { offsetInCU: 0x38926, offset: 0x38926, size: 0x8, addend: 0x0, symName: __ZNSt3__113__unwrap_iterB8ue170006INS_11__wrap_iterIPiEENS_18__unwrap_iter_implIS3_Lb1EEELi0EEEDTclsrT0_8__unwrapclsr3stdE7declvalIT_EEEES7_, symObjAddr: 0x354C8, symBinAddr: 0x100038BEC, symSize: 0x2C }
  - { offsetInCU: 0x389BD, offset: 0x389BD, size: 0x8, addend: 0x0, symName: __ZNSt3__112__to_addressB8ue170006INS_11__wrap_iterIPiEEvEEu7__decayIDTclsr19__to_address_helperIT_EE6__callclsr3stdE7declvalIRKS4_EEEEES6_, symObjAddr: 0x3551C, symBinAddr: 0x100038C40, symSize: 0x24 }
  - { offsetInCU: 0x38A99, offset: 0x38A99, size: 0x8, addend: 0x0, symName: __ZNSt3__19make_pairB8ue170006IPiNS_20back_insert_iteratorINS_5dequeIiNS_9allocatorIiEEEEEEEENS_4pairINS_18__unwrap_ref_decayIT_E4typeENS9_IT0_E4typeEEEOSA_OSD_, symObjAddr: 0x355FC, symBinAddr: 0x100038D20, symSize: 0x38 }
  - { offsetInCU: 0x38C04, offset: 0x38C04, size: 0x8, addend: 0x0, symName: __ZNSt3__113__rewrap_iterB8ue170006INS_11__wrap_iterIPiEES2_NS_18__unwrap_iter_implIS3_Lb1EEEEET_S6_T0_, symObjAddr: 0x35730, symBinAddr: 0x100038E54, symSize: 0x4C }
  - { offsetInCU: 0x38C59, offset: 0x38C59, size: 0x8, addend: 0x0, symName: __ZNSt3__16__copyB8ue170006INS_17_ClassicAlgPolicyENS_11__wrap_iterIPiEES4_NS_21front_insert_iteratorINS_4listIiNS_9allocatorIiEEEEEEEENS_4pairIT0_T2_EESC_T1_SD_, symObjAddr: 0x3584C, symBinAddr: 0x100038F70, symSize: 0x5C }
  - { offsetInCU: 0x38CC5, offset: 0x38CC5, size: 0x8, addend: 0x0, symName: __ZNSt3__123__dispatch_copy_or_moveB8ue170006INS_17_ClassicAlgPolicyENS_11__copy_loopIS1_EENS_14__copy_trivialENS_11__wrap_iterIPiEES7_NS_21front_insert_iteratorINS_4listIiNS_9allocatorIiEEEEEEEENS_4pairIT2_T4_EESF_T3_SG_, symObjAddr: 0x358A8, symBinAddr: 0x100038FCC, symSize: 0x5C }
  - { offsetInCU: 0x38D43, offset: 0x38D43, size: 0x8, addend: 0x0, symName: __ZNSt3__121__unwrap_and_dispatchB8ue170006INS_10__overloadINS_11__copy_loopINS_17_ClassicAlgPolicyEEENS_14__copy_trivialEEENS_11__wrap_iterIPiEES9_NS_21front_insert_iteratorINS_4listIiNS_9allocatorIiEEEEEELi0EEENS_4pairIT0_T2_EESH_T1_SI_, symObjAddr: 0x35904, symBinAddr: 0x100039028, symSize: 0xE8 }
  - { offsetInCU: 0x38EA6, offset: 0x38EA6, size: 0x8, addend: 0x0, symName: __ZNSt3__113__unwrap_iterB8ue170006INS_21front_insert_iteratorINS_4listIiNS_9allocatorIiEEEEEENS_18__unwrap_iter_implIS6_Lb0EEELi0EEEDTclsrT0_8__unwrapclsr3stdE7declvalIT_EEEESA_, symObjAddr: 0x35A80, symBinAddr: 0x1000391A4, symSize: 0x34 }
  - { offsetInCU: 0x38EEA, offset: 0x38EEA, size: 0x8, addend: 0x0, symName: __ZNSt3__19make_pairB8ue170006INS_11__wrap_iterIPiEENS_21front_insert_iteratorINS_4listIiNS_9allocatorIiEEEEEEEENS_4pairINS_18__unwrap_ref_decayIT_E4typeENSB_IT0_E4typeEEEOSC_OSF_, symObjAddr: 0x35AB4, symBinAddr: 0x1000391D8, symSize: 0x38 }
  - { offsetInCU: 0x38F39, offset: 0x38F39, size: 0x8, addend: 0x0, symName: __ZNSt3__113__rewrap_iterB8ue170006INS_21front_insert_iteratorINS_4listIiNS_9allocatorIiEEEEEES6_NS_18__unwrap_iter_implIS6_Lb0EEEEET_S9_T0_, symObjAddr: 0x35AEC, symBinAddr: 0x100039210, symSize: 0x54 }
  - { offsetInCU: 0x38F8E, offset: 0x38F8E, size: 0x8, addend: 0x0, symName: __ZNSt3__19make_pairB8ue170006IPiNS_21front_insert_iteratorINS_4listIiNS_9allocatorIiEEEEEEEENS_4pairINS_18__unwrap_ref_decayIT_E4typeENS9_IT0_E4typeEEEOSA_OSD_, symObjAddr: 0x35BA0, symBinAddr: 0x1000392C4, symSize: 0x38 }
  - { offsetInCU: 0x391EB, offset: 0x391EB, size: 0x8, addend: 0x0, symName: __ZNSt3__16__copyB8ue170006INS_17_ClassicAlgPolicyENS_11__wrap_iterIPiEES4_NS_15insert_iteratorINS_6vectorIiNS_9allocatorIiEEEEEEEENS_4pairIT0_T2_EESC_T1_SD_, symObjAddr: 0x36430, symBinAddr: 0x100039B54, symSize: 0x54 }
  - { offsetInCU: 0x39257, offset: 0x39257, size: 0x8, addend: 0x0, symName: __ZNSt3__123__dispatch_copy_or_moveB8ue170006INS_17_ClassicAlgPolicyENS_11__copy_loopIS1_EENS_14__copy_trivialENS_11__wrap_iterIPiEES7_NS_15insert_iteratorINS_6vectorIiNS_9allocatorIiEEEEEEEENS_4pairIT2_T4_EESF_T3_SG_, symObjAddr: 0x36484, symBinAddr: 0x100039BA8, symSize: 0x54 }
  - { offsetInCU: 0x392D5, offset: 0x392D5, size: 0x8, addend: 0x0, symName: __ZNSt3__121__unwrap_and_dispatchB8ue170006INS_10__overloadINS_11__copy_loopINS_17_ClassicAlgPolicyEEENS_14__copy_trivialEEENS_11__wrap_iterIPiEES9_NS_15insert_iteratorINS_6vectorIiNS_9allocatorIiEEEEEELi0EEENS_4pairIT0_T2_EESH_T1_SI_, symObjAddr: 0x364D8, symBinAddr: 0x100039BFC, symSize: 0x110 }
  - { offsetInCU: 0x39438, offset: 0x39438, size: 0x8, addend: 0x0, symName: __ZNSt3__113__unwrap_iterB8ue170006INS_15insert_iteratorINS_6vectorIiNS_9allocatorIiEEEEEENS_18__unwrap_iter_implIS6_Lb0EEELi0EEEDTclsrT0_8__unwrapclsr3stdE7declvalIT_EEEESA_, symObjAddr: 0x36678, symBinAddr: 0x100039D9C, symSize: 0x44 }
  - { offsetInCU: 0x3947C, offset: 0x3947C, size: 0x8, addend: 0x0, symName: __ZNSt3__19make_pairB8ue170006INS_11__wrap_iterIPiEENS_15insert_iteratorINS_6vectorIiNS_9allocatorIiEEEEEEEENS_4pairINS_18__unwrap_ref_decayIT_E4typeENSB_IT0_E4typeEEEOSC_OSF_, symObjAddr: 0x366BC, symBinAddr: 0x100039DE0, symSize: 0x38 }
  - { offsetInCU: 0x394CB, offset: 0x394CB, size: 0x8, addend: 0x0, symName: __ZNSt3__113__rewrap_iterB8ue170006INS_15insert_iteratorINS_6vectorIiNS_9allocatorIiEEEEEES6_NS_18__unwrap_iter_implIS6_Lb0EEEEET_S9_T0_, symObjAddr: 0x366F4, symBinAddr: 0x100039E18, symSize: 0x74 }
  - { offsetInCU: 0x39520, offset: 0x39520, size: 0x8, addend: 0x0, symName: __ZNSt3__19make_pairB8ue170006IPiNS_15insert_iteratorINS_6vectorIiNS_9allocatorIiEEEEEEEENS_4pairINS_18__unwrap_ref_decayIT_E4typeENS9_IT0_E4typeEEEOSA_OSD_, symObjAddr: 0x367FC, symBinAddr: 0x100039F20, symSize: 0x38 }
  - { offsetInCU: 0x3956F, offset: 0x3956F, size: 0x8, addend: 0x0, symName: __ZNSt3__1miB8ue170006IPKiPiEEDTmicldtfp_4baseEcldtfp0_4baseEERKNS_11__wrap_iterIT_EERKNS5_IT0_EE, symObjAddr: 0x36A6C, symBinAddr: 0x10003A190, symSize: 0x48 }
  - { offsetInCU: 0x395EE, offset: 0x395EE, size: 0x8, addend: 0x0, symName: __ZNSt3__113move_backwardB8ue170006IPiS1_EET0_T_S3_S2_, symObjAddr: 0x36FA4, symBinAddr: 0x10003A6C8, symSize: 0x40 }
  - { offsetInCU: 0x39648, offset: 0x39648, size: 0x8, addend: 0x0, symName: __ZNSt3__115__move_backwardB8ue170006INS_17_ClassicAlgPolicyEPiS2_S2_EENS_4pairIT0_T2_EES4_T1_S5_, symObjAddr: 0x36FE4, symBinAddr: 0x10003A708, symSize: 0x44 }
  - { offsetInCU: 0x396B4, offset: 0x396B4, size: 0x8, addend: 0x0, symName: __ZNSt3__123__dispatch_copy_or_moveB8ue170006INS_17_ClassicAlgPolicyENS_20__move_backward_loopIS1_EENS_23__move_backward_trivialEPiS5_S5_EENS_4pairIT2_T4_EES7_T3_S8_, symObjAddr: 0x37028, symBinAddr: 0x10003A74C, symSize: 0x44 }
  - { offsetInCU: 0x39732, offset: 0x39732, size: 0x8, addend: 0x0, symName: __ZNSt3__121__unwrap_and_dispatchB8ue170006INS_10__overloadINS_20__move_backward_loopINS_17_ClassicAlgPolicyEEENS_23__move_backward_trivialEEEPiS7_S7_Li0EEENS_4pairIT0_T2_EES9_T1_SA_, symObjAddr: 0x3706C, symBinAddr: 0x10003A790, symSize: 0xB4 }
  - { offsetInCU: 0x397C0, offset: 0x397C0, size: 0x8, addend: 0x0, symName: __ZNSt3__128__copy_backward_trivial_implB8ue170006IiiEENS_4pairIPT_PT0_EES3_S3_S5_, symObjAddr: 0x37168, symBinAddr: 0x10003A88C, symSize: 0x90 }
  - { offsetInCU: 0x39828, offset: 0x39828, size: 0x8, addend: 0x0, symName: __ZNSt3__19make_pairB8ue170006IRPiS2_EENS_4pairINS_18__unwrap_ref_decayIT_E4typeENS4_IT0_E4typeEEEOS5_OS8_, symObjAddr: 0x371F8, symBinAddr: 0x10003A91C, symSize: 0x38 }
  - { offsetInCU: 0x39877, offset: 0x39877, size: 0x8, addend: 0x0, symName: __ZNSt3__14moveB8ue170006IPiS1_EET0_T_S3_S2_, symObjAddr: 0x372A0, symBinAddr: 0x10003A9C4, symSize: 0x40 }
  - { offsetInCU: 0x398D1, offset: 0x398D1, size: 0x8, addend: 0x0, symName: __ZNSt3__16__moveB8ue170006INS_17_ClassicAlgPolicyEPiS2_S2_EENS_4pairIT0_T2_EES4_T1_S5_, symObjAddr: 0x37374, symBinAddr: 0x10003AA98, symSize: 0x44 }
  - { offsetInCU: 0x3993D, offset: 0x3993D, size: 0x8, addend: 0x0, symName: __ZNSt3__123__dispatch_copy_or_moveB8ue170006INS_17_ClassicAlgPolicyENS_11__move_loopIS1_EENS_14__move_trivialEPiS5_S5_EENS_4pairIT2_T4_EES7_T3_S8_, symObjAddr: 0x373B8, symBinAddr: 0x10003AADC, symSize: 0x44 }
  - { offsetInCU: 0x399BB, offset: 0x399BB, size: 0x8, addend: 0x0, symName: __ZNSt3__121__unwrap_and_dispatchB8ue170006INS_10__overloadINS_11__move_loopINS_17_ClassicAlgPolicyEEENS_14__move_trivialEEEPiS7_S7_Li0EEENS_4pairIT0_T2_EES9_T1_SA_, symObjAddr: 0x373FC, symBinAddr: 0x10003AB20, symSize: 0xB4 }
  - { offsetInCU: 0x39A49, offset: 0x39A49, size: 0x8, addend: 0x0, symName: __ZNSt3__18distanceB8ue170006INS_13move_iteratorIPiEEEENS_15iterator_traitsIT_E15difference_typeES5_S5_, symObjAddr: 0x375D4, symBinAddr: 0x10003ACF8, symSize: 0x3C }
  - { offsetInCU: 0x39A8C, offset: 0x39A8C, size: 0x8, addend: 0x0, symName: __ZNSt3__110__distanceB8ue170006INS_13move_iteratorIPiEEEENS_15iterator_traitsIT_E15difference_typeES5_S5_NS_26random_access_iterator_tagE, symObjAddr: 0x37714, symBinAddr: 0x10003AE38, symSize: 0x30 }
  - { offsetInCU: 0x39ADA, offset: 0x39ADA, size: 0x8, addend: 0x0, symName: __ZNSt3__1miB8ue170006IPiS1_EEDTmicldtfp_4baseEcldtfp0_4baseEERKNS_13move_iteratorIT_EERKNS3_IT0_EE, symObjAddr: 0x37744, symBinAddr: 0x10003AE68, symSize: 0x48 }
  - { offsetInCU: 0x39B29, offset: 0x39B29, size: 0x8, addend: 0x0, symName: __ZNSt3__142__uninitialized_allocator_move_if_noexceptB8ue170006INS_9allocatorIiEEPiS3_ivEET1_RT_T0_S7_S4_, symObjAddr: 0x377C4, symBinAddr: 0x10003AEE8, symSize: 0x38 }
  - { offsetInCU: 0x39CE0, offset: 0x39CE0, size: 0x8, addend: 0x0, symName: __ZNSt3__1neB8ue170006ERKNS_15__list_iteratorINS_12basic_stringIcNS_11char_traitsIcEENS_9allocatorIcEEEEPvEESA_, symObjAddr: 0x383E4, symBinAddr: 0x10003BB08, symSize: 0x34 }
  - { offsetInCU: 0x39D1E, offset: 0x39D1E, size: 0x8, addend: 0x0, symName: __ZNSt3__1eqB8ue170006ERKNS_15__list_iteratorINS_12basic_stringIcNS_11char_traitsIcEENS_9allocatorIcEEEEPvEESA_, symObjAddr: 0x38464, symBinAddr: 0x10003BB88, symSize: 0x30 }
  - { offsetInCU: 0x39D5B, offset: 0x39D5B, size: 0x8, addend: 0x0, symName: __ZNSt3__111__find_implB8ue170006IP5PointS2_S1_NS_10__identityEEET_S4_T0_RKT1_RT2_, symObjAddr: 0x3850C, symBinAddr: 0x10003BC30, symSize: 0x7C }
  - { offsetInCU: 0x39DD5, offset: 0x39DD5, size: 0x8, addend: 0x0, symName: __ZNSt3__18__invokeB8ue170006IRNS_10__identityEJR5PointEEEDTclclsr3stdE7declvalIT_EEspclsr3stdE7declvalIT0_EEEEOS5_DpOS6_, symObjAddr: 0x38588, symBinAddr: 0x10003BCAC, symSize: 0x2C }
  - { offsetInCU: 0x39E53, offset: 0x39E53, size: 0x8, addend: 0x0, symName: __ZNSt3__14sortB8ue170006INS_11__wrap_iterIP5PointEENS_6__lessIvvEEEEvT_S7_T0_, symObjAddr: 0x38634, symBinAddr: 0x10003BD58, symSize: 0x40 }
  - { offsetInCU: 0x39EAD, offset: 0x39EAD, size: 0x8, addend: 0x0, symName: __ZNSt3__111__sort_implB8ue170006INS_17_ClassicAlgPolicyENS_11__wrap_iterIP5PointEENS_6__lessIvvEEEEvT0_S8_RT1_, symObjAddr: 0x38674, symBinAddr: 0x10003BD98, symSize: 0xA8 }
  - { offsetInCU: 0x39F11, offset: 0x39F11, size: 0x8, addend: 0x0, symName: __ZNSt3__123__debug_randomize_rangeB8ue170006INS_17_ClassicAlgPolicyENS_11__wrap_iterIP5PointEES5_EEvT0_T1_, symObjAddr: 0x3871C, symBinAddr: 0x10003BE40, symSize: 0x14 }
  - { offsetInCU: 0x39F62, offset: 0x39F62, size: 0x8, addend: 0x0, symName: __ZNSt3__115__sort_dispatchB8ue170006INS_17_ClassicAlgPolicyEP5PointNS_6__lessIvvEEEEvT0_S6_RT1_, symObjAddr: 0x38730, symBinAddr: 0x10003BE54, symSize: 0x64 }
  - { offsetInCU: 0x39FE1, offset: 0x39FE1, size: 0x8, addend: 0x0, symName: __ZNSt3__135__check_strict_weak_ordering_sortedB8ue170006IP5PointNS_6__lessIvvEEEEvT_S5_RT0_, symObjAddr: 0x38794, symBinAddr: 0x10003BEB8, symSize: 0x18 }
  - { offsetInCU: 0x3A037, offset: 0x3A037, size: 0x8, addend: 0x0, symName: __ZNSt3__17__log2iB8ue170006IlEET_S1_, symObjAddr: 0x387AC, symBinAddr: 0x10003BED0, symSize: 0x54 }
  - { offsetInCU: 0x3A06F, offset: 0x3A06F, size: 0x8, addend: 0x0, symName: __ZNSt3__112__libcpp_clzB8ue170006Em, symObjAddr: 0x38C4C, symBinAddr: 0x10003C370, symSize: 0x1C }
  - { offsetInCU: 0x3A09B, offset: 0x3A09B, size: 0x8, addend: 0x0, symName: __ZNSt3__124__sort3_maybe_branchlessB8ue170006INS_17_ClassicAlgPolicyERNS_6__lessIvvEEP5PointEENS_9enable_ifIXntsr21__use_branchless_sortIT0_T1_EE5valueEvE4typeES9_S9_S9_S8_, symObjAddr: 0x38CD0, symBinAddr: 0x10003C3F4, symSize: 0x3C }
  - { offsetInCU: 0x3A10C, offset: 0x3A10C, size: 0x8, addend: 0x0, symName: __ZNSt3__124__sort4_maybe_branchlessB8ue170006INS_17_ClassicAlgPolicyERNS_6__lessIvvEEP5PointEENS_9enable_ifIXntsr21__use_branchless_sortIT0_T1_EE5valueEvE4typeES9_S9_S9_S9_S8_, symObjAddr: 0x38D0C, symBinAddr: 0x10003C430, symSize: 0x44 }
  - { offsetInCU: 0x3A18B, offset: 0x3A18B, size: 0x8, addend: 0x0, symName: __ZNSt3__124__sort5_maybe_branchlessB8ue170006INS_17_ClassicAlgPolicyERNS_6__lessIvvEEP5PointEENS_9enable_ifIXntsr21__use_branchless_sortIT0_T1_EE5valueEvE4typeES9_S9_S9_S9_S9_S8_, symObjAddr: 0x38D50, symBinAddr: 0x10003C474, symSize: 0x4C }
  - { offsetInCU: 0x3A218, offset: 0x3A218, size: 0x8, addend: 0x0, symName: __ZNSt3__116__insertion_sortB8ue170006INS_17_ClassicAlgPolicyERNS_6__lessIvvEEP5PointEEvT1_S7_T0_, symObjAddr: 0x38D9C, symBinAddr: 0x10003C4C0, symSize: 0x150 }
  - { offsetInCU: 0x3A2DB, offset: 0x3A2DB, size: 0x8, addend: 0x0, symName: __ZNSt3__114__partial_sortB8ue170006INS_17_ClassicAlgPolicyERNS_6__lessIvvEEP5PointS6_EET1_S7_S7_T2_RT0_, symObjAddr: 0x3900C, symBinAddr: 0x10003C730, symSize: 0x94 }
  - { offsetInCU: 0x3A363, offset: 0x3A363, size: 0x8, addend: 0x0, symName: __ZNSt3__17__sort3B8ue170006INS_17_ClassicAlgPolicyERNS_6__lessIvvEEP5PointEEjT1_S7_S7_T0_, symObjAddr: 0x390A0, symBinAddr: 0x10003C7C4, symSize: 0x144 }
  - { offsetInCU: 0x3A3E2, offset: 0x3A3E2, size: 0x8, addend: 0x0, symName: __ZNSt3__19iter_swapB8ue170006IP5PointS2_EEvT_T0_, symObjAddr: 0x39C80, symBinAddr: 0x10003D3A4, symSize: 0x2C }
  - { offsetInCU: 0x3A42B, offset: 0x3A42B, size: 0x8, addend: 0x0, symName: __ZNSt3__14swapB8ue170006I5PointEENS_9enable_ifIXaasr21is_move_constructibleIT_EE5valuesr18is_move_assignableIS3_EE5valueEvE4typeERS3_S6_, symObjAddr: 0x39CAC, symBinAddr: 0x10003D3D0, symSize: 0x3C }
  - { offsetInCU: 0x3A47C, offset: 0x3A47C, size: 0x8, addend: 0x0, symName: __ZNSt3__17__sort4B8ue170006INS_17_ClassicAlgPolicyERNS_6__lessIvvEEP5PointEEvT1_S7_S7_S7_T0_, symObjAddr: 0x39CE8, symBinAddr: 0x10003D40C, symSize: 0xB8 }
  - { offsetInCU: 0x3A4F7, offset: 0x3A4F7, size: 0x8, addend: 0x0, symName: __ZNSt3__17__sort5B8ue170006INS_17_ClassicAlgPolicyERNS_6__lessIvvEEP5PointEEvT1_S7_S7_S7_S7_T0_, symObjAddr: 0x39DA0, symBinAddr: 0x10003D4C4, symSize: 0xE8 }
  - { offsetInCU: 0x3A5A5, offset: 0x3A5A5, size: 0x8, addend: 0x0, symName: __ZNSt3__123__debug_randomize_rangeB8ue170006INS_17_ClassicAlgPolicyEP5PointS3_EEvT0_T1_, symObjAddr: 0x39ECC, symBinAddr: 0x10003D5F0, symSize: 0x14 }
  - { offsetInCU: 0x3A5F6, offset: 0x3A5F6, size: 0x8, addend: 0x0, symName: __ZNSt3__119__partial_sort_implB8ue170006INS_17_ClassicAlgPolicyERNS_6__lessIvvEEP5PointS6_EET1_S7_S7_T2_OT0_, symObjAddr: 0x39EE0, symBinAddr: 0x10003D604, symSize: 0x110 }
  - { offsetInCU: 0x3A68C, offset: 0x3A68C, size: 0x8, addend: 0x0, symName: __ZNSt3__111__make_heapB8ue170006INS_17_ClassicAlgPolicyERNS_6__lessIvvEEP5PointEEvT1_S7_OT0_, symObjAddr: 0x39FF0, symBinAddr: 0x10003D714, symSize: 0xB8 }
  - { offsetInCU: 0x3A72E, offset: 0x3A72E, size: 0x8, addend: 0x0, symName: __ZNSt3__111__sort_heapB8ue170006INS_17_ClassicAlgPolicyERNS_6__lessIvvEEP5PointEEvT1_S7_OT0_, symObjAddr: 0x3A2B4, symBinAddr: 0x10003D9D8, symSize: 0xA8 }
  - { offsetInCU: 0x3A7D0, offset: 0x3A7D0, size: 0x8, addend: 0x0, symName: __ZNSt3__110__pop_heapB8ue170006INS_17_ClassicAlgPolicyENS_6__lessIvvEEP5PointEEvT1_S6_RT0_NS_15iterator_traitsIS6_E15difference_typeE, symObjAddr: 0x3A35C, symBinAddr: 0x10003DA80, symSize: 0xF4 }
  - { offsetInCU: 0x3A880, offset: 0x3A880, size: 0x8, addend: 0x0, symName: __ZNSt3__19__sift_upB8ue170006INS_17_ClassicAlgPolicyERNS_6__lessIvvEEP5PointEEvT1_S7_OT0_NS_15iterator_traitsIS7_E15difference_typeE, symObjAddr: 0x3A550, symBinAddr: 0x10003DC74, symSize: 0x11C }
  - { offsetInCU: 0x3A930, offset: 0x3A930, size: 0x8, addend: 0x0, symName: __ZNSt3__122__populate_left_bitsetB8ue170006IRNS_6__lessIvvEEP5PointS4_EEvT0_T_RT1_Ry, symObjAddr: 0x3A66C, symBinAddr: 0x10003DD90, symSize: 0xA8 }
  - { offsetInCU: 0x3A9EB, offset: 0x3A9EB, size: 0x8, addend: 0x0, symName: __ZNSt3__123__populate_right_bitsetB8ue170006IRNS_6__lessIvvEEP5PointS4_EEvT0_T_RT1_Ry, symObjAddr: 0x3A714, symBinAddr: 0x10003DE38, symSize: 0xA0 }
  - { offsetInCU: 0x3AAA6, offset: 0x3AAA6, size: 0x8, addend: 0x0, symName: __ZNSt3__117__swap_bitmap_posB8ue170006INS_17_ClassicAlgPolicyEP5PointEEvT0_S4_RyS5_, symObjAddr: 0x3A7B4, symBinAddr: 0x10003DED8, symSize: 0x100 }
  - { offsetInCU: 0x3AB47, offset: 0x3AB47, size: 0x8, addend: 0x0, symName: __ZNSt3__133__bitset_partition_partial_blocksB8ue170006INS_17_ClassicAlgPolicyERNS_6__lessIvvEEP5PointS5_EEvRT1_S8_T0_RT2_RySC_, symObjAddr: 0x3A8B4, symBinAddr: 0x10003DFD8, symSize: 0x2E8 }
  - { offsetInCU: 0x3ACC8, offset: 0x3ACC8, size: 0x8, addend: 0x0, symName: __ZNSt3__19make_pairB8ue170006IRP5PointRbEENS_4pairINS_18__unwrap_ref_decayIT_E4typeENS6_IT0_E4typeEEEOS7_OSA_, symObjAddr: 0x3AD7C, symBinAddr: 0x10003E4A0, symSize: 0x38 }
  - { offsetInCU: 0x3AD18, offset: 0x3AD18, size: 0x8, addend: 0x0, symName: __ZNSt3__112__libcpp_ctzB8ue170006Ey, symObjAddr: 0x3ADB4, symBinAddr: 0x10003E4D8, symSize: 0x20 }
  - { offsetInCU: 0x3AD45, offset: 0x3AD45, size: 0x8, addend: 0x0, symName: __ZNSt3__113__libcpp_blsrB8ue170006Ey, symObjAddr: 0x3ADD4, symBinAddr: 0x10003E4F8, symSize: 0x2C }
  - { offsetInCU: 0x3AD72, offset: 0x3AD72, size: 0x8, addend: 0x0, symName: __ZNSt3__112__libcpp_clzB8ue170006Ey, symObjAddr: 0x3AE34, symBinAddr: 0x10003E558, symSize: 0x1C }
  - { offsetInCU: 0x3AE72, offset: 0x3AE72, size: 0x8, addend: 0x0, symName: __ZNSt3__122__make_exception_guardB8ue170006INS_6vectorI4RectNS_9allocatorIS2_EEE16__destroy_vectorEEENS_28__exception_guard_exceptionsIT_EES8_, symObjAddr: 0x3B020, symBinAddr: 0x10003E744, symSize: 0x40 }
  - { offsetInCU: 0x3AEA7, offset: 0x3AEA7, size: 0x8, addend: 0x0, symName: __ZNSt3__119__allocate_at_leastB8ue170006INS_9allocatorI4RectEEEENS_19__allocation_resultINS_16allocator_traitsIT_E7pointerEEERS6_m, symObjAddr: 0x3B430, symBinAddr: 0x10003EB54, symSize: 0x40 }
  - { offsetInCU: 0x3AEEB, offset: 0x3AEEB, size: 0x8, addend: 0x0, symName: __ZNSt3__112__to_addressB8ue170006I4RectEEPT_S3_, symObjAddr: 0x3B778, symBinAddr: 0x10003EE9C, symSize: 0x14 }
  - { offsetInCU: 0x3AF20, offset: 0x3AF20, size: 0x8, addend: 0x0, symName: __ZNSt3__130__uninitialized_allocator_copyB8ue170006INS_9allocatorI4RectEEPKS2_S5_PS2_EET2_RT_T0_T1_S7_, symObjAddr: 0x3B828, symBinAddr: 0x10003EF4C, symSize: 0x80 }
  - { offsetInCU: 0x3AFBD, offset: 0x3AFBD, size: 0x8, addend: 0x0, symName: __ZNSt3__114__unwrap_rangeB8ue170006IPK4RectS3_EENS_4pairIT0_S5_EET_S7_, symObjAddr: 0x3B920, symBinAddr: 0x10003F044, symSize: 0x60 }
  - { offsetInCU: 0x3B009, offset: 0x3B009, size: 0x8, addend: 0x0, symName: __ZNSt3__135__uninitialized_allocator_copy_implB8ue170006INS_9allocatorI4RectEEPKS2_S5_PS2_EET2_RT_T0_T1_S7_, symObjAddr: 0x3B980, symBinAddr: 0x10003F0A4, symSize: 0xF4 }
  - { offsetInCU: 0x3B0A7, offset: 0x3B0A7, size: 0x8, addend: 0x0, symName: __ZNSt3__113__unwrap_iterB8ue170006IP4RectNS_18__unwrap_iter_implIS2_Lb1EEELi0EEEDTclsrT0_8__unwrapclsr3stdE7declvalIT_EEEES6_, symObjAddr: 0x3BA74, symBinAddr: 0x10003F198, symSize: 0x24 }
  - { offsetInCU: 0x3B0EB, offset: 0x3B0EB, size: 0x8, addend: 0x0, symName: __ZNSt3__113__rewrap_iterB8ue170006IP4RectS2_NS_18__unwrap_iter_implIS2_Lb1EEEEET_S5_T0_, symObjAddr: 0x3BA98, symBinAddr: 0x10003F1BC, symSize: 0x3C }
  - { offsetInCU: 0x3B140, offset: 0x3B140, size: 0x8, addend: 0x0, symName: __ZNSt3__19make_pairB8ue170006IPK4RectS3_EENS_4pairINS_18__unwrap_ref_decayIT_E4typeENS5_IT0_E4typeEEEOS6_OS9_, symObjAddr: 0x3BAD4, symBinAddr: 0x10003F1F8, symSize: 0x38 }
  - { offsetInCU: 0x3B18F, offset: 0x3B18F, size: 0x8, addend: 0x0, symName: __ZNSt3__113__unwrap_iterB8ue170006IPK4RectNS_18__unwrap_iter_implIS3_Lb1EEELi0EEEDTclsrT0_8__unwrapclsr3stdE7declvalIT_EEEES7_, symObjAddr: 0x3BB0C, symBinAddr: 0x10003F230, symSize: 0x24 }
  - { offsetInCU: 0x3B2FB, offset: 0x3B2FB, size: 0x8, addend: 0x0, symName: __ZNSt3__112__to_addressB8ue170006IK4RectEEPT_S4_, symObjAddr: 0x3BBC4, symBinAddr: 0x10003F2E8, symSize: 0x14 }
  - { offsetInCU: 0x3B330, offset: 0x3B330, size: 0x8, addend: 0x0, symName: __ZNSt3__122__make_exception_guardB8ue170006INS_29_AllocatorDestroyRangeReverseINS_9allocatorI4RectEEPS3_EEEENS_28__exception_guard_exceptionsIT_EES8_, symObjAddr: 0x3BBD8, symBinAddr: 0x10003F2FC, symSize: 0x4C }
  - { offsetInCU: 0x3B366, offset: 0x3B366, size: 0x8, addend: 0x0, symName: __ZNSt3__119__allocator_destroyB8ue170006INS_9allocatorI4RectEENS_16reverse_iteratorIPS2_EES6_EEvRT_T0_T1_, symObjAddr: 0x3BE68, symBinAddr: 0x10003F58C, symSize: 0x70 }
  - { offsetInCU: 0x3B3C9, offset: 0x3B3C9, size: 0x8, addend: 0x0, symName: __ZNSt3__1neB8ue170006IP4RectS2_EEbRKNS_16reverse_iteratorIT_EERKNS3_IT0_EE, symObjAddr: 0x3BF0C, symBinAddr: 0x10003F630, symSize: 0x48 }
  - { offsetInCU: 0x3B415, offset: 0x3B415, size: 0x8, addend: 0x0, symName: __ZNSt3__112__to_addressB8ue170006INS_16reverse_iteratorIP4RectEEvEEu7__decayIDTclsr19__to_address_helperIT_EE6__callclsr3stdE7declvalIRKS5_EEEEES7_, symObjAddr: 0x3BF80, symBinAddr: 0x10003F6A4, symSize: 0x24 }
  - { offsetInCU: 0x3B4C8, offset: 0x3B4C8, size: 0x8, addend: 0x0, symName: __ZNSt3__1neB8ue170006IPK4RectEEbRKNS_11__wrap_iterIT_EES8_, symObjAddr: 0x3C4FC, symBinAddr: 0x10003FC20, symSize: 0x34 }
  - { offsetInCU: 0x3B50B, offset: 0x3B50B, size: 0x8, addend: 0x0, symName: __ZNSt3__1eqB8ue170006IPK4RectEEbRKNS_11__wrap_iterIT_EES8_, symObjAddr: 0x3C6C0, symBinAddr: 0x10003FDE4, symSize: 0x48 }
  - { offsetInCU: 0x3B54E, offset: 0x3B54E, size: 0x8, addend: 0x0, symName: '__ZNSt3__111__sort_implB8ue170006INS_17_ClassicAlgPolicyENS_11__wrap_iterIP4RectEEZ4mainE3$_2EEvT0_S7_RT1_', symObjAddr: 0x3C7D4, symBinAddr: 0x10003FEC8, symSize: 0xA8 }
  - { offsetInCU: 0x3B5B2, offset: 0x3B5B2, size: 0x8, addend: 0x0, symName: __ZNSt3__123__debug_randomize_rangeB8ue170006INS_17_ClassicAlgPolicyENS_11__wrap_iterIP4RectEES5_EEvT0_T1_, symObjAddr: 0x3C87C, symBinAddr: 0x10003FF70, symSize: 0x14 }
  - { offsetInCU: 0x3B603, offset: 0x3B603, size: 0x8, addend: 0x0, symName: '__ZNSt3__115__sort_dispatchB8ue170006INS_17_ClassicAlgPolicyEP4RectZ4mainE3$_2EEvT0_S5_RT1_', symObjAddr: 0x3C890, symBinAddr: 0x10003FF84, symSize: 0x64 }
  - { offsetInCU: 0x3B681, offset: 0x3B681, size: 0x8, addend: 0x0, symName: __ZNSt3__113__unwrap_iterB8ue170006INS_11__wrap_iterIP4RectEENS_18__unwrap_iter_implIS4_Lb1EEELi0EEEDTclsrT0_8__unwrapclsr3stdE7declvalIT_EEEES8_, symObjAddr: 0x3C8F4, symBinAddr: 0x10003FFE8, symSize: 0x2C }
  - { offsetInCU: 0x3B6C6, offset: 0x3B6C6, size: 0x8, addend: 0x0, symName: '__ZNSt3__135__check_strict_weak_ordering_sortedB8ue170006IP4RectZ4mainE3$_2EEvT_S4_RT0_', symObjAddr: 0x3C920, symBinAddr: 0x100040014, symSize: 0x18 }
  - { offsetInCU: 0x3B71C, offset: 0x3B71C, size: 0x8, addend: 0x0, symName: '__ZNSt3__124__sort3_maybe_branchlessB8ue170006INS_17_ClassicAlgPolicyERZ4mainE3$_2P4RectEENS_9enable_ifIXntsr21__use_branchless_sortIT0_T1_EE5valueEvE4typeES8_S8_S8_S7_', symObjAddr: 0x3CF18, symBinAddr: 0x10004060C, symSize: 0x3C }
  - { offsetInCU: 0x3B78D, offset: 0x3B78D, size: 0x8, addend: 0x0, symName: '__ZNSt3__124__sort4_maybe_branchlessB8ue170006INS_17_ClassicAlgPolicyERZ4mainE3$_2P4RectEENS_9enable_ifIXntsr21__use_branchless_sortIT0_T1_EE5valueEvE4typeES8_S8_S8_S8_S7_', symObjAddr: 0x3CF54, symBinAddr: 0x100040648, symSize: 0x44 }
  - { offsetInCU: 0x3B80C, offset: 0x3B80C, size: 0x8, addend: 0x0, symName: '__ZNSt3__124__sort5_maybe_branchlessB8ue170006INS_17_ClassicAlgPolicyERZ4mainE3$_2P4RectEENS_9enable_ifIXntsr21__use_branchless_sortIT0_T1_EE5valueEvE4typeES8_S8_S8_S8_S8_S7_', symObjAddr: 0x3CF98, symBinAddr: 0x10004068C, symSize: 0x4C }
  - { offsetInCU: 0x3B899, offset: 0x3B899, size: 0x8, addend: 0x0, symName: '__ZNSt3__116__insertion_sortB8ue170006INS_17_ClassicAlgPolicyERZ4mainE3$_2P4RectEEvT1_S6_T0_', symObjAddr: 0x3CFE4, symBinAddr: 0x1000406D8, symSize: 0x1A8 }
  - { offsetInCU: 0x3B94C, offset: 0x3B94C, size: 0x8, addend: 0x0, symName: '__ZNSt3__114__partial_sortB8ue170006INS_17_ClassicAlgPolicyERZ4mainE3$_2P4RectS5_EET1_S6_S6_T2_RT0_', symObjAddr: 0x3D304, symBinAddr: 0x1000409F8, symSize: 0x94 }
  - { offsetInCU: 0x3B9D4, offset: 0x3B9D4, size: 0x8, addend: 0x0, symName: '__ZNSt3__17__sort3B8ue170006INS_17_ClassicAlgPolicyERZ4mainE3$_2P4RectEEjT1_S6_S6_T0_', symObjAddr: 0x3D398, symBinAddr: 0x100040A8C, symSize: 0x144 }
  - { offsetInCU: 0x3BA53, offset: 0x3BA53, size: 0x8, addend: 0x0, symName: __ZNSt3__19iter_swapB8ue170006IP4RectS2_EEvT_T0_, symObjAddr: 0x3E194, symBinAddr: 0x100041888, symSize: 0x2C }
  - { offsetInCU: 0x3BA9B, offset: 0x3BA9B, size: 0x8, addend: 0x0, symName: __ZNSt3__14swapB8ue170006I4RectEENS_9enable_ifIXaasr21is_move_constructibleIT_EE5valuesr18is_move_assignableIS3_EE5valueEvE4typeERS3_S6_, symObjAddr: 0x3E1C0, symBinAddr: 0x1000418B4, symSize: 0x74 }
  - { offsetInCU: 0x3BAEC, offset: 0x3BAEC, size: 0x8, addend: 0x0, symName: '__ZNSt3__17__sort4B8ue170006INS_17_ClassicAlgPolicyERZ4mainE3$_2P4RectEEvT1_S6_S6_S6_T0_', symObjAddr: 0x3E234, symBinAddr: 0x100041928, symSize: 0xB8 }
  - { offsetInCU: 0x3BB67, offset: 0x3BB67, size: 0x8, addend: 0x0, symName: '__ZNSt3__17__sort5B8ue170006INS_17_ClassicAlgPolicyERZ4mainE3$_2P4RectEEvT1_S6_S6_S6_S6_T0_', symObjAddr: 0x3E2EC, symBinAddr: 0x1000419E0, symSize: 0xE8 }
  - { offsetInCU: 0x3BC15, offset: 0x3BC15, size: 0x8, addend: 0x0, symName: __ZNSt3__123__debug_randomize_rangeB8ue170006INS_17_ClassicAlgPolicyEP4RectS3_EEvT0_T1_, symObjAddr: 0x3E418, symBinAddr: 0x100041B0C, symSize: 0x14 }
  - { offsetInCU: 0x3BC66, offset: 0x3BC66, size: 0x8, addend: 0x0, symName: '__ZNSt3__119__partial_sort_implB8ue170006INS_17_ClassicAlgPolicyERZ4mainE3$_2P4RectS5_EET1_S6_S6_T2_OT0_', symObjAddr: 0x3E42C, symBinAddr: 0x100041B20, symSize: 0x110 }
  - { offsetInCU: 0x3BCFC, offset: 0x3BCFC, size: 0x8, addend: 0x0, symName: '__ZNSt3__111__make_heapB8ue170006INS_17_ClassicAlgPolicyERZ4mainE3$_2P4RectEEvT1_S6_OT0_', symObjAddr: 0x3E53C, symBinAddr: 0x100041C30, symSize: 0xC0 }
  - { offsetInCU: 0x3BD9E, offset: 0x3BD9E, size: 0x8, addend: 0x0, symName: '__ZNSt3__111__sort_heapB8ue170006INS_17_ClassicAlgPolicyERZ4mainE3$_2P4RectEEvT1_S6_OT0_', symObjAddr: 0x3E87C, symBinAddr: 0x100041F70, symSize: 0xA8 }
  - { offsetInCU: 0x3BE40, offset: 0x3BE40, size: 0x8, addend: 0x0, symName: '__ZNSt3__110__pop_heapB8ue170006INS_17_ClassicAlgPolicyEZ4mainE3$_2P4RectEEvT1_S5_RT0_NS_15iterator_traitsIS5_E15difference_typeE', symObjAddr: 0x3E924, symBinAddr: 0x100042018, symSize: 0x154 }
  - { offsetInCU: 0x3BEE8, offset: 0x3BEE8, size: 0x8, addend: 0x0, symName: '__ZNSt3__19__sift_upB8ue170006INS_17_ClassicAlgPolicyERZ4mainE3$_2P4RectEEvT1_S6_OT0_NS_15iterator_traitsIS6_E15difference_typeE', symObjAddr: 0x3EB80, symBinAddr: 0x100042274, symSize: 0x174 }
  - { offsetInCU: 0x3BF88, offset: 0x3BF88, size: 0x8, addend: 0x0, symName: '__ZNSt3__122__populate_left_bitsetB8ue170006IRZ4mainE3$_2P4RectS3_EEvT0_T_RT1_Ry', symObjAddr: 0x3ECF4, symBinAddr: 0x1000423E8, symSize: 0xA8 }
  - { offsetInCU: 0x3C043, offset: 0x3C043, size: 0x8, addend: 0x0, symName: '__ZNSt3__123__populate_right_bitsetB8ue170006IRZ4mainE3$_2P4RectS3_EEvT0_T_RT1_Ry', symObjAddr: 0x3ED9C, symBinAddr: 0x100042490, symSize: 0xA0 }
  - { offsetInCU: 0x3C0FE, offset: 0x3C0FE, size: 0x8, addend: 0x0, symName: __ZNSt3__117__swap_bitmap_posB8ue170006INS_17_ClassicAlgPolicyEP4RectEEvT0_S4_RyS5_, symObjAddr: 0x3EE3C, symBinAddr: 0x100042530, symSize: 0x104 }
  - { offsetInCU: 0x3C19F, offset: 0x3C19F, size: 0x8, addend: 0x0, symName: '__ZNSt3__133__bitset_partition_partial_blocksB8ue170006INS_17_ClassicAlgPolicyERZ4mainE3$_2P4RectS4_EEvRT1_S7_T0_RT2_RySB_', symObjAddr: 0x3EF40, symBinAddr: 0x100042634, symSize: 0x2F0 }
  - { offsetInCU: 0x3C320, offset: 0x3C320, size: 0x8, addend: 0x0, symName: __ZNSt3__19make_pairB8ue170006IRP4RectRbEENS_4pairINS_18__unwrap_ref_decayIT_E4typeENS6_IT0_E4typeEEEOS7_OSA_, symObjAddr: 0x3F418, symBinAddr: 0x100042B0C, symSize: 0x38 }
  - { offsetInCU: 0x3C496, offset: 0x3C496, size: 0x8, addend: 0x0, symName: __ZNSt3__112__to_addressB8ue170006INS_11__wrap_iterIP4RectEEvEEu7__decayIDTclsr19__to_address_helperIT_EE6__callclsr3stdE7declvalIRKS5_EEEEES7_, symObjAddr: 0x3F520, symBinAddr: 0x100042C14, symSize: 0x24 }
  - { offsetInCU: 0x3C647, offset: 0x3C647, size: 0x8, addend: 0x0, symName: __ZNSt3__1eqB8ue170006ERKNS_21__tree_const_iteratorINS_12basic_stringIcNS_11char_traitsIcEENS_9allocatorIcEEEEPNS_11__tree_nodeIS6_PvEElEESD_, symObjAddr: 0x40540, symBinAddr: 0x100043C34, symSize: 0x30 }
  - { offsetInCU: 0x3C684, offset: 0x3C684, size: 0x8, addend: 0x0, symName: __ZNSt3__14nextB8ue170006INS_21__tree_const_iteratorINS_12basic_stringIcNS_11char_traitsIcEENS_9allocatorIcEEEEPNS_11__tree_nodeIS7_PvEElEEEENS_9enable_ifIXsr29__has_input_iterator_categoryIT_EE5valueESE_E4typeESE_NS_15iterator_traitsISE_E15difference_typeE, symObjAddr: 0x40788, symBinAddr: 0x100043E7C, symSize: 0x3C }
  - { offsetInCU: 0x3C6C7, offset: 0x3C6C7, size: 0x8, addend: 0x0, symName: __ZNSt3__19__advanceB8ue170006INS_21__tree_const_iteratorINS_12basic_stringIcNS_11char_traitsIcEENS_9allocatorIcEEEEPNS_11__tree_nodeIS7_PvEElEEEEvRT_NS_15iterator_traitsISD_E15difference_typeENS_26bidirectional_iterator_tagE, symObjAddr: 0x40870, symBinAddr: 0x100043F64, symSize: 0xA4 }
  - { offsetInCU: 0x3C72F, offset: 0x3C72F, size: 0x8, addend: 0x0, symName: __ZNSt3__122__make_exception_guardB8ue170006INS_6vectorINS_12basic_stringIcNS_11char_traitsIcEENS_9allocatorIcEEEENS5_IS7_EEE16__destroy_vectorEEENS_28__exception_guard_exceptionsIT_EESC_, symObjAddr: 0x4103C, symBinAddr: 0x100044730, symSize: 0x40 }
  - { offsetInCU: 0x3C764, offset: 0x3C764, size: 0x8, addend: 0x0, symName: __ZNSt3__119__allocate_at_leastB8ue170006INS_9allocatorINS_12basic_stringIcNS_11char_traitsIcEENS1_IcEEEEEEEENS_19__allocation_resultINS_16allocator_traitsIT_E7pointerEEERSA_m, symObjAddr: 0x4140C, symBinAddr: 0x100044B00, symSize: 0x40 }
  - { offsetInCU: 0x3C7A8, offset: 0x3C7A8, size: 0x8, addend: 0x0, symName: __ZNSt3__112__to_addressB8ue170006INS_12basic_stringIcNS_11char_traitsIcEENS_9allocatorIcEEEEEEPT_S8_, symObjAddr: 0x41754, symBinAddr: 0x100044E48, symSize: 0x14 }
  - { offsetInCU: 0x3C7DD, offset: 0x3C7DD, size: 0x8, addend: 0x0, symName: __ZNSt3__130__uninitialized_allocator_copyB8ue170006INS_9allocatorINS_12basic_stringIcNS_11char_traitsIcEENS1_IcEEEEEEPKS6_S9_PS6_EET2_RT_T0_T1_SB_, symObjAddr: 0x41804, symBinAddr: 0x100044EF8, symSize: 0x80 }
  - { offsetInCU: 0x3C87A, offset: 0x3C87A, size: 0x8, addend: 0x0, symName: __ZNSt3__114__unwrap_rangeB8ue170006IPKNS_12basic_stringIcNS_11char_traitsIcEENS_9allocatorIcEEEES8_EENS_4pairIT0_SA_EET_SC_, symObjAddr: 0x418FC, symBinAddr: 0x100044FF0, symSize: 0x60 }
  - { offsetInCU: 0x3C8C6, offset: 0x3C8C6, size: 0x8, addend: 0x0, symName: __ZNSt3__135__uninitialized_allocator_copy_implB8ue170006INS_9allocatorINS_12basic_stringIcNS_11char_traitsIcEENS1_IcEEEEEEPKS6_S9_PS6_EET2_RT_T0_T1_SB_, symObjAddr: 0x4195C, symBinAddr: 0x100045050, symSize: 0xF4 }
  - { offsetInCU: 0x3C964, offset: 0x3C964, size: 0x8, addend: 0x0, symName: __ZNSt3__113__unwrap_iterB8ue170006IPNS_12basic_stringIcNS_11char_traitsIcEENS_9allocatorIcEEEENS_18__unwrap_iter_implIS7_Lb1EEELi0EEEDTclsrT0_8__unwrapclsr3stdE7declvalIT_EEEESB_, symObjAddr: 0x41A50, symBinAddr: 0x100045144, symSize: 0x24 }
  - { offsetInCU: 0x3C9A8, offset: 0x3C9A8, size: 0x8, addend: 0x0, symName: __ZNSt3__113__rewrap_iterB8ue170006IPNS_12basic_stringIcNS_11char_traitsIcEENS_9allocatorIcEEEES7_NS_18__unwrap_iter_implIS7_Lb1EEEEET_SA_T0_, symObjAddr: 0x41A74, symBinAddr: 0x100045168, symSize: 0x3C }
  - { offsetInCU: 0x3C9FD, offset: 0x3C9FD, size: 0x8, addend: 0x0, symName: __ZNSt3__19make_pairB8ue170006IPKNS_12basic_stringIcNS_11char_traitsIcEENS_9allocatorIcEEEES8_EENS_4pairINS_18__unwrap_ref_decayIT_E4typeENSA_IT0_E4typeEEEOSB_OSE_, symObjAddr: 0x41AB0, symBinAddr: 0x1000451A4, symSize: 0x38 }
  - { offsetInCU: 0x3CA4C, offset: 0x3CA4C, size: 0x8, addend: 0x0, symName: __ZNSt3__113__unwrap_iterB8ue170006IPKNS_12basic_stringIcNS_11char_traitsIcEENS_9allocatorIcEEEENS_18__unwrap_iter_implIS8_Lb1EEELi0EEEDTclsrT0_8__unwrapclsr3stdE7declvalIT_EEEESC_, symObjAddr: 0x41AE8, symBinAddr: 0x1000451DC, symSize: 0x24 }
  - { offsetInCU: 0x3CBB8, offset: 0x3CBB8, size: 0x8, addend: 0x0, symName: __ZNSt3__112__to_addressB8ue170006IKNS_12basic_stringIcNS_11char_traitsIcEENS_9allocatorIcEEEEEEPT_S9_, symObjAddr: 0x41BA0, symBinAddr: 0x100045294, symSize: 0x14 }
  - { offsetInCU: 0x3CBED, offset: 0x3CBED, size: 0x8, addend: 0x0, symName: __ZNSt3__122__make_exception_guardB8ue170006INS_29_AllocatorDestroyRangeReverseINS_9allocatorINS_12basic_stringIcNS_11char_traitsIcEENS2_IcEEEEEEPS7_EEEENS_28__exception_guard_exceptionsIT_EESC_, symObjAddr: 0x41BB4, symBinAddr: 0x1000452A8, symSize: 0x4C }
  - { offsetInCU: 0x3CC23, offset: 0x3CC23, size: 0x8, addend: 0x0, symName: __ZNSt3__119__allocator_destroyB8ue170006INS_9allocatorINS_12basic_stringIcNS_11char_traitsIcEENS1_IcEEEEEENS_16reverse_iteratorIPS6_EESA_EEvRT_T0_T1_, symObjAddr: 0x41E44, symBinAddr: 0x100045538, symSize: 0x70 }
  - { offsetInCU: 0x3CC86, offset: 0x3CC86, size: 0x8, addend: 0x0, symName: __ZNSt3__1neB8ue170006IPNS_12basic_stringIcNS_11char_traitsIcEENS_9allocatorIcEEEES7_EEbRKNS_16reverse_iteratorIT_EERKNS8_IT0_EE, symObjAddr: 0x41EE8, symBinAddr: 0x1000455DC, symSize: 0x48 }
  - { offsetInCU: 0x3CCD2, offset: 0x3CCD2, size: 0x8, addend: 0x0, symName: __ZNSt3__112__to_addressB8ue170006INS_16reverse_iteratorIPNS_12basic_stringIcNS_11char_traitsIcEENS_9allocatorIcEEEEEEvEEu7__decayIDTclsr19__to_address_helperIT_EE6__callclsr3stdE7declvalIRKSA_EEEEESC_, symObjAddr: 0x41F5C, symBinAddr: 0x100045650, symSize: 0x24 }
  - { offsetInCU: 0x3CD85, offset: 0x3CD85, size: 0x8, addend: 0x0, symName: __ZNSt3__17launderB8ue170006INS_4pairIKNS_12basic_stringIcNS_11char_traitsIcEENS_9allocatorIcEEEEiEEEEPT_SB_, symObjAddr: 0x42A28, symBinAddr: 0x10004611C, symSize: 0x24 }
  - { offsetInCU: 0x3CDBD, offset: 0x3CDBD, size: 0x8, addend: 0x0, symName: __ZNSt3__19__launderB8ue170006INS_4pairIKNS_12basic_stringIcNS_11char_traitsIcEENS_9allocatorIcEEEEiEEEEPT_SB_, symObjAddr: 0x42A4C, symBinAddr: 0x100046140, symSize: 0x14 }
  - { offsetInCU: 0x3CDF4, offset: 0x3CDF4, size: 0x8, addend: 0x0, symName: __ZNSt3__116forward_as_tupleB8ue170006IJRKNS_12basic_stringIcNS_11char_traitsIcEENS_9allocatorIcEEEEEEENS_5tupleIJDpOT_EEESC_, symObjAddr: 0x42C74, symBinAddr: 0x100046368, symSize: 0x2C }
  - { offsetInCU: 0x3CE2D, offset: 0x3CE2D, size: 0x8, addend: 0x0, symName: __ZNSt3__17launderB8ue170006IKNS_4pairIKNS_12basic_stringIcNS_11char_traitsIcEENS_9allocatorIcEEEEiEEEEPT_SC_, symObjAddr: 0x43284, symBinAddr: 0x100046978, symSize: 0x24 }
  - { offsetInCU: 0x3CE65, offset: 0x3CE65, size: 0x8, addend: 0x0, symName: __ZNSt3__19__launderB8ue170006IKNS_4pairIKNS_12basic_stringIcNS_11char_traitsIcEENS_9allocatorIcEEEEiEEEEPT_SC_, symObjAddr: 0x432A8, symBinAddr: 0x10004699C, symSize: 0x14 }
  - { offsetInCU: 0x3CEBA, offset: 0x3CEBA, size: 0x8, addend: 0x0, symName: __ZNSt3__13getB8ue170006ILm0EJRKNS_12basic_stringIcNS_11char_traitsIcEENS_9allocatorIcEEEEEEERNS_13tuple_elementIXT_ENS_5tupleIJDpT0_EEEE4typeERSD_, symObjAddr: 0x436DC, symBinAddr: 0x100046DD0, symSize: 0x24 }
  - { offsetInCU: 0x3CF45, offset: 0x3CF45, size: 0x8, addend: 0x0, symName: __ZNSt3__1neB8ue170006ERKNS_20__map_const_iteratorINS_21__tree_const_iteratorINS_12__value_typeINS_12basic_stringIcNS_11char_traitsIcEENS_9allocatorIcEEEEiEEPNS_11__tree_nodeIS9_PvEElEEEESH_, symObjAddr: 0x43B30, symBinAddr: 0x100047224, symSize: 0x30 }
  - { offsetInCU: 0x3CF82, offset: 0x3CF82, size: 0x8, addend: 0x0, symName: __ZNSt3__1neB8ue170006ERKNS_21__tree_const_iteratorINS_12__value_typeINS_12basic_stringIcNS_11char_traitsIcEENS_9allocatorIcEEEEiEEPNS_11__tree_nodeIS8_PvEElEESF_, symObjAddr: 0x43CD8, symBinAddr: 0x1000473CC, symSize: 0x34 }
  - { offsetInCU: 0x3CFC0, offset: 0x3CFC0, size: 0x8, addend: 0x0, symName: __ZNSt3__1eqB8ue170006ERKNS_21__tree_const_iteratorINS_12__value_typeINS_12basic_stringIcNS_11char_traitsIcEENS_9allocatorIcEEEEiEEPNS_11__tree_nodeIS8_PvEElEESF_, symObjAddr: 0x43D0C, symBinAddr: 0x100047400, symSize: 0x30 }
  - { offsetInCU: 0x3DC3A, offset: 0x3DC3A, size: 0x8, addend: 0x0, symName: __ZSt28__throw_bad_array_new_lengthB8ue170006v, symObjAddr: 0xA2B8, symBinAddr: 0x10000D9DC, symSize: 0x34 }
  - { offsetInCU: 0x3F1BD, offset: 0x3F1BD, size: 0x8, addend: 0x0, symName: __ZNSt3__16vectorIiNS_9allocatorIiEEE26__swap_out_circular_bufferERNS_14__split_bufferIiRS2_EE, symObjAddr: 0x1F0AC, symBinAddr: 0x1000227D0, symSize: 0x110 }
  - { offsetInCU: 0x4069C, offset: 0x4069C, size: 0x8, addend: 0x0, symName: __ZNSt3__16vectorIiNS_9allocatorIiEEE26__swap_out_circular_bufferERNS_14__split_bufferIiRS2_EEPi, symObjAddr: 0x36E58, symBinAddr: 0x10003A57C, symSize: 0x14C }
  - { offsetInCU: 0x41F51, offset: 0x41F51, size: 0x8, addend: 0x0, symName: __Z7toloweri, symObjAddr: 0x9958, symBinAddr: 0x10000D07C, symSize: 0x24 }
  - { offsetInCU: 0x43A4B, offset: 0x43A4B, size: 0x8, addend: 0x0, symName: __Z7Pred1_1RK5Point, symObjAddr: 0x0, symBinAddr: 0x100004368, symSize: 0x5C }
  - { offsetInCU: 0x43A78, offset: 0x43A78, size: 0x8, addend: 0x0, symName: __ZNK5Point4getXEv, symObjAddr: 0x5C, symBinAddr: 0x1000043C4, symSize: 0x18 }
  - { offsetInCU: 0x43A9E, offset: 0x43A9E, size: 0x8, addend: 0x0, symName: __ZNK5Point4getYEv, symObjAddr: 0x74, symBinAddr: 0x1000043DC, symSize: 0x18 }
  - { offsetInCU: 0x43AC3, offset: 0x43AC3, size: 0x8, addend: 0x0, symName: __Z13to_lower_caseRNSt3__112basic_stringIcNS_11char_traitsIcEENS_9allocatorIcEEEE, symObjAddr: 0x8C, symBinAddr: 0x1000043F4, symSize: 0x54 }
  - { offsetInCU: 0x43B0B, offset: 0x43B0B, size: 0x8, addend: 0x0, symName: __ZNSt3__112basic_stringIcNS_11char_traitsIcEENS_9allocatorIcEEE5beginB8ue170006Ev, symObjAddr: 0x16C, symBinAddr: 0x1000044D4, symSize: 0x4C }
  - { offsetInCU: 0x43B31, offset: 0x43B31, size: 0x8, addend: 0x0, symName: __ZNSt3__112basic_stringIcNS_11char_traitsIcEENS_9allocatorIcEEE3endB8ue170006Ev, symObjAddr: 0x1B8, symBinAddr: 0x100004520, symSize: 0x54 }
  - { offsetInCU: 0x43B57, offset: 0x43B57, size: 0x8, addend: 0x0, symName: _main, symObjAddr: 0x20C, symBinAddr: 0x100004574, symSize: 0x329C }
  - { offsetInCU: 0x440E4, offset: 0x440E4, size: 0x8, addend: 0x0, symName: __ZN5PointC1Eii, symObjAddr: 0x34A8, symBinAddr: 0x100007810, symSize: 0x3C }
  - { offsetInCU: 0x4412A, offset: 0x4412A, size: 0x8, addend: 0x0, symName: __ZNSt3__16vectorI5PointNS_9allocatorIS1_EEEC1B8ue170006ESt16initializer_listIS1_E, symObjAddr: 0x34E4, symBinAddr: 0x10000784C, symSize: 0x3C }
  - { offsetInCU: 0x44165, offset: 0x44165, size: 0x8, addend: 0x0, symName: __ZNSt3__15dequeI5PointNS_9allocatorIS1_EEEC1B8ue170006Ev, symObjAddr: 0x3520, symBinAddr: 0x100007888, symSize: 0x2C }
  - { offsetInCU: 0x44195, offset: 0x44195, size: 0x8, addend: 0x0, symName: __ZNSt3__15dequeI5PointNS_9allocatorIS1_EEE6assignINS_11__wrap_iterIPS1_EEEEvT_S9_PNS_9enable_ifIXsr37__has_random_access_iterator_categoryIS9_EE5valueEvE4typeE, symObjAddr: 0x354C, symBinAddr: 0x1000078B4, symSize: 0x5C }
  - { offsetInCU: 0x441F0, offset: 0x441F0, size: 0x8, addend: 0x0, symName: __ZNSt3__16vectorI5PointNS_9allocatorIS1_EEE5beginB8ue170006Ev, symObjAddr: 0x35A8, symBinAddr: 0x100007910, symSize: 0x30 }
  - { offsetInCU: 0x44218, offset: 0x44218, size: 0x8, addend: 0x0, symName: __ZNSt3__16vectorI5PointNS_9allocatorIS1_EEE3endB8ue170006Ev, symObjAddr: 0x35D8, symBinAddr: 0x100007940, symSize: 0x30 }
  - { offsetInCU: 0x4423F, offset: 0x4423F, size: 0x8, addend: 0x0, symName: __Z14printContainerINSt3__15dequeI5PointNS0_9allocatorIS2_EEEEEvRKT_NS0_12basic_stringIcNS0_11char_traitsIcEENS3_IcEEEE, symObjAddr: 0x3608, symBinAddr: 0x100007970, symSize: 0xDC }
  - { offsetInCU: 0x442D7, offset: 0x442D7, size: 0x8, addend: 0x0, symName: __ZNSt3__112basic_stringIcNS_11char_traitsIcEENS_9allocatorIcEEEC1B8ue170006ILi0EEEPKc, symObjAddr: 0x36E4, symBinAddr: 0x100007A4C, symSize: 0x34 }
  - { offsetInCU: 0x44316, offset: 0x44316, size: 0x8, addend: 0x0, symName: __ZNSt3__15dequeI8MyStringNS_9allocatorIS1_EEEC1B8ue170006Ev, symObjAddr: 0x3718, symBinAddr: 0x100007A80, symSize: 0x2C }
  - { offsetInCU: 0x44340, offset: 0x44340, size: 0x8, addend: 0x0, symName: __ZNSt3__15dequeI8MyStringNS_9allocatorIS1_EEE9push_backEOS1_, symObjAddr: 0x3744, symBinAddr: 0x100007AAC, symSize: 0xAC }
  - { offsetInCU: 0x4439F, offset: 0x4439F, size: 0x8, addend: 0x0, symName: __ZNSt3__15dequeI8MyStringNS_9allocatorIS1_EEE12emplace_backIJRA6_KcEEERS1_DpOT_, symObjAddr: 0x37F0, symBinAddr: 0x100007B58, symSize: 0xD0 }
  - { offsetInCU: 0x443F0, offset: 0x443F0, size: 0x8, addend: 0x0, symName: __ZNSt3__15dequeI8MyStringNS_9allocatorIS1_EEE10push_frontEOS1_, symObjAddr: 0x38C0, symBinAddr: 0x100007C28, symSize: 0xBC }
  - { offsetInCU: 0x4444F, offset: 0x4444F, size: 0x8, addend: 0x0, symName: __ZNSt3__15dequeI8MyStringNS_9allocatorIS1_EEE13emplace_frontIJRA7_KcEEERS1_DpOT_, symObjAddr: 0x397C, symBinAddr: 0x100007CE4, symSize: 0xDC }
  - { offsetInCU: 0x444A0, offset: 0x444A0, size: 0x8, addend: 0x0, symName: __ZNSt3__15dequeI8MyStringNS_9allocatorIS1_EEE6insertENS_16__deque_iteratorIS1_PKS1_RS6_PKS7_lLl512EEEOS1_, symObjAddr: 0x3A58, symBinAddr: 0x100007DC0, symSize: 0x474 }
  - { offsetInCU: 0x44590, offset: 0x44590, size: 0x8, addend: 0x0, symName: __ZNSt3__15dequeI8MyStringNS_9allocatorIS1_EEE5beginB8ue170006Ev, symObjAddr: 0x3ECC, symBinAddr: 0x100008234, symSize: 0xB8 }
  - { offsetInCU: 0x445C5, offset: 0x445C5, size: 0x8, addend: 0x0, symName: __ZNKSt3__116__deque_iteratorI8MyStringPS1_RS1_PS2_lLl512EEplB8ue170006El, symObjAddr: 0x3F84, symBinAddr: 0x1000082EC, symSize: 0x40 }
  - { offsetInCU: 0x4460F, offset: 0x4460F, size: 0x8, addend: 0x0, symName: __ZNSt3__116__deque_iteratorI8MyStringPKS1_RS2_PKS3_lLl512EEC1B8ue170006IPS1_RS1_PS9_EERKNS0_IS1_T_T0_T1_lLl512EEEPNS_9enable_ifIXsr14is_convertibleISC_S3_EE5valueEvE4typeE, symObjAddr: 0x3FC4, symBinAddr: 0x10000832C, symSize: 0x3C }
  - { offsetInCU: 0x4466E, offset: 0x4466E, size: 0x8, addend: 0x0, symName: __Z14printContainerINSt3__15dequeI8MyStringNS0_9allocatorIS2_EEEEEvRKT_NS0_12basic_stringIcNS0_11char_traitsIcEENS3_IcEEEE, symObjAddr: 0x4000, symBinAddr: 0x100008368, symSize: 0xDC }
  - { offsetInCU: 0x44700, offset: 0x44700, size: 0x8, addend: 0x0, symName: __ZNSt3__15dequeI8MyStringNS_9allocatorIS1_EEE3endB8ue170006Ev, symObjAddr: 0x4110, symBinAddr: 0x100008478, symSize: 0xBC }
  - { offsetInCU: 0x44744, offset: 0x44744, size: 0x8, addend: 0x0, symName: __ZNKSt3__116__deque_iteratorI8MyStringPS1_RS1_PS2_lLl512EEptB8ue170006Ev, symObjAddr: 0x41CC, symBinAddr: 0x100008534, symSize: 0x18 }
  - { offsetInCU: 0x4476A, offset: 0x4476A, size: 0x8, addend: 0x0, symName: __ZNSt3__15dequeI8MyStringNS_9allocatorIS1_EEE5eraseENS_16__deque_iteratorIS1_PKS1_RS6_PKS7_lLl512EEE, symObjAddr: 0x41E4, symBinAddr: 0x10000854C, symSize: 0x298 }
  - { offsetInCU: 0x4481E, offset: 0x4481E, size: 0x8, addend: 0x0, symName: __ZNSt3__116__deque_iteratorI8MyStringPS1_RS1_PS2_lLl512EEppB8ue170006Ev, symObjAddr: 0x447C, symBinAddr: 0x1000087E4, symSize: 0x70 }
  - { offsetInCU: 0x44844, offset: 0x44844, size: 0x8, addend: 0x0, symName: __ZNSt3__16vectorIiNS_9allocatorIiEEEC1B8ue170006ESt16initializer_listIiE, symObjAddr: 0x44EC, symBinAddr: 0x100008854, symSize: 0x3C }
  - { offsetInCU: 0x4487E, offset: 0x4487E, size: 0x8, addend: 0x0, symName: __Z14printContainerINSt3__16vectorIiNS0_9allocatorIiEEEEEvRKT_NS0_12basic_stringIcNS0_11char_traitsIcEENS2_IcEEEE, symObjAddr: 0x4528, symBinAddr: 0x100008890, symSize: 0xD8 }
  - { offsetInCU: 0x44955, offset: 0x44955, size: 0x8, addend: 0x0, symName: __ZNSt3__15stackIiNS_5dequeIiNS_9allocatorIiEEEEEC1B8ue170006Ev, symObjAddr: 0x4600, symBinAddr: 0x100008968, symSize: 0x2C }
  - { offsetInCU: 0x4497F, offset: 0x4497F, size: 0x8, addend: 0x0, symName: __ZNSt3__16vectorIiNS_9allocatorIiEEE5beginB8ue170006Ev, symObjAddr: 0x462C, symBinAddr: 0x100008994, symSize: 0x30 }
  - { offsetInCU: 0x449A7, offset: 0x449A7, size: 0x8, addend: 0x0, symName: __ZNSt3__16vectorIiNS_9allocatorIiEEE3endB8ue170006Ev, symObjAddr: 0x465C, symBinAddr: 0x1000089C4, symSize: 0x30 }
  - { offsetInCU: 0x449CF, offset: 0x449CF, size: 0x8, addend: 0x0, symName: __ZNKSt3__111__wrap_iterIPiEdeB8ue170006Ev, symObjAddr: 0x46C0, symBinAddr: 0x100008A28, symSize: 0x18 }
  - { offsetInCU: 0x449F5, offset: 0x449F5, size: 0x8, addend: 0x0, symName: __ZNSt3__15stackIiNS_5dequeIiNS_9allocatorIiEEEEE4pushB8ue170006ERKi, symObjAddr: 0x46D8, symBinAddr: 0x100008A40, symSize: 0x2C }
  - { offsetInCU: 0x44A2A, offset: 0x44A2A, size: 0x8, addend: 0x0, symName: __ZNSt3__111__wrap_iterIPiEppB8ue170006Ev, symObjAddr: 0x4704, symBinAddr: 0x100008A6C, symSize: 0x20 }
  - { offsetInCU: 0x44A4F, offset: 0x44A4F, size: 0x8, addend: 0x0, symName: __Z12printAdapterINSt3__15stackIiNS0_5dequeIiNS0_9allocatorIiEEEEEEEvT_RKNS0_12basic_stringIcNS0_11char_traitsIcEENS3_IcEEEE, symObjAddr: 0x4724, symBinAddr: 0x100008A8C, symSize: 0x11C }
  - { offsetInCU: 0x44ABA, offset: 0x44ABA, size: 0x8, addend: 0x0, symName: __ZNSt3__15stackIiNS_5dequeIiNS_9allocatorIiEEEEEC1B8ue170006ERKS5_, symObjAddr: 0x4840, symBinAddr: 0x100008BA8, symSize: 0x34 }
  - { offsetInCU: 0x44AF2, offset: 0x44AF2, size: 0x8, addend: 0x0, symName: __ZNSt3__15stackIiNS_5dequeIiNS_9allocatorIiEEEEED1Ev, symObjAddr: 0x4874, symBinAddr: 0x100008BDC, symSize: 0x2C }
  - { offsetInCU: 0x44B63, offset: 0x44B63, size: 0x8, addend: 0x0, symName: __ZNSt3__15queueIiNS_5dequeIiNS_9allocatorIiEEEEEC1B8ue170006Ev, symObjAddr: 0x48A0, symBinAddr: 0x100008C08, symSize: 0x2C }
  - { offsetInCU: 0x44B8D, offset: 0x44B8D, size: 0x8, addend: 0x0, symName: __ZNSt3__15queueIiNS_5dequeIiNS_9allocatorIiEEEEE4pushB8ue170006ERKi, symObjAddr: 0x48CC, symBinAddr: 0x100008C34, symSize: 0x2C }
  - { offsetInCU: 0x44BC1, offset: 0x44BC1, size: 0x8, addend: 0x0, symName: __Z12printAdapterINSt3__15queueIiNS0_5dequeIiNS0_9allocatorIiEEEEEEEvT_RKNS0_12basic_stringIcNS0_11char_traitsIcEENS3_IcEEEE, symObjAddr: 0x48F8, symBinAddr: 0x100008C60, symSize: 0x11C }
  - { offsetInCU: 0x44C2C, offset: 0x44C2C, size: 0x8, addend: 0x0, symName: __ZNSt3__15queueIiNS_5dequeIiNS_9allocatorIiEEEEEC1B8ue170006ERKS5_, symObjAddr: 0x4A14, symBinAddr: 0x100008D7C, symSize: 0x34 }
  - { offsetInCU: 0x44C65, offset: 0x44C65, size: 0x8, addend: 0x0, symName: __ZNSt3__15queueIiNS_5dequeIiNS_9allocatorIiEEEEED1Ev, symObjAddr: 0x4A48, symBinAddr: 0x100008DB0, symSize: 0x2C }
  - { offsetInCU: 0x44CE2, offset: 0x44CE2, size: 0x8, addend: 0x0, symName: __ZNSt3__114priority_queueIiNS_6vectorIiNS_9allocatorIiEEEENS_4lessIiEEEC1B8ue170006Ev, symObjAddr: 0x4A74, symBinAddr: 0x100008DDC, symSize: 0x2C }
  - { offsetInCU: 0x44D0C, offset: 0x44D0C, size: 0x8, addend: 0x0, symName: __ZNSt3__114priority_queueIiNS_6vectorIiNS_9allocatorIiEEEENS_4lessIiEEE4pushERKi, symObjAddr: 0x4AA0, symBinAddr: 0x100008E08, symSize: 0x58 }
  - { offsetInCU: 0x44D42, offset: 0x44D42, size: 0x8, addend: 0x0, symName: __Z12printAdapterINSt3__114priority_queueIiNS0_6vectorIiNS0_9allocatorIiEEEENS0_4lessIiEEEEEvT_RKNS0_12basic_stringIcNS0_11char_traitsIcEENS3_IcEEEE, symObjAddr: 0x4AF8, symBinAddr: 0x100008E60, symSize: 0x11C }
  - { offsetInCU: 0x44DAD, offset: 0x44DAD, size: 0x8, addend: 0x0, symName: __ZNSt3__114priority_queueIiNS_6vectorIiNS_9allocatorIiEEEENS_4lessIiEEEC1B8ue170006ERKS7_, symObjAddr: 0x4C14, symBinAddr: 0x100008F7C, symSize: 0x34 }
  - { offsetInCU: 0x44DE6, offset: 0x44DE6, size: 0x8, addend: 0x0, symName: __ZNSt3__114priority_queueIiNS_6vectorIiNS_9allocatorIiEEEENS_4lessIiEEED1Ev, symObjAddr: 0x4C48, symBinAddr: 0x100008FB0, symSize: 0x2C }
  - { offsetInCU: 0x44E13, offset: 0x44E13, size: 0x8, addend: 0x0, symName: __ZNSt3__15stackIiNS_5dequeIiNS_9allocatorIiEEEEE4pushB8ue170006EOi, symObjAddr: 0x4C74, symBinAddr: 0x100008FDC, symSize: 0x2C }
  - { offsetInCU: 0x44E48, offset: 0x44E48, size: 0x8, addend: 0x0, symName: __ZNSt3__113basic_ostreamIcNS_11char_traitsIcEEElsB8ue170006EPFRS3_S4_E, symObjAddr: 0x4D18, symBinAddr: 0x100009038, symSize: 0x2C }
  - { offsetInCU: 0x44E7C, offset: 0x44E7C, size: 0x8, addend: 0x0, symName: __ZNKSt3__15stackIiNS_5dequeIiNS_9allocatorIiEEEEE4sizeB8ue170006Ev, symObjAddr: 0x4DCC, symBinAddr: 0x1000090EC, symSize: 0x24 }
  - { offsetInCU: 0x44EA2, offset: 0x44EA2, size: 0x8, addend: 0x0, symName: __ZNSt3__15dequeIP5PointNS_9allocatorIS2_EEEC1B8ue170006Ev, symObjAddr: 0x4DF0, symBinAddr: 0x100009110, symSize: 0x2C }
  - { offsetInCU: 0x44ECC, offset: 0x44ECC, size: 0x8, addend: 0x0, symName: __ZNSt3__15dequeIP5PointNS_9allocatorIS2_EEE9push_backEOS2_, symObjAddr: 0x4E1C, symBinAddr: 0x10000913C, symSize: 0xAC }
  - { offsetInCU: 0x44F57, offset: 0x44F57, size: 0x8, addend: 0x0, symName: __ZNSt3__15queueIP5PointNS_5dequeIS2_NS_9allocatorIS2_EEEEEC1B8ue170006ERKS6_, symObjAddr: 0x4EC8, symBinAddr: 0x1000091E8, symSize: 0x34 }
  - { offsetInCU: 0x44F8F, offset: 0x44F8F, size: 0x8, addend: 0x0, symName: __Z12printAdapterINSt3__15queueIP5PointNS0_5dequeIS3_NS0_9allocatorIS3_EEEEEEEvT_RKNS0_12basic_stringIcNS0_11char_traitsIcEENS5_IcEEEE, symObjAddr: 0x4EFC, symBinAddr: 0x10000921C, symSize: 0x1B4 }
  - { offsetInCU: 0x44FF3, offset: 0x44FF3, size: 0x8, addend: 0x0, symName: __ZNSt3__15queueIP5PointNS_5dequeIS2_NS_9allocatorIS2_EEEEEC1B8ue170006ERKS7_, symObjAddr: 0x50B0, symBinAddr: 0x1000093D0, symSize: 0x34 }
  - { offsetInCU: 0x4502C, offset: 0x4502C, size: 0x8, addend: 0x0, symName: __ZNSt3__15queueIP5PointNS_5dequeIS2_NS_9allocatorIS2_EEEEED1Ev, symObjAddr: 0x50E4, symBinAddr: 0x100009404, symSize: 0x2C }
  - { offsetInCU: 0x45059, offset: 0x45059, size: 0x8, addend: 0x0, symName: __ZNSt3__15queueIP5PointNS_5dequeIS2_NS_9allocatorIS2_EEEEE5frontB8ue170006Ev, symObjAddr: 0x5110, symBinAddr: 0x100009430, symSize: 0x24 }
  - { offsetInCU: 0x4507F, offset: 0x4507F, size: 0x8, addend: 0x0, symName: __ZN5Point4setXEi, symObjAddr: 0x5134, symBinAddr: 0x100009454, symSize: 0x20 }
  - { offsetInCU: 0x450B3, offset: 0x450B3, size: 0x8, addend: 0x0, symName: __ZN5Point4setYEi, symObjAddr: 0x5154, symBinAddr: 0x100009474, symSize: 0x20 }
  - { offsetInCU: 0x450E7, offset: 0x450E7, size: 0x8, addend: 0x0, symName: __ZNSt3__15queueIP5PointNS_5dequeIS2_NS_9allocatorIS2_EEEEE4backB8ue170006Ev, symObjAddr: 0x5174, symBinAddr: 0x100009494, symSize: 0x24 }
  - { offsetInCU: 0x4510D, offset: 0x4510D, size: 0x8, addend: 0x0, symName: __ZNKSt3__15queueIP5PointNS_5dequeIS2_NS_9allocatorIS2_EEEEE5emptyB8ue170006Ev, symObjAddr: 0x5198, symBinAddr: 0x1000094B8, symSize: 0x28 }
  - { offsetInCU: 0x45133, offset: 0x45133, size: 0x8, addend: 0x0, symName: __ZNSt3__15queueIP5PointNS_5dequeIS2_NS_9allocatorIS2_EEEEE3popB8ue170006Ev, symObjAddr: 0x51C0, symBinAddr: 0x1000094E0, symSize: 0x24 }
  - { offsetInCU: 0x45159, offset: 0x45159, size: 0x8, addend: 0x0, symName: __ZNSt3__15dequeIP5PointNS_9allocatorIS2_EEED1B8ue170006Ev, symObjAddr: 0x51E4, symBinAddr: 0x100009504, symSize: 0x2C }
  - { offsetInCU: 0x451D3, offset: 0x451D3, size: 0x8, addend: 0x0, symName: __ZNSt3__114priority_queueIPKcNS_6vectorIS2_NS_9allocatorIS2_EEEENS_4lessIS2_EEEC1IPS2_vEET_SC_RKS8_, symObjAddr: 0x5210, symBinAddr: 0x100009530, symSize: 0x44 }
  - { offsetInCU: 0x45235, offset: 0x45235, size: 0x8, addend: 0x0, symName: __Z12printAdapterINSt3__114priority_queueIPKcNS0_6vectorIS3_NS0_9allocatorIS3_EEEENS0_4lessIS3_EEEEEvT_RKNS0_12basic_stringIcNS0_11char_traitsIcEENS5_IcEEEE, symObjAddr: 0x5254, symBinAddr: 0x100009574, symSize: 0x1B8 }
  - { offsetInCU: 0x45299, offset: 0x45299, size: 0x8, addend: 0x0, symName: __ZNSt3__114priority_queueIPKcNS_6vectorIS2_NS_9allocatorIS2_EEEENS_4lessIS2_EEEC1B8ue170006ERKS9_, symObjAddr: 0x540C, symBinAddr: 0x10000972C, symSize: 0x34 }
  - { offsetInCU: 0x452D2, offset: 0x452D2, size: 0x8, addend: 0x0, symName: __ZNSt3__114priority_queueIPKcNS_6vectorIS2_NS_9allocatorIS2_EEEENS_4lessIS2_EEED1Ev, symObjAddr: 0x5440, symBinAddr: 0x100009760, symSize: 0x2C }
  - { offsetInCU: 0x4534F, offset: 0x4534F, size: 0x8, addend: 0x0, symName: '__ZNSt3__114priority_queueIPKcNS_6vectorIS2_NS_9allocatorIS2_EEEEZ4mainE3$_1EC1IPS2_vEET_SB_RKS7_', symObjAddr: 0x546C, symBinAddr: 0x10000978C, symSize: 0x44 }
  - { offsetInCU: 0x453B1, offset: 0x453B1, size: 0x8, addend: 0x0, symName: '__Z12printAdapterINSt3__114priority_queueIPKcNS0_6vectorIS3_NS0_9allocatorIS3_EEEEZ4mainE3$_1EEEvT_RKNS0_12basic_stringIcNS0_11char_traitsIcEENS5_IcEEEE', symObjAddr: 0x54B0, symBinAddr: 0x1000097D0, symSize: 0x1B8 }
  - { offsetInCU: 0x45415, offset: 0x45415, size: 0x8, addend: 0x0, symName: '__ZNSt3__114priority_queueIPKcNS_6vectorIS2_NS_9allocatorIS2_EEEEZ4mainE3$_1EC1B8ue170006ERKS8_', symObjAddr: 0x5668, symBinAddr: 0x100009988, symSize: 0x34 }
  - { offsetInCU: 0x4544E, offset: 0x4544E, size: 0x8, addend: 0x0, symName: '__ZNSt3__114priority_queueIPKcNS_6vectorIS2_NS_9allocatorIS2_EEEEZ4mainE3$_1ED1Ev', symObjAddr: 0x569C, symBinAddr: 0x1000099BC, symSize: 0x2C }
  - { offsetInCU: 0x4547B, offset: 0x4547B, size: 0x8, addend: 0x0, symName: __ZNSt3__13setI5PointNS_4lessIS1_EENS_9allocatorIS1_EEEC1B8ue170006Ev, symObjAddr: 0x56C8, symBinAddr: 0x1000099E8, symSize: 0x2C }
  - { offsetInCU: 0x454A5, offset: 0x454A5, size: 0x8, addend: 0x0, symName: __ZNSt3__13setI5PointNS_4lessIS1_EENS_9allocatorIS1_EEE6insertB8ue170006EOS1_, symObjAddr: 0x56F4, symBinAddr: 0x100009A14, symSize: 0x4C }
  - { offsetInCU: 0x454D9, offset: 0x454D9, size: 0x8, addend: 0x0, symName: __Z14printContainerINSt3__13setI5PointNS0_4lessIS2_EENS0_9allocatorIS2_EEEEEvRKT_NS0_12basic_stringIcNS0_11char_traitsIcEENS5_IcEEEE, symObjAddr: 0x5740, symBinAddr: 0x100009A60, symSize: 0xD4 }
  - { offsetInCU: 0x4567F, offset: 0x4567F, size: 0x8, addend: 0x0, symName: __ZNSt3__13setIiNS_4lessIiEENS_9allocatorIiEEEC1B8ue170006ESt16initializer_listIiERKS2_, symObjAddr: 0x5814, symBinAddr: 0x100009B34, symSize: 0x44 }
  - { offsetInCU: 0x456C7, offset: 0x456C7, size: 0x8, addend: 0x0, symName: __ZNSt3__13setIiNS_4lessIiEENS_9allocatorIiEEEC1B8ue170006Ev, symObjAddr: 0x5858, symBinAddr: 0x100009B78, symSize: 0x2C }
  - { offsetInCU: 0x456F1, offset: 0x456F1, size: 0x8, addend: 0x0, symName: __ZNSt3__13setIiNS_4lessIiEENS_9allocatorIiEEE6insertB8ue170006INS_11__wrap_iterIPiEEEEvT_SA_, symObjAddr: 0x5884, symBinAddr: 0x100009BA4, symSize: 0x80 }
  - { offsetInCU: 0x4575A, offset: 0x4575A, size: 0x8, addend: 0x0, symName: __Z14printContainerINSt3__13setIiNS0_4lessIiEENS0_9allocatorIiEEEEEvRKT_NS0_12basic_stringIcNS0_11char_traitsIcEENS4_IcEEEE, symObjAddr: 0x5904, symBinAddr: 0x100009C24, symSize: 0xD8 }
  - { offsetInCU: 0x45847, offset: 0x45847, size: 0x8, addend: 0x0, symName: __ZNSt3__18multisetIiNS_4lessIiEENS_9allocatorIiEEEC1B8ue170006ESt16initializer_listIiERKS2_, symObjAddr: 0x59DC, symBinAddr: 0x100009CFC, symSize: 0x44 }
  - { offsetInCU: 0x4588F, offset: 0x4588F, size: 0x8, addend: 0x0, symName: __ZNSt3__18multisetIiNS_4lessIiEENS_9allocatorIiEEE6insertB8ue170006EOi, symObjAddr: 0x5A20, symBinAddr: 0x100009D40, symSize: 0x40 }
  - { offsetInCU: 0x458C3, offset: 0x458C3, size: 0x8, addend: 0x0, symName: __Z14printContainerINSt3__18multisetIiNS0_4lessIiEENS0_9allocatorIiEEEEEvRKT_NS0_12basic_stringIcNS0_11char_traitsIcEENS4_IcEEEE, symObjAddr: 0x5A60, symBinAddr: 0x100009D80, symSize: 0xD8 }
  - { offsetInCU: 0x45955, offset: 0x45955, size: 0x8, addend: 0x0, symName: __ZNSt3__18multisetIiNS_4lessIiEENS_9allocatorIiEEED1B8ue170006Ev, symObjAddr: 0x5B38, symBinAddr: 0x100009E58, symSize: 0x2C }
  - { offsetInCU: 0x4597F, offset: 0x4597F, size: 0x8, addend: 0x0, symName: __ZNSt3__13mapIPKciNS_4lessIS2_EENS_9allocatorINS_4pairIKS2_iEEEEEC1B8ue170006Ev, symObjAddr: 0x5B64, symBinAddr: 0x100009E84, symSize: 0x2C }
  - { offsetInCU: 0x459A9, offset: 0x459A9, size: 0x8, addend: 0x0, symName: __ZNSt3__13mapIPKciNS_4lessIS2_EENS_9allocatorINS_4pairIKS2_iEEEEEixEOS2_, symObjAddr: 0x5B90, symBinAddr: 0x100009EB0, symSize: 0x80 }
  - { offsetInCU: 0x459FD, offset: 0x459FD, size: 0x8, addend: 0x0, symName: __ZNSt3__13mapIPKciNS_4lessIS2_EENS_9allocatorINS_4pairIKS2_iEEEEE6insertB8ue170006INS6_IS2_iEEvEENS6_INS_14__map_iteratorINS_15__tree_iteratorINS_12__value_typeIS2_iEEPNS_11__tree_nodeISG_PvEElEEEEbEEOT_, symObjAddr: 0x5C10, symBinAddr: 0x100009F30, symSize: 0x4C }
  - { offsetInCU: 0x45A3C, offset: 0x45A3C, size: 0x8, addend: 0x0, symName: __ZNSt3__13mapIPKciNS_4lessIS2_EENS_9allocatorINS_4pairIKS2_iEEEEE6insertB8ue170006EOS8_, symObjAddr: 0x5C94, symBinAddr: 0x100009FB4, symSize: 0x4C }
  - { offsetInCU: 0x45A8A, offset: 0x45A8A, size: 0x8, addend: 0x0, symName: __ZNSt3__14pairIKPKciEC1B8ue170006IRA3_S1_iLPv0EEEOT_OT0_, symObjAddr: 0x5CE0, symBinAddr: 0x10000A000, symSize: 0x3C }
  - { offsetInCU: 0x45AE8, offset: 0x45AE8, size: 0x8, addend: 0x0, symName: __ZNSt3__13mapIPKciNS_4lessIS2_EENS_9allocatorINS_4pairIKS2_iEEEEE5eraseB8ue170006ERS7_, symObjAddr: 0x5D1C, symBinAddr: 0x10000A03C, symSize: 0x2C }
  - { offsetInCU: 0x45B1C, offset: 0x45B1C, size: 0x8, addend: 0x0, symName: __Z8printMapINSt3__13mapIPKciNS0_4lessIS3_EENS0_9allocatorINS0_4pairIKS3_iEEEEEEEvRKT_, symObjAddr: 0x5D48, symBinAddr: 0x10000A068, symSize: 0xC8 }
  - { offsetInCU: 0x45B9F, offset: 0x45B9F, size: 0x8, addend: 0x0, symName: __ZNSt3__13mapIPKciNS_4lessIS2_EENS_9allocatorINS_4pairIKS2_iEEEEED1B8ue170006Ev, symObjAddr: 0x5E10, symBinAddr: 0x10000A130, symSize: 0x2C }
  - { offsetInCU: 0x45BFB, offset: 0x45BFB, size: 0x8, addend: 0x0, symName: __ZNSt3__14pairIKNS_12basic_stringIcNS_11char_traitsIcEENS_9allocatorIcEEEES6_EC1B8ue170006IRA8_KcRA11_SA_LPv0EEEOT_OT0_, symObjAddr: 0x5E3C, symBinAddr: 0x10000A15C, symSize: 0x3C }
  - { offsetInCU: 0x45C72, offset: 0x45C72, size: 0x8, addend: 0x0, symName: __ZNSt3__14pairIKNS_12basic_stringIcNS_11char_traitsIcEENS_9allocatorIcEEEES6_EC1B8ue170006IRA5_KcRA11_SA_LPv0EEEOT_OT0_, symObjAddr: 0x5E78, symBinAddr: 0x10000A198, symSize: 0x3C }
  - { offsetInCU: 0x45CE9, offset: 0x45CE9, size: 0x8, addend: 0x0, symName: __ZNSt3__14pairIKNS_12basic_stringIcNS_11char_traitsIcEENS_9allocatorIcEEEES6_EC1B8ue170006IRA8_KcRA17_SA_LPv0EEEOT_OT0_, symObjAddr: 0x5EB4, symBinAddr: 0x10000A1D4, symSize: 0x3C }
  - { offsetInCU: 0x45D60, offset: 0x45D60, size: 0x8, addend: 0x0, symName: __ZNSt3__14pairIKNS_12basic_stringIcNS_11char_traitsIcEENS_9allocatorIcEEEES6_EC1B8ue170006IRA5_KcRA23_SA_LPv0EEEOT_OT0_, symObjAddr: 0x5EF0, symBinAddr: 0x10000A210, symSize: 0x3C }
  - { offsetInCU: 0x45DD7, offset: 0x45DD7, size: 0x8, addend: 0x0, symName: __ZNSt3__14pairIKNS_12basic_stringIcNS_11char_traitsIcEENS_9allocatorIcEEEES6_EC1B8ue170006IRA5_KcRA9_SA_LPv0EEEOT_OT0_, symObjAddr: 0x5F2C, symBinAddr: 0x10000A24C, symSize: 0x3C }
  - { offsetInCU: 0x45E4E, offset: 0x45E4E, size: 0x8, addend: 0x0, symName: __ZNSt3__14pairIKNS_12basic_stringIcNS_11char_traitsIcEENS_9allocatorIcEEEES6_EC1B8ue170006IRA5_KcRA19_SA_LPv0EEEOT_OT0_, symObjAddr: 0x5F68, symBinAddr: 0x10000A288, symSize: 0x3C }
  - { offsetInCU: 0x45EAC, offset: 0x45EAC, size: 0x8, addend: 0x0, symName: __ZNSt3__14pairIKNS_12basic_stringIcNS_11char_traitsIcEENS_9allocatorIcEEEES6_ED1Ev, symObjAddr: 0x5FA4, symBinAddr: 0x10000A2C4, symSize: 0x2C }
  - { offsetInCU: 0x45ED8, offset: 0x45ED8, size: 0x8, addend: 0x0, symName: __ZNSt3__18multimapINS_12basic_stringIcNS_11char_traitsIcEENS_9allocatorIcEEEES6_NS_4lessIS6_EENS4_INS_4pairIKS6_S6_EEEEEC1B8ue170006ESt16initializer_listISB_ERKS8_, symObjAddr: 0x5FD0, symBinAddr: 0x10000A2F0, symSize: 0x44 }
  - { offsetInCU: 0x45F20, offset: 0x45F20, size: 0x8, addend: 0x0, symName: __ZNSt3__18multimapINS_12basic_stringIcNS_11char_traitsIcEENS_9allocatorIcEEEES6_NS_4lessIS6_EENS4_INS_4pairIKS6_S6_EEEEE6insertB8ue170006EOSB_, symObjAddr: 0x6014, symBinAddr: 0x10000A334, symSize: 0x40 }
  - { offsetInCU: 0x45F72, offset: 0x45F72, size: 0x8, addend: 0x0, symName: __ZNSt3__18multimapINS_12basic_stringIcNS_11char_traitsIcEENS_9allocatorIcEEEES6_NS_4lessIS6_EENS4_INS_4pairIKS6_S6_EEEEE6insertB8ue170006INS9_IPKcSG_EEvEENS_14__map_iteratorINS_15__tree_iteratorINS_12__value_typeIS6_S6_EEPNS_11__tree_nodeISL_PvEElEEEEOT_, symObjAddr: 0x6054, symBinAddr: 0x10000A374, symSize: 0x40 }
  - { offsetInCU: 0x45FB1, offset: 0x45FB1, size: 0x8, addend: 0x0, symName: __ZNSt3__18multimapINS_12basic_stringIcNS_11char_traitsIcEENS_9allocatorIcEEEES6_NS_4lessIS6_EENS4_INS_4pairIKS6_S6_EEEEE5beginB8ue170006Ev, symObjAddr: 0x60DC, symBinAddr: 0x10000A3FC, symSize: 0x38 }
  - { offsetInCU: 0x45FD7, offset: 0x45FD7, size: 0x8, addend: 0x0, symName: __ZNSt3__18multimapINS_12basic_stringIcNS_11char_traitsIcEENS_9allocatorIcEEEES6_NS_4lessIS6_EENS4_INS_4pairIKS6_S6_EEEEE3endB8ue170006Ev, symObjAddr: 0x6114, symBinAddr: 0x10000A434, symSize: 0x38 }
  - { offsetInCU: 0x45FFD, offset: 0x45FFD, size: 0x8, addend: 0x0, symName: __ZNKSt3__114__map_iteratorINS_15__tree_iteratorINS_12__value_typeINS_12basic_stringIcNS_11char_traitsIcEENS_9allocatorIcEEEES8_EEPNS_11__tree_nodeIS9_PvEElEEEdeB8ue170006Ev, symObjAddr: 0x617C, symBinAddr: 0x10000A49C, symSize: 0x28 }
  - { offsetInCU: 0x46023, offset: 0x46023, size: 0x8, addend: 0x0, symName: __ZNSt3__114__map_iteratorINS_15__tree_iteratorINS_12__value_typeINS_12basic_stringIcNS_11char_traitsIcEENS_9allocatorIcEEEES8_EEPNS_11__tree_nodeIS9_PvEElEEEppB8ue170006Ev, symObjAddr: 0x61F0, symBinAddr: 0x10000A510, symSize: 0x2C }
  - { offsetInCU: 0x46049, offset: 0x46049, size: 0x8, addend: 0x0, symName: __ZNSt3__18multimapINS_12basic_stringIcNS_11char_traitsIcEENS_9allocatorIcEEEES6_NS_4lessIS6_EENS4_INS_4pairIKS6_S6_EEEEE11equal_rangeB8ue170006ERSA_, symObjAddr: 0x621C, symBinAddr: 0x10000A53C, symSize: 0x4C }
  - { offsetInCU: 0x4607E, offset: 0x4607E, size: 0x8, addend: 0x0, symName: __ZNKSt3__114__map_iteratorINS_15__tree_iteratorINS_12__value_typeINS_12basic_stringIcNS_11char_traitsIcEENS_9allocatorIcEEEES8_EEPNS_11__tree_nodeIS9_PvEElEEEptB8ue170006Ev, symObjAddr: 0x6268, symBinAddr: 0x10000A588, symSize: 0x2C }
  - { offsetInCU: 0x460A4, offset: 0x460A4, size: 0x8, addend: 0x0, symName: __ZNSt3__18multimapINS_12basic_stringIcNS_11char_traitsIcEENS_9allocatorIcEEEES6_NS_4lessIS6_EENS4_INS_4pairIKS6_S6_EEEEED1B8ue170006Ev, symObjAddr: 0x6294, symBinAddr: 0x10000A5B4, symSize: 0x2C }
  - { offsetInCU: 0x460CE, offset: 0x460CE, size: 0x8, addend: 0x0, symName: __ZNSt3__13setI5PointNS_4lessIS1_EENS_9allocatorIS1_EEEC1B8ue170006ESt16initializer_listIS1_ERKS3_, symObjAddr: 0x62C0, symBinAddr: 0x10000A5E0, symSize: 0x44 }
  - { offsetInCU: 0x46116, offset: 0x46116, size: 0x8, addend: 0x0, symName: __ZNSt3__13setI5PointNS_4lessIS1_EENS_9allocatorIS1_EEE6rbeginB8ue170006Ev, symObjAddr: 0x6304, symBinAddr: 0x10000A624, symSize: 0x44 }
  - { offsetInCU: 0x4613C, offset: 0x4613C, size: 0x8, addend: 0x0, symName: __ZNSt3__13setI5PointNS_4lessIS1_EENS_9allocatorIS1_EEE4rendB8ue170006Ev, symObjAddr: 0x6348, symBinAddr: 0x10000A668, symSize: 0x44 }
  - { offsetInCU: 0x46162, offset: 0x46162, size: 0x8, addend: 0x0, symName: __ZNSt3__16vectorI5PointNS_9allocatorIS1_EEEC1INS_16reverse_iteratorINS_21__tree_const_iteratorIS1_PNS_11__tree_nodeIS1_PvEElEEEELi0EEET_SE_, symObjAddr: 0x638C, symBinAddr: 0x10000A6AC, symSize: 0x4C }
  - { offsetInCU: 0x461BA, offset: 0x461BA, size: 0x8, addend: 0x0, symName: __Z14printContainerINSt3__16vectorI5PointNS0_9allocatorIS2_EEEEEvRKT_NS0_12basic_stringIcNS0_11char_traitsIcEENS3_IcEEEE, symObjAddr: 0x63D8, symBinAddr: 0x10000A6F8, symSize: 0xD4 }
  - { offsetInCU: 0x4626F, offset: 0x4626F, size: 0x8, addend: 0x0, symName: __ZNSt3__116ostream_iteratorI5PointcNS_11char_traitsIcEEEC1B8ue170006ERNS_13basic_ostreamIcS3_EEPKc, symObjAddr: 0x64AC, symBinAddr: 0x10000A7CC, symSize: 0x3C }
  - { offsetInCU: 0x462B5, offset: 0x462B5, size: 0x8, addend: 0x0, symName: __ZNSt3__13setI5PointNS_4lessIS1_EENS_9allocatorIS1_EEE5beginB8ue170006Ev, symObjAddr: 0x65C8, symBinAddr: 0x10000A8E8, symSize: 0x38 }
  - { offsetInCU: 0x462DB, offset: 0x462DB, size: 0x8, addend: 0x0, symName: __ZNSt3__13setI5PointNS_4lessIS1_EENS_9allocatorIS1_EEE3endB8ue170006Ev, symObjAddr: 0x6600, symBinAddr: 0x10000A920, symSize: 0x38 }
  - { offsetInCU: 0x46301, offset: 0x46301, size: 0x8, addend: 0x0, symName: __ZNSt3__15dequeIiNS_9allocatorIiEEEC1B8ue170006Ev, symObjAddr: 0x6638, symBinAddr: 0x10000A958, symSize: 0x2C }
  - { offsetInCU: 0x4632B, offset: 0x4632B, size: 0x8, addend: 0x0, symName: __ZNSt3__14listIiNS_9allocatorIiEEEC1B8ue170006Ev, symObjAddr: 0x6664, symBinAddr: 0x10000A984, symSize: 0x2C }
  - { offsetInCU: 0x46355, offset: 0x46355, size: 0x8, addend: 0x0, symName: __ZNSt3__16vectorIiNS_9allocatorIiEEEC1B8ue170006Ev, symObjAddr: 0x6690, symBinAddr: 0x10000A9B0, symSize: 0x2C }
  - { offsetInCU: 0x46471, offset: 0x46471, size: 0x8, addend: 0x0, symName: __ZNSt3__14listINS_12basic_stringIcNS_11char_traitsIcEENS_9allocatorIcEEEENS4_IS6_EEEC1ESt16initializer_listIS6_E, symObjAddr: 0x6884, symBinAddr: 0x10000ABA4, symSize: 0x3C }
  - { offsetInCU: 0x464AB, offset: 0x464AB, size: 0x8, addend: 0x0, symName: __Z5printIiEvRKT_, symObjAddr: 0x6928, symBinAddr: 0x10000AC48, symSize: 0x3C }
  - { offsetInCU: 0x464DD, offset: 0x464DD, size: 0x8, addend: 0x0, symName: __ZNSt3__14listINS_12basic_stringIcNS_11char_traitsIcEENS_9allocatorIcEEEENS4_IS6_EEE5beginB8ue170006Ev, symObjAddr: 0x69CC, symBinAddr: 0x10000ACEC, symSize: 0x2C }
  - { offsetInCU: 0x46503, offset: 0x46503, size: 0x8, addend: 0x0, symName: __ZNSt3__14listINS_12basic_stringIcNS_11char_traitsIcEENS_9allocatorIcEEEENS4_IS6_EEE3endB8ue170006Ev, symObjAddr: 0x69F8, symBinAddr: 0x10000AD18, symSize: 0x2C }
  - { offsetInCU: 0x46528, offset: 0x46528, size: 0x8, addend: 0x0, symName: __Z5printINSt3__112basic_stringIcNS0_11char_traitsIcEENS0_9allocatorIcEEEEEvRKT_, symObjAddr: 0x6A24, symBinAddr: 0x10000AD44, symSize: 0x38 }
  - { offsetInCU: 0x465BC, offset: 0x465BC, size: 0x8, addend: 0x0, symName: __ZN13PointModifierC1Eii, symObjAddr: 0x6AC8, symBinAddr: 0x10000ADE8, symSize: 0x3C }
  - { offsetInCU: 0x46601, offset: 0x46601, size: 0x8, addend: 0x0, symName: __Z5printI5PointEvRKT_, symObjAddr: 0x6B6C, symBinAddr: 0x10000AE8C, symSize: 0x38 }
  - { offsetInCU: 0x46633, offset: 0x46633, size: 0x8, addend: 0x0, symName: __ZNSt3__111__wrap_iterIP5PointEppB8ue170006Ev, symObjAddr: 0x6C8C, symBinAddr: 0x10000AFAC, symSize: 0x20 }
  - { offsetInCU: 0x46659, offset: 0x46659, size: 0x8, addend: 0x0, symName: __ZNKSt3__111__wrap_iterIP5PointEptB8ue170006Ev, symObjAddr: 0x6D64, symBinAddr: 0x10000B084, symSize: 0x28 }
  - { offsetInCU: 0x4667F, offset: 0x4667F, size: 0x8, addend: 0x0, symName: __ZNSt3__16vectorI4RectNS_9allocatorIS1_EEEC1B8ue170006ESt16initializer_listIS1_E, symObjAddr: 0x6DB8, symBinAddr: 0x10000B0AC, symSize: 0x3C }
  - { offsetInCU: 0x466B9, offset: 0x466B9, size: 0x8, addend: 0x0, symName: __Z14printContainerINSt3__16vectorI4RectNS0_9allocatorIS2_EEEEEvRKT_NS0_12basic_stringIcNS0_11char_traitsIcEENS3_IcEEEE, symObjAddr: 0x6DF4, symBinAddr: 0x10000B0E8, symSize: 0xD4 }
  - { offsetInCU: 0x4674B, offset: 0x4674B, size: 0x8, addend: 0x0, symName: __ZNSt3__16vectorI4RectNS_9allocatorIS1_EEE5beginB8ue170006Ev, symObjAddr: 0x6F08, symBinAddr: 0x10000B1FC, symSize: 0x30 }
  - { offsetInCU: 0x46773, offset: 0x46773, size: 0x8, addend: 0x0, symName: __ZNSt3__16vectorI4RectNS_9allocatorIS1_EEE3endB8ue170006Ev, symObjAddr: 0x6F38, symBinAddr: 0x10000B22C, symSize: 0x30 }
  - { offsetInCU: 0x468AF, offset: 0x468AF, size: 0x8, addend: 0x0, symName: __ZNSt3__13setINS_12basic_stringIcNS_11char_traitsIcEENS_9allocatorIcEEEENS_4lessIS6_EENS4_IS6_EEEC1B8ue170006Ev, symObjAddr: 0x6F68, symBinAddr: 0x10000B25C, symSize: 0x2C }
  - { offsetInCU: 0x468D9, offset: 0x468D9, size: 0x8, addend: 0x0, symName: __ZNSt3__13setINS_12basic_stringIcNS_11char_traitsIcEENS_9allocatorIcEEEENS_4lessIS6_EENS4_IS6_EEE5beginB8ue170006Ev, symObjAddr: 0x709C, symBinAddr: 0x10000B390, symSize: 0x38 }
  - { offsetInCU: 0x468FF, offset: 0x468FF, size: 0x8, addend: 0x0, symName: __ZNSt3__13setINS_12basic_stringIcNS_11char_traitsIcEENS_9allocatorIcEEEENS_4lessIS6_EENS4_IS6_EEE3endB8ue170006Ev, symObjAddr: 0x70D4, symBinAddr: 0x10000B3C8, symSize: 0x38 }
  - { offsetInCU: 0x46925, offset: 0x46925, size: 0x8, addend: 0x0, symName: __ZNKSt3__121__tree_const_iteratorINS_12basic_stringIcNS_11char_traitsIcEENS_9allocatorIcEEEEPNS_11__tree_nodeIS6_PvEElEdeB8ue170006Ev, symObjAddr: 0x7140, symBinAddr: 0x10000B434, symSize: 0x28 }
  - { offsetInCU: 0x4694B, offset: 0x4694B, size: 0x8, addend: 0x0, symName: __ZNSt3__121__tree_const_iteratorINS_12basic_stringIcNS_11char_traitsIcEENS_9allocatorIcEEEEPNS_11__tree_nodeIS6_PvEElEppB8ue170006Ev, symObjAddr: 0x7168, symBinAddr: 0x10000B45C, symSize: 0x38 }
  - { offsetInCU: 0x46971, offset: 0x46971, size: 0x8, addend: 0x0, symName: __ZNSt3__13setINS_12basic_stringIcNS_11char_traitsIcEENS_9allocatorIcEEEENS_4lessIS6_EENS4_IS6_EEED1B8ue170006Ev, symObjAddr: 0x71A0, symBinAddr: 0x10000B494, symSize: 0x2C }
  - { offsetInCU: 0x4699B, offset: 0x4699B, size: 0x8, addend: 0x0, symName: __ZNSt3__14listINS_12basic_stringIcNS_11char_traitsIcEENS_9allocatorIcEEEENS4_IS6_EEED1Ev, symObjAddr: 0x71CC, symBinAddr: 0x10000B4C0, symSize: 0x2C }
  - { offsetInCU: 0x469C8, offset: 0x469C8, size: 0x8, addend: 0x0, symName: __ZNSt3__16vectorINS_12basic_stringIcNS_11char_traitsIcEENS_9allocatorIcEEEENS4_IS6_EEEC1B8ue170006ESt16initializer_listIS6_E, symObjAddr: 0x71F8, symBinAddr: 0x10000B4EC, symSize: 0x3C }
  - { offsetInCU: 0x46A03, offset: 0x46A03, size: 0x8, addend: 0x0, symName: __ZNSt3__13mapINS_12basic_stringIcNS_11char_traitsIcEENS_9allocatorIcEEEEiNS_4lessIS6_EENS4_INS_4pairIKS6_iEEEEEC1B8ue170006Ev, symObjAddr: 0x7234, symBinAddr: 0x10000B528, symSize: 0x2C }
  - { offsetInCU: 0x46A2D, offset: 0x46A2D, size: 0x8, addend: 0x0, symName: __ZNSt3__16vectorINS_12basic_stringIcNS_11char_traitsIcEENS_9allocatorIcEEEENS4_IS6_EEE5beginB8ue170006Ev, symObjAddr: 0x7260, symBinAddr: 0x10000B554, symSize: 0x30 }
  - { offsetInCU: 0x46A55, offset: 0x46A55, size: 0x8, addend: 0x0, symName: __ZNSt3__16vectorINS_12basic_stringIcNS_11char_traitsIcEENS_9allocatorIcEEEENS4_IS6_EEE3endB8ue170006Ev, symObjAddr: 0x7290, symBinAddr: 0x10000B584, symSize: 0x30 }
  - { offsetInCU: 0x46A7D, offset: 0x46A7D, size: 0x8, addend: 0x0, symName: __ZNKSt3__111__wrap_iterIPNS_12basic_stringIcNS_11char_traitsIcEENS_9allocatorIcEEEEEdeB8ue170006Ev, symObjAddr: 0x72F4, symBinAddr: 0x10000B5E8, symSize: 0x18 }
  - { offsetInCU: 0x46AA3, offset: 0x46AA3, size: 0x8, addend: 0x0, symName: __ZNSt3__13mapINS_12basic_stringIcNS_11char_traitsIcEENS_9allocatorIcEEEEiNS_4lessIS6_EENS4_INS_4pairIKS6_iEEEEEixERSA_, symObjAddr: 0x730C, symBinAddr: 0x10000B600, symSize: 0x80 }
  - { offsetInCU: 0x46ADA, offset: 0x46ADA, size: 0x8, addend: 0x0, symName: __ZNSt3__111__wrap_iterIPNS_12basic_stringIcNS_11char_traitsIcEENS_9allocatorIcEEEEEppB8ue170006Ev, symObjAddr: 0x738C, symBinAddr: 0x10000B680, symSize: 0x20 }
  - { offsetInCU: 0x46AFF, offset: 0x46AFF, size: 0x8, addend: 0x0, symName: __Z8printMapINSt3__13mapINS0_12basic_stringIcNS0_11char_traitsIcEENS0_9allocatorIcEEEEiNS0_4lessIS7_EENS5_INS0_4pairIKS7_iEEEEEEEvRKT_, symObjAddr: 0x73AC, symBinAddr: 0x10000B6A0, symSize: 0xC4 }
  - { offsetInCU: 0x46B82, offset: 0x46B82, size: 0x8, addend: 0x0, symName: __ZNSt3__13mapINS_12basic_stringIcNS_11char_traitsIcEENS_9allocatorIcEEEEiNS_4lessIS6_EENS4_INS_4pairIKS6_iEEEEED1B8ue170006Ev, symObjAddr: 0x7470, symBinAddr: 0x10000B764, symSize: 0x2C }
  - { offsetInCU: 0x46BAC, offset: 0x46BAC, size: 0x8, addend: 0x0, symName: __ZNSt3__16vectorINS_12basic_stringIcNS_11char_traitsIcEENS_9allocatorIcEEEENS4_IS6_EEED1B8ue170006Ev, symObjAddr: 0x749C, symBinAddr: 0x10000B790, symSize: 0x2C }
  - { offsetInCU: 0x46BD6, offset: 0x46BD6, size: 0x8, addend: 0x0, symName: __ZNSt3__16vectorI4RectNS_9allocatorIS1_EEED1B8ue170006Ev, symObjAddr: 0x74C8, symBinAddr: 0x10000B7BC, symSize: 0x2C }
  - { offsetInCU: 0x46C00, offset: 0x46C00, size: 0x8, addend: 0x0, symName: __ZNSt3__16vectorI5PointNS_9allocatorIS1_EEED1B8ue170006Ev, symObjAddr: 0x74F4, symBinAddr: 0x10000B7E8, symSize: 0x2C }
  - { offsetInCU: 0x46C2A, offset: 0x46C2A, size: 0x8, addend: 0x0, symName: __ZNSt3__16vectorIiNS_9allocatorIiEEED1B8ue170006Ev, symObjAddr: 0x7520, symBinAddr: 0x10000B814, symSize: 0x2C }
  - { offsetInCU: 0x46C54, offset: 0x46C54, size: 0x8, addend: 0x0, symName: __ZNSt3__14listIiNS_9allocatorIiEEED1Ev, symObjAddr: 0x754C, symBinAddr: 0x10000B840, symSize: 0x2C }
  - { offsetInCU: 0x46C81, offset: 0x46C81, size: 0x8, addend: 0x0, symName: __ZNSt3__15dequeIiNS_9allocatorIiEEED1B8ue170006Ev, symObjAddr: 0x7578, symBinAddr: 0x10000B86C, symSize: 0x2C }
  - { offsetInCU: 0x46CAB, offset: 0x46CAB, size: 0x8, addend: 0x0, symName: __ZNSt3__13setI5PointNS_4lessIS1_EENS_9allocatorIS1_EEED1B8ue170006Ev, symObjAddr: 0x75A4, symBinAddr: 0x10000B898, symSize: 0x2C }
  - { offsetInCU: 0x46CD5, offset: 0x46CD5, size: 0x8, addend: 0x0, symName: __ZNSt3__13setIiNS_4lessIiEENS_9allocatorIiEEED1B8ue170006Ev, symObjAddr: 0x75D0, symBinAddr: 0x10000B8C4, symSize: 0x2C }
  - { offsetInCU: 0x46CFF, offset: 0x46CFF, size: 0x8, addend: 0x0, symName: __ZNSt3__15dequeI8MyStringNS_9allocatorIS1_EEED1B8ue170006Ev, symObjAddr: 0x75FC, symBinAddr: 0x10000B8F0, symSize: 0x2C }
  - { offsetInCU: 0x46D29, offset: 0x46D29, size: 0x8, addend: 0x0, symName: __ZNSt3__15dequeI5PointNS_9allocatorIS1_EEED1B8ue170006Ev, symObjAddr: 0x7628, symBinAddr: 0x10000B91C, symSize: 0x2C }
  - { offsetInCU: 0x46D53, offset: 0x46D53, size: 0x8, addend: 0x0, symName: __ZN5PointC2Eii, symObjAddr: 0x7654, symBinAddr: 0x10000B948, symSize: 0x2C }
  - { offsetInCU: 0x46D99, offset: 0x46D99, size: 0x8, addend: 0x0, symName: __ZNKSt3__111__wrap_iterIPiE4baseB8ue170006Ev, symObjAddr: 0x76C8, symBinAddr: 0x10000B9BC, symSize: 0x18 }
  - { offsetInCU: 0x46DBF, offset: 0x46DBF, size: 0x8, addend: 0x0, symName: __ZNSt3__15stackIiNS_5dequeIiNS_9allocatorIiEEEEED2Ev, symObjAddr: 0x76E0, symBinAddr: 0x10000B9D4, symSize: 0x2C }
  - { offsetInCU: 0x46DEB, offset: 0x46DEB, size: 0x8, addend: 0x0, symName: __ZNSt3__15queueIiNS_5dequeIiNS_9allocatorIiEEEEED2Ev, symObjAddr: 0x770C, symBinAddr: 0x10000BA00, symSize: 0x2C }
  - { offsetInCU: 0x46E18, offset: 0x46E18, size: 0x8, addend: 0x0, symName: __ZNSt3__114priority_queueIiNS_6vectorIiNS_9allocatorIiEEEENS_4lessIiEEED2Ev, symObjAddr: 0x7738, symBinAddr: 0x10000BA2C, symSize: 0x2C }
  - { offsetInCU: 0x46E45, offset: 0x46E45, size: 0x8, addend: 0x0, symName: __ZNSt3__15queueIP5PointNS_5dequeIS2_NS_9allocatorIS2_EEEEED2Ev, symObjAddr: 0x7764, symBinAddr: 0x10000BA58, symSize: 0x2C }
  - { offsetInCU: 0x46E72, offset: 0x46E72, size: 0x8, addend: 0x0, symName: __ZNSt3__114priority_queueIPKcNS_6vectorIS2_NS_9allocatorIS2_EEEENS_4lessIS2_EEED2Ev, symObjAddr: 0x7790, symBinAddr: 0x10000BA84, symSize: 0x2C }
  - { offsetInCU: 0x46E9F, offset: 0x46E9F, size: 0x8, addend: 0x0, symName: __ZNSt3__16vectorIPKcNS_9allocatorIS2_EEED1B8ue170006Ev, symObjAddr: 0x77BC, symBinAddr: 0x10000BAB0, symSize: 0x2C }
  - { offsetInCU: 0x46EC9, offset: 0x46EC9, size: 0x8, addend: 0x0, symName: __ZNSt3__16vectorIPKcNS_9allocatorIS2_EEED2B8ue170006Ev, symObjAddr: 0x77E8, symBinAddr: 0x10000BADC, symSize: 0x44 }
  - { offsetInCU: 0x46EF3, offset: 0x46EF3, size: 0x8, addend: 0x0, symName: __ZNSt3__16vectorIPKcNS_9allocatorIS2_EEE16__destroy_vectorC1B8ue170006ERS5_, symObjAddr: 0x782C, symBinAddr: 0x10000BB20, symSize: 0x34 }
  - { offsetInCU: 0x46F2C, offset: 0x46F2C, size: 0x8, addend: 0x0, symName: __ZNSt3__16vectorIPKcNS_9allocatorIS2_EEE16__destroy_vectorclB8ue170006Ev, symObjAddr: 0x786C, symBinAddr: 0x10000BB54, symSize: 0x90 }
  - { offsetInCU: 0x46F52, offset: 0x46F52, size: 0x8, addend: 0x0, symName: __ZNSt3__16vectorIPKcNS_9allocatorIS2_EEE16__destroy_vectorC2B8ue170006ERS5_, symObjAddr: 0x78FC, symBinAddr: 0x10000BBE4, symSize: 0x20 }
  - { offsetInCU: 0x46F8B, offset: 0x46F8B, size: 0x8, addend: 0x0, symName: __ZNSt3__16vectorIPKcNS_9allocatorIS2_EEE7__clearB8ue170006Ev, symObjAddr: 0x791C, symBinAddr: 0x10000BC04, symSize: 0x28 }
  - { offsetInCU: 0x46FB1, offset: 0x46FB1, size: 0x8, addend: 0x0, symName: __ZNKSt3__16vectorIPKcNS_9allocatorIS2_EEE17__annotate_deleteB8ue170006Ev, symObjAddr: 0x7944, symBinAddr: 0x10000BC2C, symSize: 0xB8 }
  - { offsetInCU: 0x46FD7, offset: 0x46FD7, size: 0x8, addend: 0x0, symName: __ZNSt3__116allocator_traitsINS_9allocatorIPKcEEE10deallocateB8ue170006ERS4_PS3_m, symObjAddr: 0x79FC, symBinAddr: 0x10000BCE4, symSize: 0x34 }
  - { offsetInCU: 0x47019, offset: 0x47019, size: 0x8, addend: 0x0, symName: __ZNSt3__16vectorIPKcNS_9allocatorIS2_EEE7__allocB8ue170006Ev, symObjAddr: 0x7A30, symBinAddr: 0x10000BD18, symSize: 0x28 }
  - { offsetInCU: 0x4703F, offset: 0x4703F, size: 0x8, addend: 0x0, symName: __ZNKSt3__16vectorIPKcNS_9allocatorIS2_EEE8capacityB8ue170006Ev, symObjAddr: 0x7A58, symBinAddr: 0x10000BD40, symSize: 0x40 }
  - { offsetInCU: 0x47065, offset: 0x47065, size: 0x8, addend: 0x0, symName: __ZNSt3__16vectorIPKcNS_9allocatorIS2_EEE22__base_destruct_at_endB8ue170006EPS2_, symObjAddr: 0x7A98, symBinAddr: 0x10000BD80, symSize: 0x8C }
  - { offsetInCU: 0x470A9, offset: 0x470A9, size: 0x8, addend: 0x0, symName: __ZNSt3__116allocator_traitsINS_9allocatorIPKcEEE7destroyB8ue170006IS3_vEEvRS4_PT_, symObjAddr: 0x7B24, symBinAddr: 0x10000BE0C, symSize: 0x2C }
  - { offsetInCU: 0x470E6, offset: 0x470E6, size: 0x8, addend: 0x0, symName: __ZNSt3__19allocatorIPKcE7destroyB8ue170006EPS2_, symObjAddr: 0x7B64, symBinAddr: 0x10000BE4C, symSize: 0x14 }
  - { offsetInCU: 0x4711A, offset: 0x4711A, size: 0x8, addend: 0x0, symName: __ZNKSt3__16vectorIPKcNS_9allocatorIS2_EEE31__annotate_contiguous_containerB8ue170006EPKvS7_S7_S7_, symObjAddr: 0x7B78, symBinAddr: 0x10000BE60, symSize: 0x20 }
  - { offsetInCU: 0x47170, offset: 0x47170, size: 0x8, addend: 0x0, symName: __ZNKSt3__16vectorIPKcNS_9allocatorIS2_EEE4dataB8ue170006Ev, symObjAddr: 0x7B98, symBinAddr: 0x10000BE80, symSize: 0x28 }
  - { offsetInCU: 0x47196, offset: 0x47196, size: 0x8, addend: 0x0, symName: __ZNKSt3__16vectorIPKcNS_9allocatorIS2_EEE4sizeB8ue170006Ev, symObjAddr: 0x7BC0, symBinAddr: 0x10000BEA8, symSize: 0x28 }
  - { offsetInCU: 0x471BC, offset: 0x471BC, size: 0x8, addend: 0x0, symName: __ZNSt3__19allocatorIPKcE10deallocateB8ue170006EPS2_m, symObjAddr: 0x7BE8, symBinAddr: 0x10000BED0, symSize: 0x40 }
  - { offsetInCU: 0x471FE, offset: 0x471FE, size: 0x8, addend: 0x0, symName: __ZNSt3__117__compressed_pairIPPKcNS_9allocatorIS2_EEE6secondB8ue170006Ev, symObjAddr: 0x7D50, symBinAddr: 0x10000C038, symSize: 0x24 }
  - { offsetInCU: 0x47224, offset: 0x47224, size: 0x8, addend: 0x0, symName: __ZNSt3__122__compressed_pair_elemINS_9allocatorIPKcEELi1ELb1EE5__getB8ue170006Ev, symObjAddr: 0x7D74, symBinAddr: 0x10000C05C, symSize: 0x14 }
  - { offsetInCU: 0x4724A, offset: 0x4724A, size: 0x8, addend: 0x0, symName: __ZNKSt3__16vectorIPKcNS_9allocatorIS2_EEE9__end_capB8ue170006Ev, symObjAddr: 0x7D88, symBinAddr: 0x10000C070, symSize: 0x28 }
  - { offsetInCU: 0x47270, offset: 0x47270, size: 0x8, addend: 0x0, symName: __ZNKSt3__117__compressed_pairIPPKcNS_9allocatorIS2_EEE5firstB8ue170006Ev, symObjAddr: 0x7DB0, symBinAddr: 0x10000C098, symSize: 0x24 }
  - { offsetInCU: 0x47296, offset: 0x47296, size: 0x8, addend: 0x0, symName: __ZNKSt3__122__compressed_pair_elemIPPKcLi0ELb0EE5__getB8ue170006Ev, symObjAddr: 0x7DD4, symBinAddr: 0x10000C0BC, symSize: 0x14 }
  - { offsetInCU: 0x472BC, offset: 0x472BC, size: 0x8, addend: 0x0, symName: '__ZNSt3__114priority_queueIPKcNS_6vectorIS2_NS_9allocatorIS2_EEEEZ4mainE3$_1ED2Ev', symObjAddr: 0x7DE8, symBinAddr: 0x10000C0D0, symSize: 0x2C }
  - { offsetInCU: 0x472E9, offset: 0x472E9, size: 0x8, addend: 0x0, symName: __ZNSt3__14pairIPKciEC1B8ue170006IRA7_S1_iLPv0EEEOT_OT0_, symObjAddr: 0x7E14, symBinAddr: 0x10000C0FC, symSize: 0x3C }
  - { offsetInCU: 0x47347, offset: 0x47347, size: 0x8, addend: 0x0, symName: __ZNSt3__14pairIPKciEC2B8ue170006IRA7_S1_iLPv0EEEOT_OT0_, symObjAddr: 0x7E50, symBinAddr: 0x10000C138, symSize: 0x30 }
  - { offsetInCU: 0x473A5, offset: 0x473A5, size: 0x8, addend: 0x0, symName: __ZNSt3__14pairIKPKciEC2B8ue170006IRA3_S1_iLPv0EEEOT_OT0_, symObjAddr: 0x7E80, symBinAddr: 0x10000C168, symSize: 0x30 }
  - { offsetInCU: 0x47403, offset: 0x47403, size: 0x8, addend: 0x0, symName: __ZNSt3__14pairIKNS_12basic_stringIcNS_11char_traitsIcEENS_9allocatorIcEEEES6_EC2B8ue170006IRA8_KcRA11_SA_LPv0EEEOT_OT0_, symObjAddr: 0x7EB0, symBinAddr: 0x10000C198, symSize: 0x70 }
  - { offsetInCU: 0x47461, offset: 0x47461, size: 0x8, addend: 0x0, symName: __ZNSt3__14pairIKNS_12basic_stringIcNS_11char_traitsIcEENS_9allocatorIcEEEES6_EC2B8ue170006IRA5_KcRA11_SA_LPv0EEEOT_OT0_, symObjAddr: 0x7F20, symBinAddr: 0x10000C208, symSize: 0x70 }
  - { offsetInCU: 0x474BF, offset: 0x474BF, size: 0x8, addend: 0x0, symName: __ZNSt3__14pairIKNS_12basic_stringIcNS_11char_traitsIcEENS_9allocatorIcEEEES6_EC2B8ue170006IRA8_KcRA17_SA_LPv0EEEOT_OT0_, symObjAddr: 0x7F90, symBinAddr: 0x10000C278, symSize: 0x70 }
  - { offsetInCU: 0x4751D, offset: 0x4751D, size: 0x8, addend: 0x0, symName: __ZNSt3__14pairIKNS_12basic_stringIcNS_11char_traitsIcEENS_9allocatorIcEEEES6_EC2B8ue170006IRA5_KcRA23_SA_LPv0EEEOT_OT0_, symObjAddr: 0x8000, symBinAddr: 0x10000C2E8, symSize: 0x70 }
  - { offsetInCU: 0x4757B, offset: 0x4757B, size: 0x8, addend: 0x0, symName: __ZNSt3__14pairIKNS_12basic_stringIcNS_11char_traitsIcEENS_9allocatorIcEEEES6_EC2B8ue170006IRA5_KcRA9_SA_LPv0EEEOT_OT0_, symObjAddr: 0x8070, symBinAddr: 0x10000C358, symSize: 0x70 }
  - { offsetInCU: 0x475D9, offset: 0x475D9, size: 0x8, addend: 0x0, symName: __ZNSt3__14pairIKNS_12basic_stringIcNS_11char_traitsIcEENS_9allocatorIcEEEES6_EC2B8ue170006IRA5_KcRA19_SA_LPv0EEEOT_OT0_, symObjAddr: 0x80E0, symBinAddr: 0x10000C3C8, symSize: 0x70 }
  - { offsetInCU: 0x47637, offset: 0x47637, size: 0x8, addend: 0x0, symName: __ZNSt3__14pairIKNS_12basic_stringIcNS_11char_traitsIcEENS_9allocatorIcEEEES6_ED2Ev, symObjAddr: 0x8150, symBinAddr: 0x10000C438, symSize: 0x38 }
  - { offsetInCU: 0x47663, offset: 0x47663, size: 0x8, addend: 0x0, symName: __ZNSt3__14pairIPKcS2_EC1B8ue170006ILb1ELPv0EEERKS2_S7_, symObjAddr: 0x8188, symBinAddr: 0x10000C470, symSize: 0x3C }
  - { offsetInCU: 0x476B9, offset: 0x476B9, size: 0x8, addend: 0x0, symName: __ZNSt3__14pairIPKcS2_EC2B8ue170006ILb1ELPv0EEERKS2_S7_, symObjAddr: 0x81C4, symBinAddr: 0x10000C4AC, symSize: 0x34 }
  - { offsetInCU: 0x4770F, offset: 0x4770F, size: 0x8, addend: 0x0, symName: __ZN13PointModifierC2Eii, symObjAddr: 0x81F8, symBinAddr: 0x10000C4E0, symSize: 0x2C }
  - { offsetInCU: 0x47755, offset: 0x47755, size: 0x8, addend: 0x0, symName: __ZNKSt3__111__wrap_iterIP5PointE4baseB8ue170006Ev, symObjAddr: 0x826C, symBinAddr: 0x10000C554, symSize: 0x18 }
  - { offsetInCU: 0x4777B, offset: 0x4777B, size: 0x8, addend: 0x0, symName: __ZNSt3__14listINS_12basic_stringIcNS_11char_traitsIcEENS_9allocatorIcEEEENS4_IS6_EEED2Ev, symObjAddr: 0x83BC, symBinAddr: 0x10000C5F8, symSize: 0x2C }
  - { offsetInCU: 0x477A8, offset: 0x477A8, size: 0x8, addend: 0x0, symName: __ZNSt3__110__list_impINS_12basic_stringIcNS_11char_traitsIcEENS_9allocatorIcEEEENS4_IS6_EEED2Ev, symObjAddr: 0x83E8, symBinAddr: 0x10000C624, symSize: 0x2C }
  - { offsetInCU: 0x477D4, offset: 0x477D4, size: 0x8, addend: 0x0, symName: __ZNSt3__110__list_impINS_12basic_stringIcNS_11char_traitsIcEENS_9allocatorIcEEEENS4_IS6_EEE5clearEv, symObjAddr: 0x8414, symBinAddr: 0x10000C650, symSize: 0xE0 }
  - { offsetInCU: 0x47844, offset: 0x47844, size: 0x8, addend: 0x0, symName: __ZNKSt3__110__list_impINS_12basic_stringIcNS_11char_traitsIcEENS_9allocatorIcEEEENS4_IS6_EEE5emptyB8ue170006Ev, symObjAddr: 0x84F4, symBinAddr: 0x10000C730, symSize: 0x34 }
  - { offsetInCU: 0x4786A, offset: 0x4786A, size: 0x8, addend: 0x0, symName: __ZNSt3__110__list_impINS_12basic_stringIcNS_11char_traitsIcEENS_9allocatorIcEEEENS4_IS6_EEE12__node_allocB8ue170006Ev, symObjAddr: 0x8528, symBinAddr: 0x10000C764, symSize: 0x28 }
  - { offsetInCU: 0x47890, offset: 0x47890, size: 0x8, addend: 0x0, symName: __ZNKSt3__110__list_impINS_12basic_stringIcNS_11char_traitsIcEENS_9allocatorIcEEEENS4_IS6_EEE13__end_as_linkB8ue170006Ev, symObjAddr: 0x8550, symBinAddr: 0x10000C78C, symSize: 0x44 }
  - { offsetInCU: 0x478B6, offset: 0x478B6, size: 0x8, addend: 0x0, symName: __ZNSt3__110__list_impINS_12basic_stringIcNS_11char_traitsIcEENS_9allocatorIcEEEENS4_IS6_EEE14__unlink_nodesEPNS_16__list_node_baseIS6_PvEESC_, symObjAddr: 0x8594, symBinAddr: 0x10000C7D0, symSize: 0x3C }
  - { offsetInCU: 0x478EB, offset: 0x478EB, size: 0x8, addend: 0x0, symName: __ZNSt3__110__list_impINS_12basic_stringIcNS_11char_traitsIcEENS_9allocatorIcEEEENS4_IS6_EEE4__szB8ue170006Ev, symObjAddr: 0x85D0, symBinAddr: 0x10000C80C, symSize: 0x28 }
  - { offsetInCU: 0x47911, offset: 0x47911, size: 0x8, addend: 0x0, symName: __ZNSt3__116__list_node_baseINS_12basic_stringIcNS_11char_traitsIcEENS_9allocatorIcEEEEPvE9__as_nodeB8ue170006Ev, symObjAddr: 0x85F8, symBinAddr: 0x10000C834, symSize: 0x24 }
  - { offsetInCU: 0x47937, offset: 0x47937, size: 0x8, addend: 0x0, symName: __ZNSt3__116allocator_traitsINS_9allocatorINS_11__list_nodeINS_12basic_stringIcNS_11char_traitsIcEENS1_IcEEEEPvEEEEE7destroyB8ue170006IS7_vvEEvRSA_PT_, symObjAddr: 0x861C, symBinAddr: 0x10000C858, symSize: 0x28 }
  - { offsetInCU: 0x47972, offset: 0x47972, size: 0x8, addend: 0x0, symName: __ZNSt3__116allocator_traitsINS_9allocatorINS_11__list_nodeINS_12basic_stringIcNS_11char_traitsIcEENS1_IcEEEEPvEEEEE10deallocateB8ue170006ERSA_PS9_m, symObjAddr: 0x8644, symBinAddr: 0x10000C880, symSize: 0x34 }
  - { offsetInCU: 0x479B4, offset: 0x479B4, size: 0x8, addend: 0x0, symName: __ZNKSt3__110__list_impINS_12basic_stringIcNS_11char_traitsIcEENS_9allocatorIcEEEENS4_IS6_EEE4__szB8ue170006Ev, symObjAddr: 0x8678, symBinAddr: 0x10000C8B4, symSize: 0x28 }
  - { offsetInCU: 0x479DA, offset: 0x479DA, size: 0x8, addend: 0x0, symName: __ZNKSt3__117__compressed_pairImNS_9allocatorINS_11__list_nodeINS_12basic_stringIcNS_11char_traitsIcEENS1_IcEEEEPvEEEEE5firstB8ue170006Ev, symObjAddr: 0x86A0, symBinAddr: 0x10000C8DC, symSize: 0x24 }
  - { offsetInCU: 0x47A00, offset: 0x47A00, size: 0x8, addend: 0x0, symName: __ZNKSt3__122__compressed_pair_elemImLi0ELb0EE5__getB8ue170006Ev, symObjAddr: 0x86C4, symBinAddr: 0x10000C900, symSize: 0x14 }
  - { offsetInCU: 0x47A26, offset: 0x47A26, size: 0x8, addend: 0x0, symName: __ZNSt3__117__compressed_pairImNS_9allocatorINS_11__list_nodeINS_12basic_stringIcNS_11char_traitsIcEENS1_IcEEEEPvEEEEE6secondB8ue170006Ev, symObjAddr: 0x86D8, symBinAddr: 0x10000C914, symSize: 0x24 }
  - { offsetInCU: 0x47A4C, offset: 0x47A4C, size: 0x8, addend: 0x0, symName: __ZNSt3__122__compressed_pair_elemINS_9allocatorINS_11__list_nodeINS_12basic_stringIcNS_11char_traitsIcEENS1_IcEEEEPvEEEELi1ELb1EE5__getB8ue170006Ev, symObjAddr: 0x86FC, symBinAddr: 0x10000C938, symSize: 0x14 }
  - { offsetInCU: 0x47A72, offset: 0x47A72, size: 0x8, addend: 0x0, symName: __ZNSt3__126__list_node_pointer_traitsINS_12basic_stringIcNS_11char_traitsIcEENS_9allocatorIcEEEEPvE26__unsafe_link_pointer_castB8ue170006EPNS_16__list_node_baseIS6_S7_EE, symObjAddr: 0x8710, symBinAddr: 0x10000C94C, symSize: 0x14 }
  - { offsetInCU: 0x47A96, offset: 0x47A96, size: 0x8, addend: 0x0, symName: __ZNSt3__116__list_node_baseINS_12basic_stringIcNS_11char_traitsIcEENS_9allocatorIcEEEEPvE6__selfB8ue170006Ev, symObjAddr: 0x8724, symBinAddr: 0x10000C960, symSize: 0x24 }
  - { offsetInCU: 0x47AC2, offset: 0x47AC2, size: 0x8, addend: 0x0, symName: __ZNSt3__114pointer_traitsIPNS_16__list_node_baseINS_12basic_stringIcNS_11char_traitsIcEENS_9allocatorIcEEEEPvEEE10pointer_toB8ue170006ERS9_, symObjAddr: 0x8748, symBinAddr: 0x10000C984, symSize: 0x14 }
  - { offsetInCU: 0x47AE5, offset: 0x47AE5, size: 0x8, addend: 0x0, symName: __ZNSt3__117__compressed_pairImNS_9allocatorINS_11__list_nodeINS_12basic_stringIcNS_11char_traitsIcEENS1_IcEEEEPvEEEEE5firstB8ue170006Ev, symObjAddr: 0x875C, symBinAddr: 0x10000C998, symSize: 0x24 }
  - { offsetInCU: 0x47B0B, offset: 0x47B0B, size: 0x8, addend: 0x0, symName: __ZNSt3__122__compressed_pair_elemImLi0ELb0EE5__getB8ue170006Ev, symObjAddr: 0x8780, symBinAddr: 0x10000C9BC, symSize: 0x14 }
  - { offsetInCU: 0x47B31, offset: 0x47B31, size: 0x8, addend: 0x0, symName: __ZNSt3__19allocatorINS_11__list_nodeINS_12basic_stringIcNS_11char_traitsIcEENS0_IcEEEEPvEEE10deallocateB8ue170006EPS8_m, symObjAddr: 0x8794, symBinAddr: 0x10000C9D0, symSize: 0x44 }
  - { offsetInCU: 0x47B73, offset: 0x47B73, size: 0x8, addend: 0x0, symName: __ZNKSt3__111__wrap_iterIPNS_12basic_stringIcNS_11char_traitsIcEENS_9allocatorIcEEEEE4baseB8ue170006Ev, symObjAddr: 0x8820, symBinAddr: 0x10000CA5C, symSize: 0x18 }
  - { offsetInCU: 0x47B99, offset: 0x47B99, size: 0x8, addend: 0x0, symName: __ZNSt3__14listIiNS_9allocatorIiEEED2Ev, symObjAddr: 0x8838, symBinAddr: 0x10000CA74, symSize: 0x2C }
  - { offsetInCU: 0x47BC6, offset: 0x47BC6, size: 0x8, addend: 0x0, symName: __ZNSt3__110__list_impIiNS_9allocatorIiEEED2Ev, symObjAddr: 0x8864, symBinAddr: 0x10000CAA0, symSize: 0x2C }
  - { offsetInCU: 0x47BF2, offset: 0x47BF2, size: 0x8, addend: 0x0, symName: __ZNSt3__110__list_impIiNS_9allocatorIiEEE5clearEv, symObjAddr: 0x8890, symBinAddr: 0x10000CACC, symSize: 0xE0 }
  - { offsetInCU: 0x47C62, offset: 0x47C62, size: 0x8, addend: 0x0, symName: __ZNKSt3__110__list_impIiNS_9allocatorIiEEE5emptyB8ue170006Ev, symObjAddr: 0x8970, symBinAddr: 0x10000CBAC, symSize: 0x34 }
  - { offsetInCU: 0x47C88, offset: 0x47C88, size: 0x8, addend: 0x0, symName: __ZNSt3__110__list_impIiNS_9allocatorIiEEE12__node_allocB8ue170006Ev, symObjAddr: 0x89A4, symBinAddr: 0x10000CBE0, symSize: 0x28 }
  - { offsetInCU: 0x47CAE, offset: 0x47CAE, size: 0x8, addend: 0x0, symName: __ZNKSt3__110__list_impIiNS_9allocatorIiEEE13__end_as_linkB8ue170006Ev, symObjAddr: 0x89CC, symBinAddr: 0x10000CC08, symSize: 0x44 }
  - { offsetInCU: 0x47CD4, offset: 0x47CD4, size: 0x8, addend: 0x0, symName: __ZNSt3__110__list_impIiNS_9allocatorIiEEE14__unlink_nodesEPNS_16__list_node_baseIiPvEES7_, symObjAddr: 0x8A10, symBinAddr: 0x10000CC4C, symSize: 0x3C }
  - { offsetInCU: 0x47D09, offset: 0x47D09, size: 0x8, addend: 0x0, symName: __ZNSt3__110__list_impIiNS_9allocatorIiEEE4__szB8ue170006Ev, symObjAddr: 0x8A4C, symBinAddr: 0x10000CC88, symSize: 0x28 }
  - { offsetInCU: 0x47D2F, offset: 0x47D2F, size: 0x8, addend: 0x0, symName: __ZNSt3__116__list_node_baseIiPvE9__as_nodeB8ue170006Ev, symObjAddr: 0x8A74, symBinAddr: 0x10000CCB0, symSize: 0x24 }
  - { offsetInCU: 0x47D55, offset: 0x47D55, size: 0x8, addend: 0x0, symName: __ZNSt3__116allocator_traitsINS_9allocatorINS_11__list_nodeIiPvEEEEE7destroyB8ue170006IivvEEvRS5_PT_, symObjAddr: 0x8A98, symBinAddr: 0x10000CCD4, symSize: 0x14 }
  - { offsetInCU: 0x47D90, offset: 0x47D90, size: 0x8, addend: 0x0, symName: __ZNSt3__116allocator_traitsINS_9allocatorINS_11__list_nodeIiPvEEEEE10deallocateB8ue170006ERS5_PS4_m, symObjAddr: 0x8AAC, symBinAddr: 0x10000CCE8, symSize: 0x34 }
  - { offsetInCU: 0x47DD2, offset: 0x47DD2, size: 0x8, addend: 0x0, symName: __ZNKSt3__110__list_impIiNS_9allocatorIiEEE4__szB8ue170006Ev, symObjAddr: 0x8AE0, symBinAddr: 0x10000CD1C, symSize: 0x28 }
  - { offsetInCU: 0x47DF8, offset: 0x47DF8, size: 0x8, addend: 0x0, symName: __ZNKSt3__117__compressed_pairImNS_9allocatorINS_11__list_nodeIiPvEEEEE5firstB8ue170006Ev, symObjAddr: 0x8B08, symBinAddr: 0x10000CD44, symSize: 0x24 }
  - { offsetInCU: 0x47E1E, offset: 0x47E1E, size: 0x8, addend: 0x0, symName: __ZNSt3__117__compressed_pairImNS_9allocatorINS_11__list_nodeIiPvEEEEE6secondB8ue170006Ev, symObjAddr: 0x8B2C, symBinAddr: 0x10000CD68, symSize: 0x24 }
  - { offsetInCU: 0x47E44, offset: 0x47E44, size: 0x8, addend: 0x0, symName: __ZNSt3__122__compressed_pair_elemINS_9allocatorINS_11__list_nodeIiPvEEEELi1ELb1EE5__getB8ue170006Ev, symObjAddr: 0x8B50, symBinAddr: 0x10000CD8C, symSize: 0x14 }
  - { offsetInCU: 0x47E6A, offset: 0x47E6A, size: 0x8, addend: 0x0, symName: __ZNSt3__126__list_node_pointer_traitsIiPvE26__unsafe_link_pointer_castB8ue170006EPNS_16__list_node_baseIiS1_EE, symObjAddr: 0x8B64, symBinAddr: 0x10000CDA0, symSize: 0x14 }
  - { offsetInCU: 0x47E8E, offset: 0x47E8E, size: 0x8, addend: 0x0, symName: __ZNSt3__116__list_node_baseIiPvE6__selfB8ue170006Ev, symObjAddr: 0x8B78, symBinAddr: 0x10000CDB4, symSize: 0x24 }
  - { offsetInCU: 0x47EBA, offset: 0x47EBA, size: 0x8, addend: 0x0, symName: __ZNSt3__114pointer_traitsIPNS_16__list_node_baseIiPvEEE10pointer_toB8ue170006ERS3_, symObjAddr: 0x8B9C, symBinAddr: 0x10000CDD8, symSize: 0x14 }
  - { offsetInCU: 0x47EDD, offset: 0x47EDD, size: 0x8, addend: 0x0, symName: __ZNSt3__117__compressed_pairImNS_9allocatorINS_11__list_nodeIiPvEEEEE5firstB8ue170006Ev, symObjAddr: 0x8BB0, symBinAddr: 0x10000CDEC, symSize: 0x24 }
  - { offsetInCU: 0x47F03, offset: 0x47F03, size: 0x8, addend: 0x0, symName: __ZNSt3__19allocatorINS_11__list_nodeIiPvEEE10deallocateB8ue170006EPS3_m, symObjAddr: 0x8BD4, symBinAddr: 0x10000CE10, symSize: 0x44 }
  - { offsetInCU: 0x47F6E, offset: 0x47F6E, size: 0x8, addend: 0x0, symName: __ZNSt3__112basic_stringIcNS_11char_traitsIcEENS_9allocatorIcEEE15__make_iteratorB8ue170006EPc, symObjAddr: 0x9730, symBinAddr: 0x10000CE54, symSize: 0x30 }
  - { offsetInCU: 0x47FA3, offset: 0x47FA3, size: 0x8, addend: 0x0, symName: __ZNSt3__111__wrap_iterIPcEC1B8ue170006ES1_, symObjAddr: 0x9760, symBinAddr: 0x10000CE84, symSize: 0x34 }
  - { offsetInCU: 0x47FDB, offset: 0x47FDB, size: 0x8, addend: 0x0, symName: __ZNSt3__111__wrap_iterIPcEC2B8ue170006ES1_, symObjAddr: 0x9794, symBinAddr: 0x10000CEB8, symSize: 0x20 }
  - { offsetInCU: 0x48013, offset: 0x48013, size: 0x8, addend: 0x0, symName: __ZNKSt3__112basic_stringIcNS_11char_traitsIcEENS_9allocatorIcEEE4sizeB8ue170006Ev, symObjAddr: 0x97B4, symBinAddr: 0x10000CED8, symSize: 0x54 }
  - { offsetInCU: 0x48039, offset: 0x48039, size: 0x8, addend: 0x0, symName: __ZNKSt3__112basic_stringIcNS_11char_traitsIcEENS_9allocatorIcEEE15__get_long_sizeB8ue170006Ev, symObjAddr: 0x9808, symBinAddr: 0x10000CF2C, symSize: 0x28 }
  - { offsetInCU: 0x4805F, offset: 0x4805F, size: 0x8, addend: 0x0, symName: __ZNKSt3__112basic_stringIcNS_11char_traitsIcEENS_9allocatorIcEEE16__get_short_sizeB8ue170006Ev, symObjAddr: 0x9830, symBinAddr: 0x10000CF54, symSize: 0x34 }
  - { offsetInCU: 0x48090, offset: 0x48090, size: 0x8, addend: 0x0, symName: '__ZZ13to_lower_caseRNSt3__112basic_stringIcNS_11char_traitsIcEENS_9allocatorIcEEEEENK3$_0clEh', symObjAddr: 0x9898, symBinAddr: 0x10000CFBC, symSize: 0x28 }
  - { offsetInCU: 0x480C8, offset: 0x480C8, size: 0x8, addend: 0x0, symName: __ZNKSt3__111__wrap_iterIPcEdeB8ue170006Ev, symObjAddr: 0x98C0, symBinAddr: 0x10000CFE4, symSize: 0x18 }
  - { offsetInCU: 0x480EE, offset: 0x480EE, size: 0x8, addend: 0x0, symName: __ZNSt3__111__wrap_iterIPcEppB8ue170006Ev, symObjAddr: 0x98D8, symBinAddr: 0x10000CFFC, symSize: 0x20 }
  - { offsetInCU: 0x48114, offset: 0x48114, size: 0x8, addend: 0x0, symName: __ZNKSt3__111__wrap_iterIPcE4baseB8ue170006Ev, symObjAddr: 0x9940, symBinAddr: 0x10000D064, symSize: 0x18 }
  - { offsetInCU: 0x4813A, offset: 0x4813A, size: 0x8, addend: 0x0, symName: __ZNSt3__16vectorI5PointNS_9allocatorIS1_EEEC2B8ue170006ESt16initializer_listIS1_E, symObjAddr: 0x997C, symBinAddr: 0x10000D0A0, symSize: 0x120 }
  - { offsetInCU: 0x48190, offset: 0x48190, size: 0x8, addend: 0x0, symName: __ZNSt3__117__compressed_pairIP5PointNS_9allocatorIS1_EEEC1B8ue170006IDnNS_18__default_init_tagEEEOT_OT0_, symObjAddr: 0x9A9C, symBinAddr: 0x10000D1C0, symSize: 0x3C }
  - { offsetInCU: 0x481E8, offset: 0x481E8, size: 0x8, addend: 0x0, symName: __ZNSt3__16vectorI5PointNS_9allocatorIS1_EEE16__destroy_vectorC1B8ue170006ERS4_, symObjAddr: 0x9B18, symBinAddr: 0x10000D23C, symSize: 0x34 }
  - { offsetInCU: 0x48221, offset: 0x48221, size: 0x8, addend: 0x0, symName: __ZNKSt16initializer_listI5PointE4sizeB8ue170006Ev, symObjAddr: 0x9B4C, symBinAddr: 0x10000D270, symSize: 0x18 }
  - { offsetInCU: 0x48247, offset: 0x48247, size: 0x8, addend: 0x0, symName: __ZNSt3__16vectorI5PointNS_9allocatorIS1_EEE11__vallocateB8ue170006Em, symObjAddr: 0x9B64, symBinAddr: 0x10000D288, symSize: 0xAC }
  - { offsetInCU: 0x4828B, offset: 0x4828B, size: 0x8, addend: 0x0, symName: __ZNSt3__16vectorI5PointNS_9allocatorIS1_EEE18__construct_at_endIPKS1_S7_EEvT_T0_m, symObjAddr: 0x9C10, symBinAddr: 0x10000D334, symSize: 0x8C }
  - { offsetInCU: 0x48301, offset: 0x48301, size: 0x8, addend: 0x0, symName: __ZNKSt16initializer_listI5PointE5beginB8ue170006Ev, symObjAddr: 0x9C9C, symBinAddr: 0x10000D3C0, symSize: 0x18 }
  - { offsetInCU: 0x48327, offset: 0x48327, size: 0x8, addend: 0x0, symName: __ZNKSt16initializer_listI5PointE3endB8ue170006Ev, symObjAddr: 0x9CB4, symBinAddr: 0x10000D3D8, symSize: 0x20 }
  - { offsetInCU: 0x4834D, offset: 0x4834D, size: 0x8, addend: 0x0, symName: __ZNSt3__128__exception_guard_exceptionsINS_6vectorI5PointNS_9allocatorIS2_EEE16__destroy_vectorEE10__completeB8ue170006Ev, symObjAddr: 0x9CD4, symBinAddr: 0x10000D3F8, symSize: 0x1C }
  - { offsetInCU: 0x48373, offset: 0x48373, size: 0x8, addend: 0x0, symName: __ZNSt3__128__exception_guard_exceptionsINS_6vectorI5PointNS_9allocatorIS2_EEE16__destroy_vectorEED1B8ue170006Ev, symObjAddr: 0x9CF0, symBinAddr: 0x10000D414, symSize: 0x2C }
  - { offsetInCU: 0x4839D, offset: 0x4839D, size: 0x8, addend: 0x0, symName: __ZNSt3__117__compressed_pairIP5PointNS_9allocatorIS1_EEEC2B8ue170006IDnNS_18__default_init_tagEEEOT_OT0_, symObjAddr: 0x9D1C, symBinAddr: 0x10000D440, symSize: 0x40 }
  - { offsetInCU: 0x483F5, offset: 0x483F5, size: 0x8, addend: 0x0, symName: __ZNSt3__122__compressed_pair_elemIP5PointLi0ELb0EEC2B8ue170006IDnvEEOT_, symObjAddr: 0x9D5C, symBinAddr: 0x10000D480, symSize: 0x1C }
  - { offsetInCU: 0x48437, offset: 0x48437, size: 0x8, addend: 0x0, symName: __ZNSt3__122__compressed_pair_elemINS_9allocatorI5PointEELi1ELb1EEC2B8ue170006ENS_18__default_init_tagE, symObjAddr: 0x9D78, symBinAddr: 0x10000D49C, symSize: 0x2C }
  - { offsetInCU: 0x4846C, offset: 0x4846C, size: 0x8, addend: 0x0, symName: __ZNSt3__19allocatorI5PointEC2B8ue170006Ev, symObjAddr: 0x9DA4, symBinAddr: 0x10000D4C8, symSize: 0x2C }
  - { offsetInCU: 0x48496, offset: 0x48496, size: 0x8, addend: 0x0, symName: __ZNSt3__116__non_trivial_ifILb1ENS_9allocatorI5PointEEEC2B8ue170006Ev, symObjAddr: 0x9DD0, symBinAddr: 0x10000D4F4, symSize: 0x14 }
  - { offsetInCU: 0x484C0, offset: 0x484C0, size: 0x8, addend: 0x0, symName: __ZNSt3__128__exception_guard_exceptionsINS_6vectorI5PointNS_9allocatorIS2_EEE16__destroy_vectorEEC1B8ue170006ES6_, symObjAddr: 0x9DE4, symBinAddr: 0x10000D508, symSize: 0x34 }
  - { offsetInCU: 0x484F8, offset: 0x484F8, size: 0x8, addend: 0x0, symName: __ZNSt3__128__exception_guard_exceptionsINS_6vectorI5PointNS_9allocatorIS2_EEE16__destroy_vectorEEC2B8ue170006ES6_, symObjAddr: 0x9E18, symBinAddr: 0x10000D53C, symSize: 0x24 }
  - { offsetInCU: 0x48530, offset: 0x48530, size: 0x8, addend: 0x0, symName: __ZNSt3__16vectorI5PointNS_9allocatorIS1_EEE16__destroy_vectorC2B8ue170006ERS4_, symObjAddr: 0x9E3C, symBinAddr: 0x10000D560, symSize: 0x20 }
  - { offsetInCU: 0x48569, offset: 0x48569, size: 0x8, addend: 0x0, symName: __ZNKSt3__16vectorI5PointNS_9allocatorIS1_EEE8max_sizeEv, symObjAddr: 0x9E5C, symBinAddr: 0x10000D580, symSize: 0x60 }
  - { offsetInCU: 0x48591, offset: 0x48591, size: 0x8, addend: 0x0, symName: __ZNKSt3__16vectorI5PointNS_9allocatorIS1_EEE20__throw_length_errorB8ue170006Ev, symObjAddr: 0x9EBC, symBinAddr: 0x10000D5E0, symSize: 0x1C }
  - { offsetInCU: 0x485B7, offset: 0x485B7, size: 0x8, addend: 0x0, symName: __ZNSt3__16vectorI5PointNS_9allocatorIS1_EEE7__allocB8ue170006Ev, symObjAddr: 0x9F18, symBinAddr: 0x10000D63C, symSize: 0x28 }
  - { offsetInCU: 0x485DD, offset: 0x485DD, size: 0x8, addend: 0x0, symName: __ZNSt3__16vectorI5PointNS_9allocatorIS1_EEE9__end_capB8ue170006Ev, symObjAddr: 0x9F40, symBinAddr: 0x10000D664, symSize: 0x28 }
  - { offsetInCU: 0x48603, offset: 0x48603, size: 0x8, addend: 0x0, symName: __ZNKSt3__16vectorI5PointNS_9allocatorIS1_EEE14__annotate_newB8ue170006Em, symObjAddr: 0x9F68, symBinAddr: 0x10000D68C, symSize: 0xAC }
  - { offsetInCU: 0x48643, offset: 0x48643, size: 0x8, addend: 0x0, symName: __ZNSt3__116allocator_traitsINS_9allocatorI5PointEEE8max_sizeB8ue170006IS3_vEEmRKS3_, symObjAddr: 0xA040, symBinAddr: 0x10000D764, symSize: 0x24 }
  - { offsetInCU: 0x48671, offset: 0x48671, size: 0x8, addend: 0x0, symName: __ZNKSt3__16vectorI5PointNS_9allocatorIS1_EEE7__allocB8ue170006Ev, symObjAddr: 0xA064, symBinAddr: 0x10000D788, symSize: 0x28 }
  - { offsetInCU: 0x48697, offset: 0x48697, size: 0x8, addend: 0x0, symName: __ZNSt3__114numeric_limitsIlE3maxB8ue170006Ev, symObjAddr: 0xA08C, symBinAddr: 0x10000D7B0, symSize: 0x14 }
  - { offsetInCU: 0x486B6, offset: 0x486B6, size: 0x8, addend: 0x0, symName: __ZNKSt3__16__lessIvvEclB8ue170006ImmEEbRKT_RKT0_, symObjAddr: 0xA0F4, symBinAddr: 0x10000D818, symSize: 0x34 }
  - { offsetInCU: 0x4870A, offset: 0x4870A, size: 0x8, addend: 0x0, symName: __ZNKSt3__19allocatorI5PointE8max_sizeB8ue170006Ev, symObjAddr: 0xA128, symBinAddr: 0x10000D84C, symSize: 0x14 }
  - { offsetInCU: 0x48730, offset: 0x48730, size: 0x8, addend: 0x0, symName: __ZNKSt3__117__compressed_pairIP5PointNS_9allocatorIS1_EEE6secondB8ue170006Ev, symObjAddr: 0xA13C, symBinAddr: 0x10000D860, symSize: 0x24 }
  - { offsetInCU: 0x48756, offset: 0x48756, size: 0x8, addend: 0x0, symName: __ZNKSt3__122__compressed_pair_elemINS_9allocatorI5PointEELi1ELb1EE5__getB8ue170006Ev, symObjAddr: 0xA160, symBinAddr: 0x10000D884, symSize: 0x14 }
  - { offsetInCU: 0x4877C, offset: 0x4877C, size: 0x8, addend: 0x0, symName: __ZNSt3__123__libcpp_numeric_limitsIlLb1EE3maxB8ue170006Ev, symObjAddr: 0xA174, symBinAddr: 0x10000D898, symSize: 0x8 }
  - { offsetInCU: 0x48790, offset: 0x48790, size: 0x8, addend: 0x0, symName: __ZNSt12length_errorC1B8ue170006EPKc, symObjAddr: 0xA1E0, symBinAddr: 0x10000D904, symSize: 0x34 }
  - { offsetInCU: 0x487C8, offset: 0x487C8, size: 0x8, addend: 0x0, symName: __ZNSt12length_errorC2B8ue170006EPKc, symObjAddr: 0xA214, symBinAddr: 0x10000D938, symSize: 0x4C }
  - { offsetInCU: 0x48800, offset: 0x48800, size: 0x8, addend: 0x0, symName: __ZNSt3__19allocatorI5PointE8allocateB8ue170006Em, symObjAddr: 0xA260, symBinAddr: 0x10000D984, symSize: 0x58 }
  - { offsetInCU: 0x48834, offset: 0x48834, size: 0x8, addend: 0x0, symName: __ZNSt3__117__compressed_pairIP5PointNS_9allocatorIS1_EEE6secondB8ue170006Ev, symObjAddr: 0xA39C, symBinAddr: 0x10000DAC0, symSize: 0x24 }
  - { offsetInCU: 0x4885A, offset: 0x4885A, size: 0x8, addend: 0x0, symName: __ZNSt3__122__compressed_pair_elemINS_9allocatorI5PointEELi1ELb1EE5__getB8ue170006Ev, symObjAddr: 0xA3C0, symBinAddr: 0x10000DAE4, symSize: 0x14 }
  - { offsetInCU: 0x48880, offset: 0x48880, size: 0x8, addend: 0x0, symName: __ZNSt3__117__compressed_pairIP5PointNS_9allocatorIS1_EEE5firstB8ue170006Ev, symObjAddr: 0xA3D4, symBinAddr: 0x10000DAF8, symSize: 0x24 }
  - { offsetInCU: 0x488A6, offset: 0x488A6, size: 0x8, addend: 0x0, symName: __ZNSt3__122__compressed_pair_elemIP5PointLi0ELb0EE5__getB8ue170006Ev, symObjAddr: 0xA3F8, symBinAddr: 0x10000DB1C, symSize: 0x14 }
  - { offsetInCU: 0x488CC, offset: 0x488CC, size: 0x8, addend: 0x0, symName: __ZNKSt3__16vectorI5PointNS_9allocatorIS1_EEE31__annotate_contiguous_containerB8ue170006EPKvS6_S6_S6_, symObjAddr: 0xA40C, symBinAddr: 0x10000DB30, symSize: 0x20 }
  - { offsetInCU: 0x48922, offset: 0x48922, size: 0x8, addend: 0x0, symName: __ZNKSt3__16vectorI5PointNS_9allocatorIS1_EEE4dataB8ue170006Ev, symObjAddr: 0xA42C, symBinAddr: 0x10000DB50, symSize: 0x28 }
  - { offsetInCU: 0x48948, offset: 0x48948, size: 0x8, addend: 0x0, symName: __ZNKSt3__16vectorI5PointNS_9allocatorIS1_EEE8capacityB8ue170006Ev, symObjAddr: 0xA454, symBinAddr: 0x10000DB78, symSize: 0x40 }
  - { offsetInCU: 0x4896E, offset: 0x4896E, size: 0x8, addend: 0x0, symName: __ZNKSt3__16vectorI5PointNS_9allocatorIS1_EEE9__end_capB8ue170006Ev, symObjAddr: 0xA494, symBinAddr: 0x10000DBB8, symSize: 0x28 }
  - { offsetInCU: 0x48994, offset: 0x48994, size: 0x8, addend: 0x0, symName: __ZNKSt3__117__compressed_pairIP5PointNS_9allocatorIS1_EEE5firstB8ue170006Ev, symObjAddr: 0xA4BC, symBinAddr: 0x10000DBE0, symSize: 0x24 }
  - { offsetInCU: 0x489BA, offset: 0x489BA, size: 0x8, addend: 0x0, symName: __ZNKSt3__122__compressed_pair_elemIP5PointLi0ELb0EE5__getB8ue170006Ev, symObjAddr: 0xA4E0, symBinAddr: 0x10000DC04, symSize: 0x14 }
  - { offsetInCU: 0x489FC, offset: 0x489FC, size: 0x8, addend: 0x0, symName: __ZNSt3__16vectorI5PointNS_9allocatorIS1_EEE21_ConstructTransactionC1B8ue170006ERS4_m, symObjAddr: 0xA4F4, symBinAddr: 0x10000DC18, symSize: 0x3C }
  - { offsetInCU: 0x48A44, offset: 0x48A44, size: 0x8, addend: 0x0, symName: __ZNSt3__16vectorI5PointNS_9allocatorIS1_EEE21_ConstructTransactionD1B8ue170006Ev, symObjAddr: 0xA5B0, symBinAddr: 0x10000DCD4, symSize: 0x2C }
  - { offsetInCU: 0x48A6E, offset: 0x48A6E, size: 0x8, addend: 0x0, symName: __ZNSt3__16vectorI5PointNS_9allocatorIS1_EEE21_ConstructTransactionC2B8ue170006ERS4_m, symObjAddr: 0xA5DC, symBinAddr: 0x10000DD00, symSize: 0x44 }
  - { offsetInCU: 0x48AD9, offset: 0x48AD9, size: 0x8, addend: 0x0, symName: __ZNSt3__14pairIPK5PointS3_EC1B8ue170006IS3_S3_LPv0EEEOT_OT0_, symObjAddr: 0xA774, symBinAddr: 0x10000DE98, symSize: 0x3C }
  - { offsetInCU: 0x48B37, offset: 0x48B37, size: 0x8, addend: 0x0, symName: __ZNSt3__14pairIPK5PointS3_EC2B8ue170006IS3_S3_LPv0EEEOT_OT0_, symObjAddr: 0xA7B0, symBinAddr: 0x10000DED4, symSize: 0x34 }
  - { offsetInCU: 0x48B95, offset: 0x48B95, size: 0x8, addend: 0x0, symName: __ZNSt3__118__unwrap_iter_implIPK5PointLb1EE8__unwrapB8ue170006ES3_, symObjAddr: 0xA7E4, symBinAddr: 0x10000DF08, symSize: 0x24 }
  - { offsetInCU: 0x48BE0, offset: 0x48BE0, size: 0x8, addend: 0x0, symName: __ZNKSt3__114__copy_trivialclB8ue170006IK5PointS2_Li0EEENS_4pairIPT_PT0_EES6_S6_S8_, symObjAddr: 0xA998, symBinAddr: 0x10000E0BC, symSize: 0x48 }
  - { offsetInCU: 0x48C48, offset: 0x48C48, size: 0x8, addend: 0x0, symName: __ZNSt3__14pairIPK5PointPS1_EC1B8ue170006IRS3_S4_LPv0EEEOT_OT0_, symObjAddr: 0xAB60, symBinAddr: 0x10000E284, symSize: 0x3C }
  - { offsetInCU: 0x48CA6, offset: 0x48CA6, size: 0x8, addend: 0x0, symName: __ZNSt3__14pairIPK5PointPS1_EC2B8ue170006IRS3_S4_LPv0EEEOT_OT0_, symObjAddr: 0xAB9C, symBinAddr: 0x10000E2C0, symSize: 0x34 }
  - { offsetInCU: 0x48D04, offset: 0x48D04, size: 0x8, addend: 0x0, symName: __ZNSt3__14pairIPK5PointPS1_EC1B8ue170006IS3_S4_LPv0EEEOT_OT0_, symObjAddr: 0xABD0, symBinAddr: 0x10000E2F4, symSize: 0x3C }
  - { offsetInCU: 0x48D62, offset: 0x48D62, size: 0x8, addend: 0x0, symName: __ZNSt3__14pairIPK5PointPS1_EC2B8ue170006IS3_S4_LPv0EEEOT_OT0_, symObjAddr: 0xAC0C, symBinAddr: 0x10000E330, symSize: 0x34 }
  - { offsetInCU: 0x48DC0, offset: 0x48DC0, size: 0x8, addend: 0x0, symName: __ZNSt3__118__unwrap_iter_implIPK5PointLb1EE8__rewrapB8ue170006ES3_S3_, symObjAddr: 0xAC7C, symBinAddr: 0x10000E3A0, symSize: 0x50 }
  - { offsetInCU: 0x48DF1, offset: 0x48DF1, size: 0x8, addend: 0x0, symName: __ZNSt3__118__unwrap_iter_implIP5PointLb1EE8__unwrapB8ue170006ES2_, symObjAddr: 0xACCC, symBinAddr: 0x10000E3F0, symSize: 0x24 }
  - { offsetInCU: 0x48E14, offset: 0x48E14, size: 0x8, addend: 0x0, symName: __ZNSt3__118__unwrap_iter_implIP5PointLb1EE8__rewrapB8ue170006ES2_S2_, symObjAddr: 0xACF0, symBinAddr: 0x10000E414, symSize: 0x50 }
  - { offsetInCU: 0x48E45, offset: 0x48E45, size: 0x8, addend: 0x0, symName: __ZNSt3__16vectorI5PointNS_9allocatorIS1_EEE21_ConstructTransactionD2B8ue170006Ev, symObjAddr: 0xAD40, symBinAddr: 0x10000E464, symSize: 0x20 }
  - { offsetInCU: 0x48E6F, offset: 0x48E6F, size: 0x8, addend: 0x0, symName: __ZNSt3__128__exception_guard_exceptionsINS_6vectorI5PointNS_9allocatorIS2_EEE16__destroy_vectorEED2B8ue170006Ev, symObjAddr: 0xAD60, symBinAddr: 0x10000E484, symSize: 0x50 }
  - { offsetInCU: 0x48E99, offset: 0x48E99, size: 0x8, addend: 0x0, symName: __ZNSt3__16vectorI5PointNS_9allocatorIS1_EEE16__destroy_vectorclB8ue170006Ev, symObjAddr: 0xADB0, symBinAddr: 0x10000E4D4, symSize: 0x90 }
  - { offsetInCU: 0x48EBF, offset: 0x48EBF, size: 0x8, addend: 0x0, symName: __ZNSt3__16vectorI5PointNS_9allocatorIS1_EEE7__clearB8ue170006Ev, symObjAddr: 0xAE40, symBinAddr: 0x10000E564, symSize: 0x28 }
  - { offsetInCU: 0x48EE5, offset: 0x48EE5, size: 0x8, addend: 0x0, symName: __ZNKSt3__16vectorI5PointNS_9allocatorIS1_EEE17__annotate_deleteB8ue170006Ev, symObjAddr: 0xAE68, symBinAddr: 0x10000E58C, symSize: 0xB8 }
  - { offsetInCU: 0x48F0B, offset: 0x48F0B, size: 0x8, addend: 0x0, symName: __ZNSt3__116allocator_traitsINS_9allocatorI5PointEEE10deallocateB8ue170006ERS3_PS2_m, symObjAddr: 0xAF20, symBinAddr: 0x10000E644, symSize: 0x34 }
  - { offsetInCU: 0x48F4D, offset: 0x48F4D, size: 0x8, addend: 0x0, symName: __ZNSt3__16vectorI5PointNS_9allocatorIS1_EEE22__base_destruct_at_endB8ue170006EPS1_, symObjAddr: 0xAF54, symBinAddr: 0x10000E678, symSize: 0x8C }
  - { offsetInCU: 0x48F91, offset: 0x48F91, size: 0x8, addend: 0x0, symName: __ZNSt3__116allocator_traitsINS_9allocatorI5PointEEE7destroyB8ue170006IS2_vEEvRS3_PT_, symObjAddr: 0xAFE0, symBinAddr: 0x10000E704, symSize: 0x2C }
  - { offsetInCU: 0x48FCE, offset: 0x48FCE, size: 0x8, addend: 0x0, symName: __ZNSt3__19allocatorI5PointE7destroyB8ue170006EPS1_, symObjAddr: 0xB00C, symBinAddr: 0x10000E730, symSize: 0x14 }
  - { offsetInCU: 0x49002, offset: 0x49002, size: 0x8, addend: 0x0, symName: __ZNKSt3__16vectorI5PointNS_9allocatorIS1_EEE4sizeB8ue170006Ev, symObjAddr: 0xB020, symBinAddr: 0x10000E744, symSize: 0x28 }
  - { offsetInCU: 0x49028, offset: 0x49028, size: 0x8, addend: 0x0, symName: __ZNSt3__19allocatorI5PointE10deallocateB8ue170006EPS1_m, symObjAddr: 0xB048, symBinAddr: 0x10000E76C, symSize: 0x40 }
  - { offsetInCU: 0x4906A, offset: 0x4906A, size: 0x8, addend: 0x0, symName: __ZNSt3__16vectorI5PointNS_9allocatorIS1_EEED2B8ue170006Ev, symObjAddr: 0xB088, symBinAddr: 0x10000E7AC, symSize: 0x40 }
  - { offsetInCU: 0x49094, offset: 0x49094, size: 0x8, addend: 0x0, symName: __ZNSt3__15dequeI5PointNS_9allocatorIS1_EEEC2B8ue170006Ev, symObjAddr: 0xB0C8, symBinAddr: 0x10000E7EC, symSize: 0x5C }
  - { offsetInCU: 0x490BE, offset: 0x490BE, size: 0x8, addend: 0x0, symName: __ZNSt3__114__split_bufferIP5PointNS_9allocatorIS2_EEEC1B8ue170006Ev, symObjAddr: 0xB124, symBinAddr: 0x10000E848, symSize: 0x2C }
  - { offsetInCU: 0x490E8, offset: 0x490E8, size: 0x8, addend: 0x0, symName: __ZNSt3__117__compressed_pairImNS_9allocatorI5PointEEEC1B8ue170006IiNS_18__default_init_tagEEEOT_OT0_, symObjAddr: 0xB150, symBinAddr: 0x10000E874, symSize: 0x3C }
  - { offsetInCU: 0x49140, offset: 0x49140, size: 0x8, addend: 0x0, symName: __ZNKSt3__15dequeI5PointNS_9allocatorIS1_EEE14__annotate_newB8ue170006Em, symObjAddr: 0xB18C, symBinAddr: 0x10000E8B0, symSize: 0xC8 }
  - { offsetInCU: 0x49175, offset: 0x49175, size: 0x8, addend: 0x0, symName: __ZNSt3__114__split_bufferIP5PointNS_9allocatorIS2_EEEC2B8ue170006Ev, symObjAddr: 0xB254, symBinAddr: 0x10000E978, symSize: 0x50 }
  - { offsetInCU: 0x4919F, offset: 0x4919F, size: 0x8, addend: 0x0, symName: __ZNSt3__117__compressed_pairIPP5PointNS_9allocatorIS2_EEEC1B8ue170006IDnNS_18__default_init_tagEEEOT_OT0_, symObjAddr: 0xB2A4, symBinAddr: 0x10000E9C8, symSize: 0x3C }
  - { offsetInCU: 0x491F7, offset: 0x491F7, size: 0x8, addend: 0x0, symName: __ZNSt3__117__compressed_pairIPP5PointNS_9allocatorIS2_EEEC2B8ue170006IDnNS_18__default_init_tagEEEOT_OT0_, symObjAddr: 0xB2E0, symBinAddr: 0x10000EA04, symSize: 0x40 }
  - { offsetInCU: 0x4924F, offset: 0x4924F, size: 0x8, addend: 0x0, symName: __ZNSt3__122__compressed_pair_elemIPP5PointLi0ELb0EEC2B8ue170006IDnvEEOT_, symObjAddr: 0xB320, symBinAddr: 0x10000EA44, symSize: 0x1C }
  - { offsetInCU: 0x49291, offset: 0x49291, size: 0x8, addend: 0x0, symName: __ZNSt3__122__compressed_pair_elemINS_9allocatorIP5PointEELi1ELb1EEC2B8ue170006ENS_18__default_init_tagE, symObjAddr: 0xB33C, symBinAddr: 0x10000EA60, symSize: 0x2C }
  - { offsetInCU: 0x492C6, offset: 0x492C6, size: 0x8, addend: 0x0, symName: __ZNSt3__19allocatorIP5PointEC2B8ue170006Ev, symObjAddr: 0xB368, symBinAddr: 0x10000EA8C, symSize: 0x2C }
  - { offsetInCU: 0x492F0, offset: 0x492F0, size: 0x8, addend: 0x0, symName: __ZNSt3__116__non_trivial_ifILb1ENS_9allocatorIP5PointEEEC2B8ue170006Ev, symObjAddr: 0xB394, symBinAddr: 0x10000EAB8, symSize: 0x14 }
  - { offsetInCU: 0x4931A, offset: 0x4931A, size: 0x8, addend: 0x0, symName: __ZNSt3__117__compressed_pairImNS_9allocatorI5PointEEEC2B8ue170006IiNS_18__default_init_tagEEEOT_OT0_, symObjAddr: 0xB3A8, symBinAddr: 0x10000EACC, symSize: 0x40 }
  - { offsetInCU: 0x49372, offset: 0x49372, size: 0x8, addend: 0x0, symName: __ZNSt3__122__compressed_pair_elemImLi0ELb0EEC2B8ue170006IivEEOT_, symObjAddr: 0xB3E8, symBinAddr: 0x10000EB0C, symSize: 0x24 }
  - { offsetInCU: 0x493B4, offset: 0x493B4, size: 0x8, addend: 0x0, symName: __ZNKSt3__15dequeI5PointNS_9allocatorIS1_EEE18__annotate_from_toB8ue170006EmmNS4_22__asan_annotation_typeENS4_23__asan_annotation_placeE, symObjAddr: 0xB40C, symBinAddr: 0x10000EB30, symSize: 0x580 }
  - { offsetInCU: 0x49570, offset: 0x49570, size: 0x8, addend: 0x0, symName: __ZNKSt3__114__split_bufferIP5PointNS_9allocatorIS2_EEE4sizeB8ue170006Ev, symObjAddr: 0xB98C, symBinAddr: 0x10000F0B0, symSize: 0x28 }
  - { offsetInCU: 0x49596, offset: 0x49596, size: 0x8, addend: 0x0, symName: __ZNKSt3__114__split_bufferIP5PointNS_9allocatorIS2_EEE5beginB8ue170006Ev, symObjAddr: 0xB9B4, symBinAddr: 0x10000F0D8, symSize: 0x18 }
  - { offsetInCU: 0x495BC, offset: 0x495BC, size: 0x8, addend: 0x0, symName: __ZNKSt3__15dequeI5PointNS_9allocatorIS1_EEE4sizeB8ue170006Ev, symObjAddr: 0xB9CC, symBinAddr: 0x10000F0F0, symSize: 0x28 }
  - { offsetInCU: 0x495E2, offset: 0x495E2, size: 0x8, addend: 0x0, symName: __ZNKSt3__15dequeI5PointNS_9allocatorIS1_EEE5emptyB8ue170006Ev, symObjAddr: 0xB9F4, symBinAddr: 0x10000F118, symSize: 0x30 }
  - { offsetInCU: 0x49608, offset: 0x49608, size: 0x8, addend: 0x0, symName: __ZNKSt3__15dequeI5PointNS_9allocatorIS1_EEE44__annotate_double_ended_contiguous_containerB8ue170006EPKvS6_S6_S6_S6_S6_, symObjAddr: 0xBA24, symBinAddr: 0x10000F148, symSize: 0x28 }
  - { offsetInCU: 0x49676, offset: 0x49676, size: 0x8, addend: 0x0, symName: __ZNKSt3__15dequeI5PointNS_9allocatorIS1_EEE6__sizeB8ue170006Ev, symObjAddr: 0xBA4C, symBinAddr: 0x10000F170, symSize: 0x28 }
  - { offsetInCU: 0x4969C, offset: 0x4969C, size: 0x8, addend: 0x0, symName: __ZNKSt3__117__compressed_pairImNS_9allocatorI5PointEEE5firstB8ue170006Ev, symObjAddr: 0xBA74, symBinAddr: 0x10000F198, symSize: 0x24 }
  - { offsetInCU: 0x496C2, offset: 0x496C2, size: 0x8, addend: 0x0, symName: __ZNSt3__15dequeI5PointNS_9allocatorIS1_EEED2B8ue170006Ev, symObjAddr: 0xBA98, symBinAddr: 0x10000F1BC, symSize: 0xA4 }
  - { offsetInCU: 0x49718, offset: 0x49718, size: 0x8, addend: 0x0, symName: __ZNSt3__15dequeI5PointNS_9allocatorIS1_EEE5clearEv, symObjAddr: 0xBB3C, symBinAddr: 0x10000F260, symSize: 0x180 }
  - { offsetInCU: 0x49773, offset: 0x49773, size: 0x8, addend: 0x0, symName: __ZNKSt3__15dequeI5PointNS_9allocatorIS1_EEE17__annotate_deleteB8ue170006Ev, symObjAddr: 0xBCBC, symBinAddr: 0x10000F3E0, symSize: 0xE8 }
  - { offsetInCU: 0x497B6, offset: 0x497B6, size: 0x8, addend: 0x0, symName: __ZNSt3__114__split_bufferIP5PointNS_9allocatorIS2_EEE5beginB8ue170006Ev, symObjAddr: 0xBDA4, symBinAddr: 0x10000F4C8, symSize: 0x18 }
  - { offsetInCU: 0x497DC, offset: 0x497DC, size: 0x8, addend: 0x0, symName: __ZNSt3__114__split_bufferIP5PointNS_9allocatorIS2_EEE3endB8ue170006Ev, symObjAddr: 0xBDBC, symBinAddr: 0x10000F4E0, symSize: 0x18 }
  - { offsetInCU: 0x49802, offset: 0x49802, size: 0x8, addend: 0x0, symName: __ZNSt3__15dequeI5PointNS_9allocatorIS1_EEE7__allocB8ue170006Ev, symObjAddr: 0xBDD4, symBinAddr: 0x10000F4F8, symSize: 0x28 }
  - { offsetInCU: 0x49828, offset: 0x49828, size: 0x8, addend: 0x0, symName: __ZNSt3__114__split_bufferIP5PointNS_9allocatorIS2_EEED1Ev, symObjAddr: 0xBDFC, symBinAddr: 0x10000F520, symSize: 0x2C }
  - { offsetInCU: 0x49854, offset: 0x49854, size: 0x8, addend: 0x0, symName: __ZNSt3__15dequeI5PointNS_9allocatorIS1_EEE5beginB8ue170006Ev, symObjAddr: 0xBE28, symBinAddr: 0x10000F54C, symSize: 0xB8 }
  - { offsetInCU: 0x49889, offset: 0x49889, size: 0x8, addend: 0x0, symName: __ZNSt3__15dequeI5PointNS_9allocatorIS1_EEE3endB8ue170006Ev, symObjAddr: 0xBEE0, symBinAddr: 0x10000F604, symSize: 0xBC }
  - { offsetInCU: 0x498CD, offset: 0x498CD, size: 0x8, addend: 0x0, symName: __ZNKSt3__116__deque_iteratorI5PointPS1_RS1_PS2_lLl512EEdeB8ue170006Ev, symObjAddr: 0xBFD0, symBinAddr: 0x10000F6F4, symSize: 0x18 }
  - { offsetInCU: 0x498F3, offset: 0x498F3, size: 0x8, addend: 0x0, symName: __ZNSt3__116__deque_iteratorI5PointPS1_RS1_PS2_lLl512EEppB8ue170006Ev, symObjAddr: 0xBFE8, symBinAddr: 0x10000F70C, symSize: 0x70 }
  - { offsetInCU: 0x49919, offset: 0x49919, size: 0x8, addend: 0x0, symName: __ZNSt3__15dequeI5PointNS_9allocatorIS1_EEE6__sizeB8ue170006Ev, symObjAddr: 0xC058, symBinAddr: 0x10000F77C, symSize: 0x28 }
  - { offsetInCU: 0x4993F, offset: 0x4993F, size: 0x8, addend: 0x0, symName: __ZNSt3__114__split_bufferIP5PointNS_9allocatorIS2_EEE5frontB8ue170006Ev, symObjAddr: 0xC080, symBinAddr: 0x10000F7A4, symSize: 0x18 }
  - { offsetInCU: 0x49965, offset: 0x49965, size: 0x8, addend: 0x0, symName: __ZNSt3__114__split_bufferIP5PointNS_9allocatorIS2_EEE9pop_frontB8ue170006Ev, symObjAddr: 0xC098, symBinAddr: 0x10000F7BC, symSize: 0x2C }
  - { offsetInCU: 0x4998B, offset: 0x4998B, size: 0x8, addend: 0x0, symName: __ZNKSt3__114__split_bufferIP5PointNS_9allocatorIS2_EEE5emptyB8ue170006Ev, symObjAddr: 0xC0C4, symBinAddr: 0x10000F7E8, symSize: 0x28 }
  - { offsetInCU: 0x499B1, offset: 0x499B1, size: 0x8, addend: 0x0, symName: __ZNSt3__116__deque_iteratorI5PointPS1_RS1_PS2_lLl512EEC1B8ue170006ES4_S2_, symObjAddr: 0xC0EC, symBinAddr: 0x10000F810, symSize: 0x3C }
  - { offsetInCU: 0x499F9, offset: 0x499F9, size: 0x8, addend: 0x0, symName: __ZNSt3__116__deque_iteratorI5PointPS1_RS1_PS2_lLl512EEC2B8ue170006ES4_S2_, symObjAddr: 0xC128, symBinAddr: 0x10000F84C, symSize: 0x2C }
  - { offsetInCU: 0x49A41, offset: 0x49A41, size: 0x8, addend: 0x0, symName: __ZNSt3__117__compressed_pairImNS_9allocatorI5PointEEE5firstB8ue170006Ev, symObjAddr: 0xC184, symBinAddr: 0x10000F8A8, symSize: 0x24 }
  - { offsetInCU: 0x49A67, offset: 0x49A67, size: 0x8, addend: 0x0, symName: __ZNSt3__114__split_bufferIP5PointNS_9allocatorIS2_EEE19__destruct_at_beginB8ue170006EPS2_, symObjAddr: 0xC1A8, symBinAddr: 0x10000F8CC, symSize: 0x2C }
  - { offsetInCU: 0x49A9B, offset: 0x49A9B, size: 0x8, addend: 0x0, symName: __ZNSt3__114__split_bufferIP5PointNS_9allocatorIS2_EEE19__destruct_at_beginEPS2_NS_17integral_constantIbLb1EEE, symObjAddr: 0xC1D4, symBinAddr: 0x10000F8F8, symSize: 0x20 }
  - { offsetInCU: 0x49ADC, offset: 0x49ADC, size: 0x8, addend: 0x0, symName: __ZNKSt3__15dequeI5PointNS_9allocatorIS1_EEE22__annotate_whole_blockB8ue170006EmNS4_22__asan_annotation_typeE, symObjAddr: 0xC1F4, symBinAddr: 0x10000F918, symSize: 0xAC }
  - { offsetInCU: 0x49B4D, offset: 0x49B4D, size: 0x8, addend: 0x0, symName: __ZNKSt3__15dequeI5PointNS_9allocatorIS1_EEE23__annotate_poison_blockB8ue170006EPKvS6_, symObjAddr: 0xC2A0, symBinAddr: 0x10000F9C4, symSize: 0x44 }
  - { offsetInCU: 0x49B91, offset: 0x49B91, size: 0x8, addend: 0x0, symName: __ZNSt3__117__compressed_pairImNS_9allocatorI5PointEEE6secondB8ue170006Ev, symObjAddr: 0xC2E4, symBinAddr: 0x10000FA08, symSize: 0x24 }
  - { offsetInCU: 0x49BB7, offset: 0x49BB7, size: 0x8, addend: 0x0, symName: __ZNSt3__114__split_bufferIP5PointNS_9allocatorIS2_EEED2Ev, symObjAddr: 0xC308, symBinAddr: 0x10000FA2C, symSize: 0x8C }
  - { offsetInCU: 0x49BE3, offset: 0x49BE3, size: 0x8, addend: 0x0, symName: __ZNSt3__114__split_bufferIP5PointNS_9allocatorIS2_EEE5clearB8ue170006Ev, symObjAddr: 0xC394, symBinAddr: 0x10000FAB8, symSize: 0x28 }
  - { offsetInCU: 0x49C09, offset: 0x49C09, size: 0x8, addend: 0x0, symName: __ZNSt3__116allocator_traitsINS_9allocatorIP5PointEEE10deallocateB8ue170006ERS4_PS3_m, symObjAddr: 0xC3BC, symBinAddr: 0x10000FAE0, symSize: 0x34 }
  - { offsetInCU: 0x49C4B, offset: 0x49C4B, size: 0x8, addend: 0x0, symName: __ZNSt3__114__split_bufferIP5PointNS_9allocatorIS2_EEE7__allocB8ue170006Ev, symObjAddr: 0xC3F0, symBinAddr: 0x10000FB14, symSize: 0x28 }
  - { offsetInCU: 0x49C71, offset: 0x49C71, size: 0x8, addend: 0x0, symName: __ZNKSt3__114__split_bufferIP5PointNS_9allocatorIS2_EEE8capacityB8ue170006Ev, symObjAddr: 0xC418, symBinAddr: 0x10000FB3C, symSize: 0x40 }
  - { offsetInCU: 0x49C97, offset: 0x49C97, size: 0x8, addend: 0x0, symName: __ZNSt3__114__split_bufferIP5PointNS_9allocatorIS2_EEE17__destruct_at_endB8ue170006EPS2_, symObjAddr: 0xC458, symBinAddr: 0x10000FB7C, symSize: 0x2C }
  - { offsetInCU: 0x49CCB, offset: 0x49CCB, size: 0x8, addend: 0x0, symName: __ZNSt3__114__split_bufferIP5PointNS_9allocatorIS2_EEE17__destruct_at_endB8ue170006EPS2_NS_17integral_constantIbLb0EEE, symObjAddr: 0xC484, symBinAddr: 0x10000FBA8, symSize: 0x80 }
  - { offsetInCU: 0x49D0C, offset: 0x49D0C, size: 0x8, addend: 0x0, symName: __ZNSt3__116allocator_traitsINS_9allocatorIP5PointEEE7destroyB8ue170006IS3_vEEvRS4_PT_, symObjAddr: 0xC504, symBinAddr: 0x10000FC28, symSize: 0x2C }
  - { offsetInCU: 0x49D49, offset: 0x49D49, size: 0x8, addend: 0x0, symName: __ZNSt3__19allocatorIP5PointE7destroyB8ue170006EPS2_, symObjAddr: 0xC544, symBinAddr: 0x10000FC68, symSize: 0x14 }
  - { offsetInCU: 0x49D7D, offset: 0x49D7D, size: 0x8, addend: 0x0, symName: __ZNSt3__19allocatorIP5PointE10deallocateB8ue170006EPS2_m, symObjAddr: 0xC558, symBinAddr: 0x10000FC7C, symSize: 0x40 }
  - { offsetInCU: 0x49DBF, offset: 0x49DBF, size: 0x8, addend: 0x0, symName: __ZNSt3__117__compressed_pairIPP5PointNS_9allocatorIS2_EEE6secondB8ue170006Ev, symObjAddr: 0xC598, symBinAddr: 0x10000FCBC, symSize: 0x24 }
  - { offsetInCU: 0x49DE5, offset: 0x49DE5, size: 0x8, addend: 0x0, symName: __ZNSt3__122__compressed_pair_elemINS_9allocatorIP5PointEELi1ELb1EE5__getB8ue170006Ev, symObjAddr: 0xC5BC, symBinAddr: 0x10000FCE0, symSize: 0x14 }
  - { offsetInCU: 0x49E0B, offset: 0x49E0B, size: 0x8, addend: 0x0, symName: __ZNKSt3__114__split_bufferIP5PointNS_9allocatorIS2_EEE9__end_capB8ue170006Ev, symObjAddr: 0xC5D0, symBinAddr: 0x10000FCF4, symSize: 0x28 }
  - { offsetInCU: 0x49E31, offset: 0x49E31, size: 0x8, addend: 0x0, symName: __ZNKSt3__117__compressed_pairIPP5PointNS_9allocatorIS2_EEE5firstB8ue170006Ev, symObjAddr: 0xC5F8, symBinAddr: 0x10000FD1C, symSize: 0x24 }
  - { offsetInCU: 0x49E57, offset: 0x49E57, size: 0x8, addend: 0x0, symName: __ZNKSt3__122__compressed_pair_elemIPP5PointLi0ELb0EE5__getB8ue170006Ev, symObjAddr: 0xC61C, symBinAddr: 0x10000FD40, symSize: 0x14 }
  - { offsetInCU: 0x49E7D, offset: 0x49E7D, size: 0x8, addend: 0x0, symName: __ZNSt3__16vectorI5PointNS_9allocatorIS1_EEE11__make_iterB8ue170006EPS1_, symObjAddr: 0xC630, symBinAddr: 0x10000FD54, symSize: 0x30 }
  - { offsetInCU: 0x49EB2, offset: 0x49EB2, size: 0x8, addend: 0x0, symName: __ZNSt3__111__wrap_iterIP5PointEC1B8ue170006ES2_, symObjAddr: 0xC660, symBinAddr: 0x10000FD84, symSize: 0x34 }
  - { offsetInCU: 0x49EEA, offset: 0x49EEA, size: 0x8, addend: 0x0, symName: __ZNSt3__111__wrap_iterIP5PointEC2B8ue170006ES2_, symObjAddr: 0xC694, symBinAddr: 0x10000FDB8, symSize: 0x20 }
  - { offsetInCU: 0x49F22, offset: 0x49F22, size: 0x8, addend: 0x0, symName: __ZNSt3__15dequeI5PointNS_9allocatorIS1_EEE32__assign_with_size_random_accessB8ue170006INS_11__wrap_iterIPS1_EEEEvT_l, symObjAddr: 0xC6B4, symBinAddr: 0x10000FDD8, symSize: 0x144 }
  - { offsetInCU: 0x49F8E, offset: 0x49F8E, size: 0x8, addend: 0x0, symName: __ZNKSt3__111__wrap_iterIP5PointEplB8ue170006El, symObjAddr: 0xC7F8, symBinAddr: 0x10000FF1C, symSize: 0x3C }
  - { offsetInCU: 0x49FD0, offset: 0x49FD0, size: 0x8, addend: 0x0, symName: __ZNSt3__15dequeI5PointNS_9allocatorIS1_EEE18__append_with_sizeB8ue170006INS_11__wrap_iterIPS1_EEEEvT_m, symObjAddr: 0xC8A4, symBinAddr: 0x10000FFC8, symSize: 0x20C }
  - { offsetInCU: 0x4A0A0, offset: 0x4A0A0, size: 0x8, addend: 0x0, symName: __ZNSt3__15dequeI5PointNS_9allocatorIS1_EEE14__erase_to_endENS_16__deque_iteratorIS1_PKS1_RS6_PKS7_lLl512EEE, symObjAddr: 0xCAB0, symBinAddr: 0x1000101D4, symSize: 0x194 }
  - { offsetInCU: 0x4A175, offset: 0x4A175, size: 0x8, addend: 0x0, symName: __ZNSt3__116__deque_iteratorI5PointPKS1_RS2_PKS3_lLl512EEC1B8ue170006IPS1_RS1_PS9_EERKNS0_IS1_T_T0_T1_lLl512EEEPNS_9enable_ifIXsr14is_convertibleISC_S3_EE5valueEvE4typeE, symObjAddr: 0xCCBC, symBinAddr: 0x1000103E0, symSize: 0x3C }
  - { offsetInCU: 0x4A1D5, offset: 0x4A1D5, size: 0x8, addend: 0x0, symName: __ZNSt3__111__wrap_iterIP5PointEpLB8ue170006El, symObjAddr: 0xCCF8, symBinAddr: 0x10001041C, symSize: 0x28 }
  - { offsetInCU: 0x4A231, offset: 0x4A231, size: 0x8, addend: 0x0, symName: __ZNKSt3__111__copy_loopINS_17_ClassicAlgPolicyEEclB8ue170006IP5PointNS_16__deque_iteratorIS4_S5_RS4_PS5_lLl512EEELi0EEENS_4pairIT_T0_EESB_SB_SC_, symObjAddr: 0xCF48, symBinAddr: 0x10001066C, symSize: 0x164 }
  - { offsetInCU: 0x4A30D, offset: 0x4A30D, size: 0x8, addend: 0x0, symName: __ZNSt3__14pairIP5PointS2_EC1B8ue170006IS2_S2_LPv0EEEOT_OT0_, symObjAddr: 0xD23C, symBinAddr: 0x100010960, symSize: 0x3C }
  - { offsetInCU: 0x4A36B, offset: 0x4A36B, size: 0x8, addend: 0x0, symName: __ZNSt3__14pairIP5PointS2_EC2B8ue170006IS2_S2_LPv0EEEOT_OT0_, symObjAddr: 0xD278, symBinAddr: 0x10001099C, symSize: 0x34 }
  - { offsetInCU: 0x4A3C9, offset: 0x4A3C9, size: 0x8, addend: 0x0, symName: __ZNSt3__118__unwrap_iter_implINS_11__wrap_iterIP5PointEELb1EE8__unwrapB8ue170006ES4_, symObjAddr: 0xD2AC, symBinAddr: 0x1000109D0, symSize: 0x28 }
  - { offsetInCU: 0x4A3F8, offset: 0x4A3F8, size: 0x8, addend: 0x0, symName: __ZNSt3__119__to_address_helperINS_11__wrap_iterIP5PointEEvE6__callB8ue170006ERKS4_, symObjAddr: 0xD2F8, symBinAddr: 0x100010A1C, symSize: 0x30 }
  - { offsetInCU: 0x4A41B, offset: 0x4A41B, size: 0x8, addend: 0x0, symName: __ZNSt3__114pointer_traitsINS_11__wrap_iterIP5PointEEE10to_addressB8ue170006ES4_, symObjAddr: 0xD328, symBinAddr: 0x100010A4C, symSize: 0x2C }
  - { offsetInCU: 0x4A43E, offset: 0x4A43E, size: 0x8, addend: 0x0, symName: __ZNSt3__127__segmented_iterator_traitsINS_16__deque_iteratorI5PointPS2_RS2_PS3_lLl512EEEE7__localB8ue170006ES6_, symObjAddr: 0xD38C, symBinAddr: 0x100010AB0, symSize: 0x18 }
  - { offsetInCU: 0x4A462, offset: 0x4A462, size: 0x8, addend: 0x0, symName: __ZNSt3__127__segmented_iterator_traitsINS_16__deque_iteratorI5PointPS2_RS2_PS3_lLl512EEEE9__segmentB8ue170006ES6_, symObjAddr: 0xD3A4, symBinAddr: 0x100010AC8, symSize: 0x18 }
  - { offsetInCU: 0x4A486, offset: 0x4A486, size: 0x8, addend: 0x0, symName: __ZNSt3__127__segmented_iterator_traitsINS_16__deque_iteratorI5PointPS2_RS2_PS3_lLl512EEEE5__endB8ue170006ES5_, symObjAddr: 0xD3BC, symBinAddr: 0x100010AE0, symSize: 0x1C }
  - { offsetInCU: 0x4A4AA, offset: 0x4A4AA, size: 0x8, addend: 0x0, symName: __ZNSt3__127__segmented_iterator_traitsINS_16__deque_iteratorI5PointPS2_RS2_PS3_lLl512EEEE9__composeB8ue170006ES5_S3_, symObjAddr: 0xD448, symBinAddr: 0x100010B6C, symSize: 0x84 }
  - { offsetInCU: 0x4A4DD, offset: 0x4A4DD, size: 0x8, addend: 0x0, symName: __ZNSt3__127__segmented_iterator_traitsINS_16__deque_iteratorI5PointPS2_RS2_PS3_lLl512EEEE7__beginB8ue170006ES5_, symObjAddr: 0xD4CC, symBinAddr: 0x100010BF0, symSize: 0x18 }
  - { offsetInCU: 0x4A507, offset: 0x4A507, size: 0x8, addend: 0x0, symName: __ZNSt3__14pairIP5PointNS_16__deque_iteratorIS1_S2_RS1_PS2_lLl512EEEEC1B8ue170006IS2_S6_LPv0EEEOT_OT0_, symObjAddr: 0xD4E4, symBinAddr: 0x100010C08, symSize: 0x3C }
  - { offsetInCU: 0x4A565, offset: 0x4A565, size: 0x8, addend: 0x0, symName: __ZNSt3__14pairIP5PointNS_16__deque_iteratorIS1_S2_RS1_PS2_lLl512EEEEC2B8ue170006IS2_S6_LPv0EEEOT_OT0_, symObjAddr: 0xD520, symBinAddr: 0x100010C44, symSize: 0x34 }
  - { offsetInCU: 0x4A5CE, offset: 0x4A5CE, size: 0x8, addend: 0x0, symName: __ZNKSt3__16__lessIvvEclB8ue170006IllEEbRKT_RKT0_, symObjAddr: 0xD5A8, symBinAddr: 0x100010CCC, symSize: 0x34 }
  - { offsetInCU: 0x4A622, offset: 0x4A622, size: 0x8, addend: 0x0, symName: __ZNKSt3__114__copy_trivialclB8ue170006I5PointS2_Li0EEENS_4pairIPT_PT0_EES5_S5_S7_, symObjAddr: 0xD734, symBinAddr: 0x100010E58, symSize: 0x48 }
  - { offsetInCU: 0x4A68A, offset: 0x4A68A, size: 0x8, addend: 0x0, symName: __ZNSt3__14pairIP5PointS2_EC1B8ue170006IRS2_S2_LPv0EEEOT_OT0_, symObjAddr: 0xD8C4, symBinAddr: 0x100010FE8, symSize: 0x3C }
  - { offsetInCU: 0x4A6E8, offset: 0x4A6E8, size: 0x8, addend: 0x0, symName: __ZNSt3__14pairIP5PointS2_EC2B8ue170006IRS2_S2_LPv0EEEOT_OT0_, symObjAddr: 0xD900, symBinAddr: 0x100011024, symSize: 0x34 }
  - { offsetInCU: 0x4A746, offset: 0x4A746, size: 0x8, addend: 0x0, symName: __ZNSt3__118__unwrap_iter_implINS_16__deque_iteratorI5PointPS2_RS2_PS3_lLl512EEELb0EE8__unwrapB8ue170006ES6_, symObjAddr: 0xD934, symBinAddr: 0x100011058, symSize: 0x24 }
  - { offsetInCU: 0x4A78C, offset: 0x4A78C, size: 0x8, addend: 0x0, symName: __ZNSt3__14pairINS_11__wrap_iterIP5PointEENS_16__deque_iteratorIS2_S3_RS2_PS3_lLl512EEEEC1B8ue170006IS4_S8_LPv0EEEOT_OT0_, symObjAddr: 0xD958, symBinAddr: 0x10001107C, symSize: 0x3C }
  - { offsetInCU: 0x4A7EA, offset: 0x4A7EA, size: 0x8, addend: 0x0, symName: __ZNSt3__14pairINS_11__wrap_iterIP5PointEENS_16__deque_iteratorIS2_S3_RS2_PS3_lLl512EEEEC2B8ue170006IS4_S8_LPv0EEEOT_OT0_, symObjAddr: 0xD994, symBinAddr: 0x1000110B8, symSize: 0x34 }
  - { offsetInCU: 0x4A848, offset: 0x4A848, size: 0x8, addend: 0x0, symName: __ZNSt3__118__unwrap_iter_implINS_11__wrap_iterIP5PointEELb1EE8__rewrapB8ue170006ES4_S3_, symObjAddr: 0xDA14, symBinAddr: 0x100011138, symSize: 0x5C }
  - { offsetInCU: 0x4A879, offset: 0x4A879, size: 0x8, addend: 0x0, symName: __ZNSt3__118__unwrap_iter_implINS_16__deque_iteratorI5PointPS2_RS2_PS3_lLl512EEELb0EE8__rewrapB8ue170006ES6_S6_, symObjAddr: 0xDA70, symBinAddr: 0x100011194, symSize: 0x2C }
  - { offsetInCU: 0x4A8A7, offset: 0x4A8A7, size: 0x8, addend: 0x0, symName: __ZNKSt3__15dequeI5PointNS_9allocatorIS1_EEE12__back_spareB8ue170006Ev, symObjAddr: 0xDA9C, symBinAddr: 0x1000111C0, symSize: 0x54 }
  - { offsetInCU: 0x4A8CD, offset: 0x4A8CD, size: 0x8, addend: 0x0, symName: __ZNSt3__15dequeI5PointNS_9allocatorIS1_EEE19__add_back_capacityEm, symObjAddr: 0xDAF0, symBinAddr: 0x100011214, symSize: 0x63C }
  - { offsetInCU: 0x4A9CE, offset: 0x4A9CE, size: 0x8, addend: 0x0, symName: __ZNKSt3__15dequeI5PointNS_9allocatorIS1_EEE24__annotate_increase_backB8ue170006Em, symObjAddr: 0xE12C, symBinAddr: 0x100011850, symSize: 0x7C }
  - { offsetInCU: 0x4AA03, offset: 0x4AA03, size: 0x8, addend: 0x0, symName: __ZNKSt3__116__deque_iteratorI5PointPS1_RS1_PS2_lLl512EEplB8ue170006El, symObjAddr: 0xE1A8, symBinAddr: 0x1000118CC, symSize: 0x40 }
  - { offsetInCU: 0x4AA6E, offset: 0x4AA6E, size: 0x8, addend: 0x0, symName: __ZNSt3__15dequeI5PointNS_9allocatorIS1_EEE13__deque_rangeC1B8ue170006ENS_16__deque_iteratorIS1_PS1_RS1_PS7_lLl512EEESA_, symObjAddr: 0xE1E8, symBinAddr: 0x10001190C, symSize: 0x4C }
  - { offsetInCU: 0x4AAB6, offset: 0x4AAB6, size: 0x8, addend: 0x0, symName: __ZNKSt3__15dequeI5PointNS_9allocatorIS1_EEE13__deque_range5beginB8ue170006Ev, symObjAddr: 0xE234, symBinAddr: 0x100011958, symSize: 0x24 }
  - { offsetInCU: 0x4AADC, offset: 0x4AADC, size: 0x8, addend: 0x0, symName: __ZNKSt3__15dequeI5PointNS_9allocatorIS1_EEE13__deque_range3endB8ue170006Ev, symObjAddr: 0xE258, symBinAddr: 0x10001197C, symSize: 0x50 }
  - { offsetInCU: 0x4AB02, offset: 0x4AB02, size: 0x8, addend: 0x0, symName: __ZNKSt3__15dequeI5PointNS_9allocatorIS1_EEE13__deque_rangedeB8ue170006Ev, symObjAddr: 0xE2DC, symBinAddr: 0x100011A00, symSize: 0x7C }
  - { offsetInCU: 0x4AB3F, offset: 0x4AB3F, size: 0x8, addend: 0x0, symName: __ZNSt3__15dequeI5PointNS_9allocatorIS1_EEE21_ConstructTransactionC1B8ue170006EPS4_RNS4_19__deque_block_rangeE, symObjAddr: 0xE358, symBinAddr: 0x100011A7C, symSize: 0x3C }
  - { offsetInCU: 0x4AB87, offset: 0x4AB87, size: 0x8, addend: 0x0, symName: __ZNSt3__116allocator_traitsINS_9allocatorI5PointEEE9constructB8ue170006IS2_JRS2_EvEEvRS3_PT_DpOT0_, symObjAddr: 0xE394, symBinAddr: 0x100011AB8, symSize: 0x34 }
  - { offsetInCU: 0x4ABDE, offset: 0x4ABDE, size: 0x8, addend: 0x0, symName: __ZNKSt3__111__wrap_iterIP5PointEdeB8ue170006Ev, symObjAddr: 0xE3C8, symBinAddr: 0x100011AEC, symSize: 0x18 }
  - { offsetInCU: 0x4AC04, offset: 0x4AC04, size: 0x8, addend: 0x0, symName: __ZNSt3__15dequeI5PointNS_9allocatorIS1_EEE21_ConstructTransactionD1B8ue170006Ev, symObjAddr: 0xE3E0, symBinAddr: 0x100011B04, symSize: 0x2C }
  - { offsetInCU: 0x4AC2E, offset: 0x4AC2E, size: 0x8, addend: 0x0, symName: __ZNSt3__15dequeI5PointNS_9allocatorIS1_EEE13__deque_rangeppB8ue170006Ev, symObjAddr: 0xE40C, symBinAddr: 0x100011B30, symSize: 0x64 }
  - { offsetInCU: 0x4AC54, offset: 0x4AC54, size: 0x8, addend: 0x0, symName: __ZNKSt3__15dequeI5PointNS_9allocatorIS1_EEE10__capacityB8ue170006Ev, symObjAddr: 0xE470, symBinAddr: 0x100011B94, symSize: 0x60 }
  - { offsetInCU: 0x4AC7A, offset: 0x4AC7A, size: 0x8, addend: 0x0, symName: __ZNSt3__15dequeI5PointNS_9allocatorIS1_EEE18__recommend_blocksB8ue170006Em, symObjAddr: 0xE4D0, symBinAddr: 0x100011BF4, symSize: 0x40 }
  - { offsetInCU: 0x4AC9E, offset: 0x4AC9E, size: 0x8, addend: 0x0, symName: __ZNKSt3__15dequeI5PointNS_9allocatorIS1_EEE13__front_spareB8ue170006Ev, symObjAddr: 0xE510, symBinAddr: 0x100011C34, symSize: 0x18 }
  - { offsetInCU: 0x4ACC4, offset: 0x4ACC4, size: 0x8, addend: 0x0, symName: __ZNSt3__114__split_bufferIP5PointNS_9allocatorIS2_EEE9push_backB8ue170006ERKS2_, symObjAddr: 0xE528, symBinAddr: 0x100011C4C, symSize: 0x260 }
  - { offsetInCU: 0x4AD3C, offset: 0x4AD3C, size: 0x8, addend: 0x0, symName: __ZNKSt3__114__split_bufferIP5PointNS_9allocatorIS2_EEE12__back_spareB8ue170006Ev, symObjAddr: 0xE788, symBinAddr: 0x100011EAC, symSize: 0x40 }
  - { offsetInCU: 0x4AD62, offset: 0x4AD62, size: 0x8, addend: 0x0, symName: __ZNSt3__114__split_bufferIP5PointNS_9allocatorIS2_EEE9push_backEOS2_, symObjAddr: 0xE7C8, symBinAddr: 0x100011EEC, symSize: 0x260 }
  - { offsetInCU: 0x4ADDA, offset: 0x4ADDA, size: 0x8, addend: 0x0, symName: __ZNSt3__116allocator_traitsINS_9allocatorI5PointEEE8allocateB8ue170006ERS3_m, symObjAddr: 0xEA28, symBinAddr: 0x10001214C, symSize: 0x2C }
  - { offsetInCU: 0x4AE0D, offset: 0x4AE0D, size: 0x8, addend: 0x0, symName: __ZNSt3__114__split_bufferIP5PointNS_9allocatorIS2_EEE10push_frontEOS2_, symObjAddr: 0xEA54, symBinAddr: 0x100012178, symSize: 0x25C }
  - { offsetInCU: 0x4AE85, offset: 0x4AE85, size: 0x8, addend: 0x0, symName: __ZNSt3__114__split_bufferIP5PointRNS_9allocatorIS2_EEEC1EmmS5_, symObjAddr: 0xECDC, symBinAddr: 0x100012400, symSize: 0x44 }
  - { offsetInCU: 0x4AEDB, offset: 0x4AEDB, size: 0x8, addend: 0x0, symName: __ZNSt3__114__split_bufferIP5PointRNS_9allocatorIS2_EEE9push_backEOS2_, symObjAddr: 0xED20, symBinAddr: 0x100012444, symSize: 0x260 }
  - { offsetInCU: 0x4AF53, offset: 0x4AF53, size: 0x8, addend: 0x0, symName: __ZNSt3__114__split_bufferIP5PointRNS_9allocatorIS2_EEE4backB8ue170006Ev, symObjAddr: 0xEF80, symBinAddr: 0x1000126A4, symSize: 0x1C }
  - { offsetInCU: 0x4AF79, offset: 0x4AF79, size: 0x8, addend: 0x0, symName: __ZNSt3__114__split_bufferIP5PointRNS_9allocatorIS2_EEE5beginB8ue170006Ev, symObjAddr: 0xEF9C, symBinAddr: 0x1000126C0, symSize: 0x18 }
  - { offsetInCU: 0x4AF9F, offset: 0x4AF9F, size: 0x8, addend: 0x0, symName: __ZNSt3__114__split_bufferIP5PointRNS_9allocatorIS2_EEE3endB8ue170006Ev, symObjAddr: 0xEFB4, symBinAddr: 0x1000126D8, symSize: 0x18 }
  - { offsetInCU: 0x4AFC5, offset: 0x4AFC5, size: 0x8, addend: 0x0, symName: __ZNSt3__114__split_bufferIP5PointRNS_9allocatorIS2_EEE9push_backB8ue170006ERKS2_, symObjAddr: 0xEFCC, symBinAddr: 0x1000126F0, symSize: 0x260 }
  - { offsetInCU: 0x4B03D, offset: 0x4B03D, size: 0x8, addend: 0x0, symName: __ZNSt3__114__split_bufferIP5PointRNS_9allocatorIS2_EEE10push_frontERKS2_, symObjAddr: 0xF22C, symBinAddr: 0x100012950, symSize: 0x25C }
  - { offsetInCU: 0x4B0B5, offset: 0x4B0B5, size: 0x8, addend: 0x0, symName: __ZNSt3__114__split_bufferIP5PointNS_9allocatorIS2_EEE9__end_capB8ue170006Ev, symObjAddr: 0xF4C4, symBinAddr: 0x100012BE8, symSize: 0x28 }
  - { offsetInCU: 0x4B0DB, offset: 0x4B0DB, size: 0x8, addend: 0x0, symName: __ZNSt3__114__split_bufferIP5PointRNS_9allocatorIS2_EEE9__end_capB8ue170006Ev, symObjAddr: 0xF4EC, symBinAddr: 0x100012C10, symSize: 0x28 }
  - { offsetInCU: 0x4B101, offset: 0x4B101, size: 0x8, addend: 0x0, symName: __ZNSt3__114__split_bufferIP5PointRNS_9allocatorIS2_EEED1Ev, symObjAddr: 0xF514, symBinAddr: 0x100012C38, symSize: 0x2C }
  - { offsetInCU: 0x4B12D, offset: 0x4B12D, size: 0x8, addend: 0x0, symName: __ZNSt3__114__split_bufferIP5PointRNS_9allocatorIS2_EEE18__construct_at_endINS_13move_iteratorIPS2_EEEENS_9enable_ifIXsr31__has_forward_iterator_categoryIT_EE5valueEvE4typeESC_SC_, symObjAddr: 0xF580, symBinAddr: 0x100012CA4, symSize: 0x60 }
  - { offsetInCU: 0x4B17A, offset: 0x4B17A, size: 0x8, addend: 0x0, symName: __ZNSt3__113move_iteratorIPP5PointEC1B8ue170006ES3_, symObjAddr: 0xF5E0, symBinAddr: 0x100012D04, symSize: 0x34 }
  - { offsetInCU: 0x4B1B2, offset: 0x4B1B2, size: 0x8, addend: 0x0, symName: __ZNSt3__116allocator_traitsINS_9allocatorIP5PointEEE9constructB8ue170006IS3_JRKS3_EvEEvRS4_PT_DpOT0_, symObjAddr: 0xF614, symBinAddr: 0x100012D38, symSize: 0x34 }
  - { offsetInCU: 0x4B231, offset: 0x4B231, size: 0x8, addend: 0x0, symName: __ZNKSt3__114__move_trivialclB8ue170006IP5PointS3_Li0EEENS_4pairIPT_PT0_EES6_S6_S8_, symObjAddr: 0xF7E4, symBinAddr: 0x100012F08, symSize: 0x48 }
  - { offsetInCU: 0x4B299, offset: 0x4B299, size: 0x8, addend: 0x0, symName: __ZNSt3__14pairIPP5PointS3_EC1B8ue170006IRS3_S3_LPv0EEEOT_OT0_, symObjAddr: 0xFA0C, symBinAddr: 0x100013130, symSize: 0x3C }
  - { offsetInCU: 0x4B2F7, offset: 0x4B2F7, size: 0x8, addend: 0x0, symName: __ZNSt3__14pairIPP5PointS3_EC2B8ue170006IRS3_S3_LPv0EEEOT_OT0_, symObjAddr: 0xFA48, symBinAddr: 0x10001316C, symSize: 0x34 }
  - { offsetInCU: 0x4B355, offset: 0x4B355, size: 0x8, addend: 0x0, symName: __ZNSt3__118__unwrap_iter_implIPP5PointLb1EE8__unwrapB8ue170006ES3_, symObjAddr: 0xFA7C, symBinAddr: 0x1000131A0, symSize: 0x24 }
  - { offsetInCU: 0x4B378, offset: 0x4B378, size: 0x8, addend: 0x0, symName: __ZNSt3__14pairIPP5PointS3_EC1B8ue170006IS3_S3_LPv0EEEOT_OT0_, symObjAddr: 0xFAA0, symBinAddr: 0x1000131C4, symSize: 0x3C }
  - { offsetInCU: 0x4B3D6, offset: 0x4B3D6, size: 0x8, addend: 0x0, symName: __ZNSt3__14pairIPP5PointS3_EC2B8ue170006IS3_S3_LPv0EEEOT_OT0_, symObjAddr: 0xFADC, symBinAddr: 0x100013200, symSize: 0x34 }
  - { offsetInCU: 0x4B434, offset: 0x4B434, size: 0x8, addend: 0x0, symName: __ZNSt3__118__unwrap_iter_implIPP5PointLb1EE8__rewrapB8ue170006ES3_S3_, symObjAddr: 0xFB10, symBinAddr: 0x100013234, symSize: 0x50 }
  - { offsetInCU: 0x4B465, offset: 0x4B465, size: 0x8, addend: 0x0, symName: __ZNSt3__114__split_bufferIP5PointRNS_9allocatorIS2_EEE28__construct_at_end_with_sizeINS_13move_iteratorIPS2_EEEEvT_m, symObjAddr: 0xFB60, symBinAddr: 0x100013284, symSize: 0xDC }
  - { offsetInCU: 0x4B4CD, offset: 0x4B4CD, size: 0x8, addend: 0x0, symName: __ZNSt3__114__split_bufferIP5PointRNS_9allocatorIS2_EEE21_ConstructTransactionC1B8ue170006EPPS2_m, symObjAddr: 0xFC78, symBinAddr: 0x10001339C, symSize: 0x3C }
  - { offsetInCU: 0x4B513, offset: 0x4B513, size: 0x8, addend: 0x0, symName: __ZNSt3__116allocator_traitsINS_9allocatorIP5PointEEE9constructB8ue170006IS3_JS3_EvEEvRS4_PT_DpOT0_, symObjAddr: 0xFCB4, symBinAddr: 0x1000133D8, symSize: 0x34 }
  - { offsetInCU: 0x4B56A, offset: 0x4B56A, size: 0x8, addend: 0x0, symName: __ZNSt3__114__split_bufferIP5PointRNS_9allocatorIS2_EEE7__allocB8ue170006Ev, symObjAddr: 0xFCE8, symBinAddr: 0x10001340C, symSize: 0x28 }
  - { offsetInCU: 0x4B590, offset: 0x4B590, size: 0x8, addend: 0x0, symName: __ZNKSt3__113move_iteratorIPP5PointEdeB8ue170006Ev, symObjAddr: 0xFD10, symBinAddr: 0x100013434, symSize: 0x18 }
  - { offsetInCU: 0x4B5B6, offset: 0x4B5B6, size: 0x8, addend: 0x0, symName: __ZNSt3__113move_iteratorIPP5PointEppB8ue170006Ev, symObjAddr: 0xFD28, symBinAddr: 0x10001344C, symSize: 0x20 }
  - { offsetInCU: 0x4B5DC, offset: 0x4B5DC, size: 0x8, addend: 0x0, symName: __ZNSt3__114__split_bufferIP5PointRNS_9allocatorIS2_EEE21_ConstructTransactionD1B8ue170006Ev, symObjAddr: 0xFD48, symBinAddr: 0x10001346C, symSize: 0x2C }
  - { offsetInCU: 0x4B606, offset: 0x4B606, size: 0x8, addend: 0x0, symName: __ZNSt3__114__split_bufferIP5PointRNS_9allocatorIS2_EEE21_ConstructTransactionC2B8ue170006EPPS2_m, symObjAddr: 0xFD74, symBinAddr: 0x100013498, symSize: 0x44 }
  - { offsetInCU: 0x4B64C, offset: 0x4B64C, size: 0x8, addend: 0x0, symName: __ZNSt3__19allocatorIP5PointE9constructB8ue170006IS2_JS2_EEEvPT_DpOT0_, symObjAddr: 0xFDB8, symBinAddr: 0x1000134DC, symSize: 0x28 }
  - { offsetInCU: 0x4B6A2, offset: 0x4B6A2, size: 0x8, addend: 0x0, symName: __ZNSt3__117__compressed_pairIPP5PointRNS_9allocatorIS2_EEE6secondB8ue170006Ev, symObjAddr: 0xFDE0, symBinAddr: 0x100013504, symSize: 0x28 }
  - { offsetInCU: 0x4B6C8, offset: 0x4B6C8, size: 0x8, addend: 0x0, symName: __ZNSt3__122__compressed_pair_elemIRNS_9allocatorIP5PointEELi1ELb0EE5__getB8ue170006Ev, symObjAddr: 0xFE08, symBinAddr: 0x10001352C, symSize: 0x18 }
  - { offsetInCU: 0x4B6EE, offset: 0x4B6EE, size: 0x8, addend: 0x0, symName: __ZNSt3__114__split_bufferIP5PointRNS_9allocatorIS2_EEE21_ConstructTransactionD2B8ue170006Ev, symObjAddr: 0xFE20, symBinAddr: 0x100013544, symSize: 0x20 }
  - { offsetInCU: 0x4B718, offset: 0x4B718, size: 0x8, addend: 0x0, symName: __ZNKSt3__113move_iteratorIPP5PointE4baseB8ue170006Ev, symObjAddr: 0xFEB8, symBinAddr: 0x1000135DC, symSize: 0x18 }
  - { offsetInCU: 0x4B73E, offset: 0x4B73E, size: 0x8, addend: 0x0, symName: __ZNSt3__113move_iteratorIPP5PointEC2B8ue170006ES3_, symObjAddr: 0xFED0, symBinAddr: 0x1000135F4, symSize: 0x20 }
  - { offsetInCU: 0x4B776, offset: 0x4B776, size: 0x8, addend: 0x0, symName: __ZNSt3__19allocatorIP5PointE9constructB8ue170006IS2_JRKS2_EEEvPT_DpOT0_, symObjAddr: 0xFEF0, symBinAddr: 0x100013614, symSize: 0x28 }
  - { offsetInCU: 0x4B7D7, offset: 0x4B7D7, size: 0x8, addend: 0x0, symName: __ZNKSt3__123__move_backward_trivialclB8ue170006IP5PointS3_Li0EEENS_4pairIPT_PT0_EES6_S6_S8_, symObjAddr: 0x10094, symBinAddr: 0x1000137B8, symSize: 0x48 }
  - { offsetInCU: 0x4B83F, offset: 0x4B83F, size: 0x8, addend: 0x0, symName: __ZNSt3__14pairIPP5PointS3_EC1B8ue170006IRS3_S6_LPv0EEEOT_OT0_, symObjAddr: 0x101A4, symBinAddr: 0x1000138C8, symSize: 0x3C }
  - { offsetInCU: 0x4B89D, offset: 0x4B89D, size: 0x8, addend: 0x0, symName: __ZNSt3__14pairIPP5PointS3_EC2B8ue170006IRS3_S6_LPv0EEEOT_OT0_, symObjAddr: 0x101E0, symBinAddr: 0x100013904, symSize: 0x34 }
  - { offsetInCU: 0x4B8FB, offset: 0x4B8FB, size: 0x8, addend: 0x0, symName: __ZNSt3__114__split_bufferIP5PointRNS_9allocatorIS2_EEEC2EmmS5_, symObjAddr: 0x10268, symBinAddr: 0x10001398C, symSize: 0xD4 }
  - { offsetInCU: 0x4B96E, offset: 0x4B96E, size: 0x8, addend: 0x0, symName: __ZNSt3__117__compressed_pairIPP5PointRNS_9allocatorIS2_EEEC1B8ue170006IDnS6_EEOT_OT0_, symObjAddr: 0x1033C, symBinAddr: 0x100013A60, symSize: 0x3C }
  - { offsetInCU: 0x4B9C6, offset: 0x4B9C6, size: 0x8, addend: 0x0, symName: __ZNSt3__117__compressed_pairIPP5PointRNS_9allocatorIS2_EEEC2B8ue170006IDnS6_EEOT_OT0_, symObjAddr: 0x103B8, symBinAddr: 0x100013ADC, symSize: 0x48 }
  - { offsetInCU: 0x4BA1E, offset: 0x4BA1E, size: 0x8, addend: 0x0, symName: __ZNSt3__122__compressed_pair_elemIRNS_9allocatorIP5PointEELi1ELb0EEC2B8ue170006IS5_vEEOT_, symObjAddr: 0x10400, symBinAddr: 0x100013B24, symSize: 0x20 }
  - { offsetInCU: 0x4BA60, offset: 0x4BA60, size: 0x8, addend: 0x0, symName: __ZNSt3__19allocatorIP5PointE8allocateB8ue170006Em, symObjAddr: 0x10420, symBinAddr: 0x100013B44, symSize: 0x58 }
  - { offsetInCU: 0x4BA9F, offset: 0x4BA9F, size: 0x8, addend: 0x0, symName: __ZNSt3__116allocator_traitsINS_9allocatorIP5PointEEE8max_sizeB8ue170006IS4_vEEmRKS4_, symObjAddr: 0x10478, symBinAddr: 0x100013B9C, symSize: 0x24 }
  - { offsetInCU: 0x4BACD, offset: 0x4BACD, size: 0x8, addend: 0x0, symName: __ZNKSt3__19allocatorIP5PointE8max_sizeB8ue170006Ev, symObjAddr: 0x1049C, symBinAddr: 0x100013BC0, symSize: 0x14 }
  - { offsetInCU: 0x4BAF3, offset: 0x4BAF3, size: 0x8, addend: 0x0, symName: __ZNSt3__117__compressed_pairIPP5PointNS_9allocatorIS2_EEE5firstB8ue170006Ev, symObjAddr: 0x104B0, symBinAddr: 0x100013BD4, symSize: 0x24 }
  - { offsetInCU: 0x4BB19, offset: 0x4BB19, size: 0x8, addend: 0x0, symName: __ZNSt3__122__compressed_pair_elemIPP5PointLi0ELb0EE5__getB8ue170006Ev, symObjAddr: 0x104D4, symBinAddr: 0x100013BF8, symSize: 0x14 }
  - { offsetInCU: 0x4BB3F, offset: 0x4BB3F, size: 0x8, addend: 0x0, symName: __ZNSt3__117__compressed_pairIPP5PointRNS_9allocatorIS2_EEE5firstB8ue170006Ev, symObjAddr: 0x104E8, symBinAddr: 0x100013C0C, symSize: 0x24 }
  - { offsetInCU: 0x4BB65, offset: 0x4BB65, size: 0x8, addend: 0x0, symName: __ZNSt3__114__split_bufferIP5PointRNS_9allocatorIS2_EEED2Ev, symObjAddr: 0x1050C, symBinAddr: 0x100013C30, symSize: 0x8C }
  - { offsetInCU: 0x4BB91, offset: 0x4BB91, size: 0x8, addend: 0x0, symName: __ZNSt3__114__split_bufferIP5PointRNS_9allocatorIS2_EEE5clearB8ue170006Ev, symObjAddr: 0x10598, symBinAddr: 0x100013CBC, symSize: 0x28 }
  - { offsetInCU: 0x4BBB7, offset: 0x4BBB7, size: 0x8, addend: 0x0, symName: __ZNKSt3__114__split_bufferIP5PointRNS_9allocatorIS2_EEE8capacityB8ue170006Ev, symObjAddr: 0x105C0, symBinAddr: 0x100013CE4, symSize: 0x40 }
  - { offsetInCU: 0x4BBDD, offset: 0x4BBDD, size: 0x8, addend: 0x0, symName: __ZNSt3__114__split_bufferIP5PointRNS_9allocatorIS2_EEE17__destruct_at_endB8ue170006EPS2_, symObjAddr: 0x10600, symBinAddr: 0x100013D24, symSize: 0x2C }
  - { offsetInCU: 0x4BC11, offset: 0x4BC11, size: 0x8, addend: 0x0, symName: __ZNSt3__114__split_bufferIP5PointRNS_9allocatorIS2_EEE17__destruct_at_endB8ue170006EPS2_NS_17integral_constantIbLb0EEE, symObjAddr: 0x1062C, symBinAddr: 0x100013D50, symSize: 0x80 }
  - { offsetInCU: 0x4BC52, offset: 0x4BC52, size: 0x8, addend: 0x0, symName: __ZNKSt3__114__split_bufferIP5PointRNS_9allocatorIS2_EEE9__end_capB8ue170006Ev, symObjAddr: 0x106AC, symBinAddr: 0x100013DD0, symSize: 0x28 }
  - { offsetInCU: 0x4BC78, offset: 0x4BC78, size: 0x8, addend: 0x0, symName: __ZNKSt3__117__compressed_pairIPP5PointRNS_9allocatorIS2_EEE5firstB8ue170006Ev, symObjAddr: 0x106D4, symBinAddr: 0x100013DF8, symSize: 0x24 }
  - { offsetInCU: 0x4BC9E, offset: 0x4BC9E, size: 0x8, addend: 0x0, symName: __ZNSt3__116__deque_iteratorI5PointPS1_RS1_PS2_lLl512EEpLB8ue170006El, symObjAddr: 0x106F8, symBinAddr: 0x100013E1C, symSize: 0x110 }
  - { offsetInCU: 0x4BCF0, offset: 0x4BCF0, size: 0x8, addend: 0x0, symName: __ZNSt3__15dequeI5PointNS_9allocatorIS1_EEE13__deque_rangeC2B8ue170006ENS_16__deque_iteratorIS1_PS1_RS1_PS7_lLl512EEESA_, symObjAddr: 0x10808, symBinAddr: 0x100013F2C, symSize: 0x34 }
  - { offsetInCU: 0x4BD38, offset: 0x4BD38, size: 0x8, addend: 0x0, symName: __ZNSt3__15dequeI5PointNS_9allocatorIS1_EEE19__deque_block_rangeC1B8ue170006EPS1_S6_, symObjAddr: 0x1086C, symBinAddr: 0x100013F90, symSize: 0x3C }
  - { offsetInCU: 0x4BD80, offset: 0x4BD80, size: 0x8, addend: 0x0, symName: __ZNSt3__15dequeI5PointNS_9allocatorIS1_EEE19__deque_block_rangeC2B8ue170006EPS1_S6_, symObjAddr: 0x108A8, symBinAddr: 0x100013FCC, symSize: 0x2C }
  - { offsetInCU: 0x4BDC8, offset: 0x4BDC8, size: 0x8, addend: 0x0, symName: __ZNSt3__15dequeI5PointNS_9allocatorIS1_EEE21_ConstructTransactionC2B8ue170006EPS4_RNS4_19__deque_block_rangeE, symObjAddr: 0x108D4, symBinAddr: 0x100013FF8, symSize: 0x48 }
  - { offsetInCU: 0x4BE10, offset: 0x4BE10, size: 0x8, addend: 0x0, symName: __ZNSt3__19allocatorI5PointE9constructB8ue170006IS1_JRS1_EEEvPT_DpOT0_, symObjAddr: 0x1091C, symBinAddr: 0x100014040, symSize: 0x28 }
  - { offsetInCU: 0x4BE66, offset: 0x4BE66, size: 0x8, addend: 0x0, symName: __ZNSt3__15dequeI5PointNS_9allocatorIS1_EEE21_ConstructTransactionD2B8ue170006Ev, symObjAddr: 0x10944, symBinAddr: 0x100014068, symSize: 0x5C }
  - { offsetInCU: 0x4BE90, offset: 0x4BE90, size: 0x8, addend: 0x0, symName: __ZNKSt3__15dequeI5PointNS_9allocatorIS1_EEE22__annotate_shrink_backB8ue170006Emm, symObjAddr: 0x10A44, symBinAddr: 0x100014168, symSize: 0x60 }
  - { offsetInCU: 0x4BED4, offset: 0x4BED4, size: 0x8, addend: 0x0, symName: __ZNSt3__15dequeI5PointNS_9allocatorIS1_EEE25__maybe_remove_back_spareB8ue170006Eb, symObjAddr: 0x10AA4, symBinAddr: 0x1000141C8, symSize: 0xE8 }
  - { offsetInCU: 0x4BF09, offset: 0x4BF09, size: 0x8, addend: 0x0, symName: __ZNKSt3__15dequeI5PointNS_9allocatorIS1_EEE19__back_spare_blocksB8ue170006Ev, symObjAddr: 0x10BF0, symBinAddr: 0x100014314, symSize: 0x2C }
  - { offsetInCU: 0x4BF2F, offset: 0x4BF2F, size: 0x8, addend: 0x0, symName: __ZNSt3__114__split_bufferIP5PointNS_9allocatorIS2_EEE4backB8ue170006Ev, symObjAddr: 0x10C1C, symBinAddr: 0x100014340, symSize: 0x1C }
  - { offsetInCU: 0x4BF55, offset: 0x4BF55, size: 0x8, addend: 0x0, symName: __ZNSt3__114__split_bufferIP5PointNS_9allocatorIS2_EEE8pop_backB8ue170006Ev, symObjAddr: 0x10C38, symBinAddr: 0x10001435C, symSize: 0x2C }
  - { offsetInCU: 0x4BF7B, offset: 0x4BF7B, size: 0x8, addend: 0x0, symName: __ZNSt3__116__deque_iteratorI5PointPKS1_RS2_PKS3_lLl512EEC2B8ue170006IPS1_RS1_PS9_EERKNS0_IS1_T_T0_T1_lLl512EEEPNS_9enable_ifIXsr14is_convertibleISC_S3_EE5valueEvE4typeE, symObjAddr: 0x10C64, symBinAddr: 0x100014388, symSize: 0x34 }
  - { offsetInCU: 0x4BFDB, offset: 0x4BFDB, size: 0x8, addend: 0x0, symName: __ZNKSt3__15dequeI5PointNS_9allocatorIS1_EEE5beginB8ue170006Ev, symObjAddr: 0x10C98, symBinAddr: 0x1000143BC, symSize: 0xA8 }
  - { offsetInCU: 0x4C010, offset: 0x4C010, size: 0x8, addend: 0x0, symName: __ZNKSt3__15dequeI5PointNS_9allocatorIS1_EEE3endB8ue170006Ev, symObjAddr: 0x10D40, symBinAddr: 0x100014464, symSize: 0xBC }
  - { offsetInCU: 0x4C054, offset: 0x4C054, size: 0x8, addend: 0x0, symName: __ZNKSt3__116__deque_iteratorI5PointPKS1_RS2_PKS3_lLl512EEdeB8ue170006Ev, symObjAddr: 0x10DFC, symBinAddr: 0x100014520, symSize: 0x18 }
  - { offsetInCU: 0x4C079, offset: 0x4C079, size: 0x8, addend: 0x0, symName: __ZlsRNSt3__113basic_ostreamIcNS_11char_traitsIcEEEERK5Point, symObjAddr: 0x10E14, symBinAddr: 0x100014538, symSize: 0x64 }
  - { offsetInCU: 0x4C0B4, offset: 0x4C0B4, size: 0x8, addend: 0x0, symName: __ZNSt3__116__deque_iteratorI5PointPKS1_RS2_PKS3_lLl512EEppB8ue170006Ev, symObjAddr: 0x10E78, symBinAddr: 0x10001459C, symSize: 0x70 }
  - { offsetInCU: 0x4C0DA, offset: 0x4C0DA, size: 0x8, addend: 0x0, symName: __ZNSt3__116__deque_iteratorI5PointPKS1_RS2_PKS3_lLl512EEC1B8ue170006ES6_S3_, symObjAddr: 0x10EE8, symBinAddr: 0x10001460C, symSize: 0x3C }
  - { offsetInCU: 0x4C122, offset: 0x4C122, size: 0x8, addend: 0x0, symName: __ZNSt3__116__deque_iteratorI5PointPKS1_RS2_PKS3_lLl512EEC2B8ue170006ES6_S3_, symObjAddr: 0x10F24, symBinAddr: 0x100014648, symSize: 0x2C }
  - { offsetInCU: 0x4C16A, offset: 0x4C16A, size: 0x8, addend: 0x0, symName: __ZNSt3__112basic_stringIcNS_11char_traitsIcEENS_9allocatorIcEEEC2B8ue170006ILi0EEEPKc, symObjAddr: 0x10F50, symBinAddr: 0x100014674, symSize: 0x58 }
  - { offsetInCU: 0x4C1A9, offset: 0x4C1A9, size: 0x8, addend: 0x0, symName: __ZNSt3__15dequeI8MyStringNS_9allocatorIS1_EEEC2B8ue170006Ev, symObjAddr: 0x10FA8, symBinAddr: 0x1000146CC, symSize: 0x5C }
  - { offsetInCU: 0x4C1D3, offset: 0x4C1D3, size: 0x8, addend: 0x0, symName: __ZNSt3__114__split_bufferIP8MyStringNS_9allocatorIS2_EEEC1B8ue170006Ev, symObjAddr: 0x11004, symBinAddr: 0x100014728, symSize: 0x2C }
  - { offsetInCU: 0x4C1FD, offset: 0x4C1FD, size: 0x8, addend: 0x0, symName: __ZNSt3__117__compressed_pairImNS_9allocatorI8MyStringEEEC1B8ue170006IiNS_18__default_init_tagEEEOT_OT0_, symObjAddr: 0x11030, symBinAddr: 0x100014754, symSize: 0x3C }
  - { offsetInCU: 0x4C255, offset: 0x4C255, size: 0x8, addend: 0x0, symName: __ZNKSt3__15dequeI8MyStringNS_9allocatorIS1_EEE14__annotate_newB8ue170006Em, symObjAddr: 0x1106C, symBinAddr: 0x100014790, symSize: 0xC8 }
  - { offsetInCU: 0x4C28A, offset: 0x4C28A, size: 0x8, addend: 0x0, symName: __ZNSt3__114__split_bufferIP8MyStringNS_9allocatorIS2_EEEC2B8ue170006Ev, symObjAddr: 0x11134, symBinAddr: 0x100014858, symSize: 0x50 }
  - { offsetInCU: 0x4C2B4, offset: 0x4C2B4, size: 0x8, addend: 0x0, symName: __ZNSt3__117__compressed_pairIPP8MyStringNS_9allocatorIS2_EEEC1B8ue170006IDnNS_18__default_init_tagEEEOT_OT0_, symObjAddr: 0x11184, symBinAddr: 0x1000148A8, symSize: 0x3C }
  - { offsetInCU: 0x4C30C, offset: 0x4C30C, size: 0x8, addend: 0x0, symName: __ZNSt3__117__compressed_pairIPP8MyStringNS_9allocatorIS2_EEEC2B8ue170006IDnNS_18__default_init_tagEEEOT_OT0_, symObjAddr: 0x111C0, symBinAddr: 0x1000148E4, symSize: 0x40 }
  - { offsetInCU: 0x4C364, offset: 0x4C364, size: 0x8, addend: 0x0, symName: __ZNSt3__122__compressed_pair_elemIPP8MyStringLi0ELb0EEC2B8ue170006IDnvEEOT_, symObjAddr: 0x11200, symBinAddr: 0x100014924, symSize: 0x1C }
  - { offsetInCU: 0x4C3A6, offset: 0x4C3A6, size: 0x8, addend: 0x0, symName: __ZNSt3__122__compressed_pair_elemINS_9allocatorIP8MyStringEELi1ELb1EEC2B8ue170006ENS_18__default_init_tagE, symObjAddr: 0x1121C, symBinAddr: 0x100014940, symSize: 0x2C }
  - { offsetInCU: 0x4C3DB, offset: 0x4C3DB, size: 0x8, addend: 0x0, symName: __ZNSt3__19allocatorIP8MyStringEC2B8ue170006Ev, symObjAddr: 0x11248, symBinAddr: 0x10001496C, symSize: 0x2C }
  - { offsetInCU: 0x4C405, offset: 0x4C405, size: 0x8, addend: 0x0, symName: __ZNSt3__116__non_trivial_ifILb1ENS_9allocatorIP8MyStringEEEC2B8ue170006Ev, symObjAddr: 0x11274, symBinAddr: 0x100014998, symSize: 0x14 }
  - { offsetInCU: 0x4C42F, offset: 0x4C42F, size: 0x8, addend: 0x0, symName: __ZNSt3__117__compressed_pairImNS_9allocatorI8MyStringEEEC2B8ue170006IiNS_18__default_init_tagEEEOT_OT0_, symObjAddr: 0x11288, symBinAddr: 0x1000149AC, symSize: 0x40 }
  - { offsetInCU: 0x4C487, offset: 0x4C487, size: 0x8, addend: 0x0, symName: __ZNSt3__122__compressed_pair_elemINS_9allocatorI8MyStringEELi1ELb1EEC2B8ue170006ENS_18__default_init_tagE, symObjAddr: 0x112C8, symBinAddr: 0x1000149EC, symSize: 0x2C }
  - { offsetInCU: 0x4C4BC, offset: 0x4C4BC, size: 0x8, addend: 0x0, symName: __ZNSt3__19allocatorI8MyStringEC2B8ue170006Ev, symObjAddr: 0x112F4, symBinAddr: 0x100014A18, symSize: 0x2C }
  - { offsetInCU: 0x4C4E6, offset: 0x4C4E6, size: 0x8, addend: 0x0, symName: __ZNSt3__116__non_trivial_ifILb1ENS_9allocatorI8MyStringEEEC2B8ue170006Ev, symObjAddr: 0x11320, symBinAddr: 0x100014A44, symSize: 0x14 }
  - { offsetInCU: 0x4C510, offset: 0x4C510, size: 0x8, addend: 0x0, symName: __ZNKSt3__15dequeI8MyStringNS_9allocatorIS1_EEE18__annotate_from_toB8ue170006EmmNS4_22__asan_annotation_typeENS4_23__asan_annotation_placeE, symObjAddr: 0x11334, symBinAddr: 0x100014A58, symSize: 0x580 }
  - { offsetInCU: 0x4C6CC, offset: 0x4C6CC, size: 0x8, addend: 0x0, symName: __ZNKSt3__114__split_bufferIP8MyStringNS_9allocatorIS2_EEE4sizeB8ue170006Ev, symObjAddr: 0x118B4, symBinAddr: 0x100014FD8, symSize: 0x28 }
  - { offsetInCU: 0x4C6F2, offset: 0x4C6F2, size: 0x8, addend: 0x0, symName: __ZNKSt3__114__split_bufferIP8MyStringNS_9allocatorIS2_EEE5beginB8ue170006Ev, symObjAddr: 0x118DC, symBinAddr: 0x100015000, symSize: 0x18 }
  - { offsetInCU: 0x4C718, offset: 0x4C718, size: 0x8, addend: 0x0, symName: __ZNKSt3__15dequeI8MyStringNS_9allocatorIS1_EEE4sizeB8ue170006Ev, symObjAddr: 0x118F4, symBinAddr: 0x100015018, symSize: 0x28 }
  - { offsetInCU: 0x4C73E, offset: 0x4C73E, size: 0x8, addend: 0x0, symName: __ZNKSt3__15dequeI8MyStringNS_9allocatorIS1_EEE5emptyB8ue170006Ev, symObjAddr: 0x1191C, symBinAddr: 0x100015040, symSize: 0x30 }
  - { offsetInCU: 0x4C764, offset: 0x4C764, size: 0x8, addend: 0x0, symName: __ZNKSt3__15dequeI8MyStringNS_9allocatorIS1_EEE44__annotate_double_ended_contiguous_containerB8ue170006EPKvS6_S6_S6_S6_S6_, symObjAddr: 0x11960, symBinAddr: 0x100015084, symSize: 0x28 }
  - { offsetInCU: 0x4C7D2, offset: 0x4C7D2, size: 0x8, addend: 0x0, symName: __ZNKSt3__15dequeI8MyStringNS_9allocatorIS1_EEE6__sizeB8ue170006Ev, symObjAddr: 0x11988, symBinAddr: 0x1000150AC, symSize: 0x28 }
  - { offsetInCU: 0x4C7F8, offset: 0x4C7F8, size: 0x8, addend: 0x0, symName: __ZNKSt3__117__compressed_pairImNS_9allocatorI8MyStringEEE5firstB8ue170006Ev, symObjAddr: 0x119B0, symBinAddr: 0x1000150D4, symSize: 0x24 }
  - { offsetInCU: 0x4C81E, offset: 0x4C81E, size: 0x8, addend: 0x0, symName: __ZNSt3__15dequeI8MyStringNS_9allocatorIS1_EEED2B8ue170006Ev, symObjAddr: 0x119D4, symBinAddr: 0x1000150F8, symSize: 0xA4 }
  - { offsetInCU: 0x4C874, offset: 0x4C874, size: 0x8, addend: 0x0, symName: __ZNSt3__15dequeI8MyStringNS_9allocatorIS1_EEE5clearEv, symObjAddr: 0x11A78, symBinAddr: 0x10001519C, symSize: 0x180 }
  - { offsetInCU: 0x4C8CF, offset: 0x4C8CF, size: 0x8, addend: 0x0, symName: __ZNKSt3__15dequeI8MyStringNS_9allocatorIS1_EEE17__annotate_deleteB8ue170006Ev, symObjAddr: 0x11BF8, symBinAddr: 0x10001531C, symSize: 0xE8 }
  - { offsetInCU: 0x4C912, offset: 0x4C912, size: 0x8, addend: 0x0, symName: __ZNSt3__114__split_bufferIP8MyStringNS_9allocatorIS2_EEE5beginB8ue170006Ev, symObjAddr: 0x11CE0, symBinAddr: 0x100015404, symSize: 0x18 }
  - { offsetInCU: 0x4C938, offset: 0x4C938, size: 0x8, addend: 0x0, symName: __ZNSt3__114__split_bufferIP8MyStringNS_9allocatorIS2_EEE3endB8ue170006Ev, symObjAddr: 0x11CF8, symBinAddr: 0x10001541C, symSize: 0x18 }
  - { offsetInCU: 0x4C95E, offset: 0x4C95E, size: 0x8, addend: 0x0, symName: __ZNSt3__116allocator_traitsINS_9allocatorI8MyStringEEE10deallocateB8ue170006ERS3_PS2_m, symObjAddr: 0x11D10, symBinAddr: 0x100015434, symSize: 0x34 }
  - { offsetInCU: 0x4C9A0, offset: 0x4C9A0, size: 0x8, addend: 0x0, symName: __ZNSt3__15dequeI8MyStringNS_9allocatorIS1_EEE7__allocB8ue170006Ev, symObjAddr: 0x11D44, symBinAddr: 0x100015468, symSize: 0x28 }
  - { offsetInCU: 0x4C9C6, offset: 0x4C9C6, size: 0x8, addend: 0x0, symName: __ZNSt3__114__split_bufferIP8MyStringNS_9allocatorIS2_EEED1Ev, symObjAddr: 0x11D6C, symBinAddr: 0x100015490, symSize: 0x2C }
  - { offsetInCU: 0x4C9F2, offset: 0x4C9F2, size: 0x8, addend: 0x0, symName: __ZNSt3__116allocator_traitsINS_9allocatorI8MyStringEEE7destroyB8ue170006IS2_vEEvRS3_PT_, symObjAddr: 0x11D98, symBinAddr: 0x1000154BC, symSize: 0x2C }
  - { offsetInCU: 0x4CA2F, offset: 0x4CA2F, size: 0x8, addend: 0x0, symName: __ZNKSt3__116__deque_iteratorI8MyStringPS1_RS1_PS2_lLl512EEdeB8ue170006Ev, symObjAddr: 0x11DC4, symBinAddr: 0x1000154E8, symSize: 0x18 }
  - { offsetInCU: 0x4CA55, offset: 0x4CA55, size: 0x8, addend: 0x0, symName: __ZNSt3__15dequeI8MyStringNS_9allocatorIS1_EEE6__sizeB8ue170006Ev, symObjAddr: 0x11DDC, symBinAddr: 0x100015500, symSize: 0x28 }
  - { offsetInCU: 0x4CA7B, offset: 0x4CA7B, size: 0x8, addend: 0x0, symName: __ZNSt3__114__split_bufferIP8MyStringNS_9allocatorIS2_EEE5frontB8ue170006Ev, symObjAddr: 0x11E04, symBinAddr: 0x100015528, symSize: 0x18 }
  - { offsetInCU: 0x4CAA1, offset: 0x4CAA1, size: 0x8, addend: 0x0, symName: __ZNSt3__114__split_bufferIP8MyStringNS_9allocatorIS2_EEE9pop_frontB8ue170006Ev, symObjAddr: 0x11E1C, symBinAddr: 0x100015540, symSize: 0x2C }
  - { offsetInCU: 0x4CAC7, offset: 0x4CAC7, size: 0x8, addend: 0x0, symName: __ZNSt3__19allocatorI8MyStringE7destroyB8ue170006EPS1_, symObjAddr: 0x11E48, symBinAddr: 0x10001556C, symSize: 0x28 }
  - { offsetInCU: 0x4CAFB, offset: 0x4CAFB, size: 0x8, addend: 0x0, symName: __ZNSt3__117__compressed_pairImNS_9allocatorI8MyStringEEE5firstB8ue170006Ev, symObjAddr: 0x11E70, symBinAddr: 0x100015594, symSize: 0x24 }
  - { offsetInCU: 0x4CB21, offset: 0x4CB21, size: 0x8, addend: 0x0, symName: __ZNSt3__114__split_bufferIP8MyStringNS_9allocatorIS2_EEE19__destruct_at_beginB8ue170006EPS2_, symObjAddr: 0x11E94, symBinAddr: 0x1000155B8, symSize: 0x2C }
  - { offsetInCU: 0x4CB55, offset: 0x4CB55, size: 0x8, addend: 0x0, symName: __ZNSt3__114__split_bufferIP8MyStringNS_9allocatorIS2_EEE19__destruct_at_beginEPS2_NS_17integral_constantIbLb1EEE, symObjAddr: 0x11EC0, symBinAddr: 0x1000155E4, symSize: 0x20 }
  - { offsetInCU: 0x4CB96, offset: 0x4CB96, size: 0x8, addend: 0x0, symName: __ZNKSt3__15dequeI8MyStringNS_9allocatorIS1_EEE22__annotate_whole_blockB8ue170006EmNS4_22__asan_annotation_typeE, symObjAddr: 0x11EE0, symBinAddr: 0x100015604, symSize: 0xAC }
  - { offsetInCU: 0x4CC07, offset: 0x4CC07, size: 0x8, addend: 0x0, symName: __ZNKSt3__15dequeI8MyStringNS_9allocatorIS1_EEE23__annotate_poison_blockB8ue170006EPKvS6_, symObjAddr: 0x11F8C, symBinAddr: 0x1000156B0, symSize: 0x44 }
  - { offsetInCU: 0x4CC4B, offset: 0x4CC4B, size: 0x8, addend: 0x0, symName: __ZNSt3__19allocatorI8MyStringE10deallocateB8ue170006EPS1_m, symObjAddr: 0x11FD0, symBinAddr: 0x1000156F4, symSize: 0x40 }
  - { offsetInCU: 0x4CC8D, offset: 0x4CC8D, size: 0x8, addend: 0x0, symName: __ZNSt3__117__compressed_pairImNS_9allocatorI8MyStringEEE6secondB8ue170006Ev, symObjAddr: 0x12010, symBinAddr: 0x100015734, symSize: 0x24 }
  - { offsetInCU: 0x4CCB3, offset: 0x4CCB3, size: 0x8, addend: 0x0, symName: __ZNSt3__122__compressed_pair_elemINS_9allocatorI8MyStringEELi1ELb1EE5__getB8ue170006Ev, symObjAddr: 0x12034, symBinAddr: 0x100015758, symSize: 0x14 }
  - { offsetInCU: 0x4CCD9, offset: 0x4CCD9, size: 0x8, addend: 0x0, symName: __ZNSt3__114__split_bufferIP8MyStringNS_9allocatorIS2_EEED2Ev, symObjAddr: 0x12048, symBinAddr: 0x10001576C, symSize: 0x8C }
  - { offsetInCU: 0x4CD05, offset: 0x4CD05, size: 0x8, addend: 0x0, symName: __ZNSt3__114__split_bufferIP8MyStringNS_9allocatorIS2_EEE5clearB8ue170006Ev, symObjAddr: 0x120D4, symBinAddr: 0x1000157F8, symSize: 0x28 }
  - { offsetInCU: 0x4CD2B, offset: 0x4CD2B, size: 0x8, addend: 0x0, symName: __ZNSt3__116allocator_traitsINS_9allocatorIP8MyStringEEE10deallocateB8ue170006ERS4_PS3_m, symObjAddr: 0x120FC, symBinAddr: 0x100015820, symSize: 0x34 }
  - { offsetInCU: 0x4CD6D, offset: 0x4CD6D, size: 0x8, addend: 0x0, symName: __ZNSt3__114__split_bufferIP8MyStringNS_9allocatorIS2_EEE7__allocB8ue170006Ev, symObjAddr: 0x12130, symBinAddr: 0x100015854, symSize: 0x28 }
  - { offsetInCU: 0x4CD93, offset: 0x4CD93, size: 0x8, addend: 0x0, symName: __ZNKSt3__114__split_bufferIP8MyStringNS_9allocatorIS2_EEE8capacityB8ue170006Ev, symObjAddr: 0x12158, symBinAddr: 0x10001587C, symSize: 0x40 }
  - { offsetInCU: 0x4CDB9, offset: 0x4CDB9, size: 0x8, addend: 0x0, symName: __ZNSt3__114__split_bufferIP8MyStringNS_9allocatorIS2_EEE17__destruct_at_endB8ue170006EPS2_, symObjAddr: 0x12198, symBinAddr: 0x1000158BC, symSize: 0x2C }
  - { offsetInCU: 0x4CDED, offset: 0x4CDED, size: 0x8, addend: 0x0, symName: __ZNSt3__114__split_bufferIP8MyStringNS_9allocatorIS2_EEE17__destruct_at_endB8ue170006EPS2_NS_17integral_constantIbLb0EEE, symObjAddr: 0x121C4, symBinAddr: 0x1000158E8, symSize: 0x80 }
  - { offsetInCU: 0x4CE2E, offset: 0x4CE2E, size: 0x8, addend: 0x0, symName: __ZNSt3__116allocator_traitsINS_9allocatorIP8MyStringEEE7destroyB8ue170006IS3_vEEvRS4_PT_, symObjAddr: 0x12244, symBinAddr: 0x100015968, symSize: 0x2C }
  - { offsetInCU: 0x4CE6B, offset: 0x4CE6B, size: 0x8, addend: 0x0, symName: __ZNSt3__19allocatorIP8MyStringE7destroyB8ue170006EPS2_, symObjAddr: 0x12284, symBinAddr: 0x1000159A8, symSize: 0x14 }
  - { offsetInCU: 0x4CE9F, offset: 0x4CE9F, size: 0x8, addend: 0x0, symName: __ZNSt3__19allocatorIP8MyStringE10deallocateB8ue170006EPS2_m, symObjAddr: 0x12298, symBinAddr: 0x1000159BC, symSize: 0x40 }
  - { offsetInCU: 0x4CEE1, offset: 0x4CEE1, size: 0x8, addend: 0x0, symName: __ZNSt3__117__compressed_pairIPP8MyStringNS_9allocatorIS2_EEE6secondB8ue170006Ev, symObjAddr: 0x122D8, symBinAddr: 0x1000159FC, symSize: 0x24 }
  - { offsetInCU: 0x4CF07, offset: 0x4CF07, size: 0x8, addend: 0x0, symName: __ZNSt3__122__compressed_pair_elemINS_9allocatorIP8MyStringEELi1ELb1EE5__getB8ue170006Ev, symObjAddr: 0x122FC, symBinAddr: 0x100015A20, symSize: 0x14 }
  - { offsetInCU: 0x4CF2D, offset: 0x4CF2D, size: 0x8, addend: 0x0, symName: __ZNKSt3__114__split_bufferIP8MyStringNS_9allocatorIS2_EEE9__end_capB8ue170006Ev, symObjAddr: 0x12310, symBinAddr: 0x100015A34, symSize: 0x28 }
  - { offsetInCU: 0x4CF53, offset: 0x4CF53, size: 0x8, addend: 0x0, symName: __ZNKSt3__117__compressed_pairIPP8MyStringNS_9allocatorIS2_EEE5firstB8ue170006Ev, symObjAddr: 0x12338, symBinAddr: 0x100015A5C, symSize: 0x24 }
  - { offsetInCU: 0x4CF79, offset: 0x4CF79, size: 0x8, addend: 0x0, symName: __ZNKSt3__122__compressed_pair_elemIPP8MyStringLi0ELb0EE5__getB8ue170006Ev, symObjAddr: 0x1235C, symBinAddr: 0x100015A80, symSize: 0x14 }
  - { offsetInCU: 0x4CF9F, offset: 0x4CF9F, size: 0x8, addend: 0x0, symName: __ZNKSt3__15dequeI8MyStringNS_9allocatorIS1_EEE12__back_spareB8ue170006Ev, symObjAddr: 0x12370, symBinAddr: 0x100015A94, symSize: 0x54 }
  - { offsetInCU: 0x4CFC5, offset: 0x4CFC5, size: 0x8, addend: 0x0, symName: __ZNSt3__15dequeI8MyStringNS_9allocatorIS1_EEE19__add_back_capacityEv, symObjAddr: 0x123C4, symBinAddr: 0x100015AE8, symSize: 0x34C }
  - { offsetInCU: 0x4D07A, offset: 0x4D07A, size: 0x8, addend: 0x0, symName: __ZNKSt3__15dequeI8MyStringNS_9allocatorIS1_EEE24__annotate_increase_backB8ue170006Em, symObjAddr: 0x12710, symBinAddr: 0x100015E34, symSize: 0x7C }
  - { offsetInCU: 0x4D0B5, offset: 0x4D0B5, size: 0x8, addend: 0x0, symName: __ZNSt3__116allocator_traitsINS_9allocatorI8MyStringEEE9constructB8ue170006IS2_JS2_EvEEvRS3_PT_DpOT0_, symObjAddr: 0x1278C, symBinAddr: 0x100015EB0, symSize: 0x34 }
  - { offsetInCU: 0x4D10C, offset: 0x4D10C, size: 0x8, addend: 0x0, symName: __ZNKSt3__15dequeI8MyStringNS_9allocatorIS1_EEE10__capacityB8ue170006Ev, symObjAddr: 0x127C0, symBinAddr: 0x100015EE4, symSize: 0x60 }
  - { offsetInCU: 0x4D132, offset: 0x4D132, size: 0x8, addend: 0x0, symName: __ZNKSt3__15dequeI8MyStringNS_9allocatorIS1_EEE13__front_spareB8ue170006Ev, symObjAddr: 0x12820, symBinAddr: 0x100015F44, symSize: 0x18 }
  - { offsetInCU: 0x4D158, offset: 0x4D158, size: 0x8, addend: 0x0, symName: __ZNSt3__114__split_bufferIP8MyStringNS_9allocatorIS2_EEE9push_backB8ue170006ERKS2_, symObjAddr: 0x12838, symBinAddr: 0x100015F5C, symSize: 0x260 }
  - { offsetInCU: 0x4D1D0, offset: 0x4D1D0, size: 0x8, addend: 0x0, symName: __ZNKSt3__114__split_bufferIP8MyStringNS_9allocatorIS2_EEE12__back_spareB8ue170006Ev, symObjAddr: 0x12A98, symBinAddr: 0x1000161BC, symSize: 0x40 }
  - { offsetInCU: 0x4D1F6, offset: 0x4D1F6, size: 0x8, addend: 0x0, symName: __ZNSt3__114__split_bufferIP8MyStringNS_9allocatorIS2_EEE9push_backEOS2_, symObjAddr: 0x12AD8, symBinAddr: 0x1000161FC, symSize: 0x260 }
  - { offsetInCU: 0x4D26E, offset: 0x4D26E, size: 0x8, addend: 0x0, symName: __ZNSt3__116allocator_traitsINS_9allocatorI8MyStringEEE8allocateB8ue170006ERS3_m, symObjAddr: 0x12D38, symBinAddr: 0x10001645C, symSize: 0x2C }
  - { offsetInCU: 0x4D2A1, offset: 0x4D2A1, size: 0x8, addend: 0x0, symName: __ZNSt3__114__split_bufferIP8MyStringNS_9allocatorIS2_EEE10push_frontEOS2_, symObjAddr: 0x12D64, symBinAddr: 0x100016488, symSize: 0x25C }
  - { offsetInCU: 0x4D319, offset: 0x4D319, size: 0x8, addend: 0x0, symName: __ZNSt3__114__split_bufferIP8MyStringRNS_9allocatorIS2_EEEC1EmmS5_, symObjAddr: 0x12FC0, symBinAddr: 0x1000166E4, symSize: 0x44 }
  - { offsetInCU: 0x4D375, offset: 0x4D375, size: 0x8, addend: 0x0, symName: __ZNSt3__122__allocator_destructorINS_9allocatorI8MyStringEEEC1B8ue170006ERS3_m, symObjAddr: 0x13004, symBinAddr: 0x100016728, symSize: 0x3C }
  - { offsetInCU: 0x4D44B, offset: 0x4D44B, size: 0x8, addend: 0x0, symName: __ZNSt3__110unique_ptrIP8MyStringNS_22__allocator_destructorINS_9allocatorIS1_EEEEEC1B8ue170006ILb1EvEES2_NS_16__dependent_typeINS_27__unique_ptr_deleter_sfinaeIS6_EEXT_EE20__good_rval_ref_typeE, symObjAddr: 0x13040, symBinAddr: 0x100016764, symSize: 0x3C }
  - { offsetInCU: 0x4D49C, offset: 0x4D49C, size: 0x8, addend: 0x0, symName: __ZNSt3__114__split_bufferIP8MyStringRNS_9allocatorIS2_EEE9push_backEOS2_, symObjAddr: 0x1307C, symBinAddr: 0x1000167A0, symSize: 0x260 }
  - { offsetInCU: 0x4D514, offset: 0x4D514, size: 0x8, addend: 0x0, symName: __ZNKSt3__110unique_ptrIP8MyStringNS_22__allocator_destructorINS_9allocatorIS1_EEEEE3getB8ue170006Ev, symObjAddr: 0x132DC, symBinAddr: 0x100016A00, symSize: 0x28 }
  - { offsetInCU: 0x4D53A, offset: 0x4D53A, size: 0x8, addend: 0x0, symName: __ZNSt3__110unique_ptrIP8MyStringNS_22__allocator_destructorINS_9allocatorIS1_EEEEE7releaseB8ue170006Ev, symObjAddr: 0x13304, symBinAddr: 0x100016A28, symSize: 0x44 }
  - { offsetInCU: 0x4D56F, offset: 0x4D56F, size: 0x8, addend: 0x0, symName: __ZNSt3__114__split_bufferIP8MyStringRNS_9allocatorIS2_EEE10push_frontERKS2_, symObjAddr: 0x13348, symBinAddr: 0x100016A6C, symSize: 0x25C }
  - { offsetInCU: 0x4D5E7, offset: 0x4D5E7, size: 0x8, addend: 0x0, symName: __ZNSt3__114__split_bufferIP8MyStringNS_9allocatorIS2_EEE9__end_capB8ue170006Ev, symObjAddr: 0x135E0, symBinAddr: 0x100016D04, symSize: 0x28 }
  - { offsetInCU: 0x4D60D, offset: 0x4D60D, size: 0x8, addend: 0x0, symName: __ZNSt3__114__split_bufferIP8MyStringRNS_9allocatorIS2_EEE9__end_capB8ue170006Ev, symObjAddr: 0x13608, symBinAddr: 0x100016D2C, symSize: 0x28 }
  - { offsetInCU: 0x4D633, offset: 0x4D633, size: 0x8, addend: 0x0, symName: __ZNSt3__110unique_ptrIP8MyStringNS_22__allocator_destructorINS_9allocatorIS1_EEEEED1B8ue170006Ev, symObjAddr: 0x13630, symBinAddr: 0x100016D54, symSize: 0x2C }
  - { offsetInCU: 0x4D65D, offset: 0x4D65D, size: 0x8, addend: 0x0, symName: __ZNSt3__114__split_bufferIP8MyStringRNS_9allocatorIS2_EEED1Ev, symObjAddr: 0x1365C, symBinAddr: 0x100016D80, symSize: 0x2C }
  - { offsetInCU: 0x4D689, offset: 0x4D689, size: 0x8, addend: 0x0, symName: __ZNSt3__114__split_bufferIP8MyStringRNS_9allocatorIS2_EEE18__construct_at_endINS_13move_iteratorIPS2_EEEENS_9enable_ifIXsr31__has_forward_iterator_categoryIT_EE5valueEvE4typeESC_SC_, symObjAddr: 0x136C8, symBinAddr: 0x100016DEC, symSize: 0x60 }
  - { offsetInCU: 0x4D6D6, offset: 0x4D6D6, size: 0x8, addend: 0x0, symName: __ZNSt3__113move_iteratorIPP8MyStringEC1B8ue170006ES3_, symObjAddr: 0x13728, symBinAddr: 0x100016E4C, symSize: 0x34 }
  - { offsetInCU: 0x4D70E, offset: 0x4D70E, size: 0x8, addend: 0x0, symName: __ZNSt3__116allocator_traitsINS_9allocatorIP8MyStringEEE9constructB8ue170006IS3_JRKS3_EvEEvRS4_PT_DpOT0_, symObjAddr: 0x1375C, symBinAddr: 0x100016E80, symSize: 0x34 }
  - { offsetInCU: 0x4D782, offset: 0x4D782, size: 0x8, addend: 0x0, symName: __ZNKSt3__114__move_trivialclB8ue170006IP8MyStringS3_Li0EEENS_4pairIPT_PT0_EES6_S6_S8_, symObjAddr: 0x1392C, symBinAddr: 0x100017050, symSize: 0x48 }
  - { offsetInCU: 0x4D7F0, offset: 0x4D7F0, size: 0x8, addend: 0x0, symName: __ZNSt3__14pairIPP8MyStringS3_EC1B8ue170006IRS3_S3_LPv0EEEOT_OT0_, symObjAddr: 0x13B54, symBinAddr: 0x100017278, symSize: 0x3C }
  - { offsetInCU: 0x4D84E, offset: 0x4D84E, size: 0x8, addend: 0x0, symName: __ZNSt3__14pairIPP8MyStringS3_EC2B8ue170006IRS3_S3_LPv0EEEOT_OT0_, symObjAddr: 0x13B90, symBinAddr: 0x1000172B4, symSize: 0x34 }
  - { offsetInCU: 0x4D8AC, offset: 0x4D8AC, size: 0x8, addend: 0x0, symName: __ZNSt3__118__unwrap_iter_implIPP8MyStringLb1EE8__unwrapB8ue170006ES3_, symObjAddr: 0x13BC4, symBinAddr: 0x1000172E8, symSize: 0x24 }
  - { offsetInCU: 0x4D8CF, offset: 0x4D8CF, size: 0x8, addend: 0x0, symName: __ZNSt3__14pairIPP8MyStringS3_EC1B8ue170006IS3_S3_LPv0EEEOT_OT0_, symObjAddr: 0x13BE8, symBinAddr: 0x10001730C, symSize: 0x3C }
  - { offsetInCU: 0x4D92D, offset: 0x4D92D, size: 0x8, addend: 0x0, symName: __ZNSt3__14pairIPP8MyStringS3_EC2B8ue170006IS3_S3_LPv0EEEOT_OT0_, symObjAddr: 0x13C24, symBinAddr: 0x100017348, symSize: 0x34 }
  - { offsetInCU: 0x4D98B, offset: 0x4D98B, size: 0x8, addend: 0x0, symName: __ZNSt3__118__unwrap_iter_implIPP8MyStringLb1EE8__rewrapB8ue170006ES3_S3_, symObjAddr: 0x13C58, symBinAddr: 0x10001737C, symSize: 0x50 }
  - { offsetInCU: 0x4D9BC, offset: 0x4D9BC, size: 0x8, addend: 0x0, symName: __ZNSt3__114__split_bufferIP8MyStringRNS_9allocatorIS2_EEE28__construct_at_end_with_sizeINS_13move_iteratorIPS2_EEEEvT_m, symObjAddr: 0x13CA8, symBinAddr: 0x1000173CC, symSize: 0xDC }
  - { offsetInCU: 0x4DA24, offset: 0x4DA24, size: 0x8, addend: 0x0, symName: __ZNSt3__114__split_bufferIP8MyStringRNS_9allocatorIS2_EEE21_ConstructTransactionC1B8ue170006EPPS2_m, symObjAddr: 0x13DC0, symBinAddr: 0x1000174E4, symSize: 0x3C }
  - { offsetInCU: 0x4DA6A, offset: 0x4DA6A, size: 0x8, addend: 0x0, symName: __ZNSt3__116allocator_traitsINS_9allocatorIP8MyStringEEE9constructB8ue170006IS3_JS3_EvEEvRS4_PT_DpOT0_, symObjAddr: 0x13DFC, symBinAddr: 0x100017520, symSize: 0x34 }
  - { offsetInCU: 0x4DAC1, offset: 0x4DAC1, size: 0x8, addend: 0x0, symName: __ZNSt3__114__split_bufferIP8MyStringRNS_9allocatorIS2_EEE7__allocB8ue170006Ev, symObjAddr: 0x13E30, symBinAddr: 0x100017554, symSize: 0x28 }
  - { offsetInCU: 0x4DAE7, offset: 0x4DAE7, size: 0x8, addend: 0x0, symName: __ZNKSt3__113move_iteratorIPP8MyStringEdeB8ue170006Ev, symObjAddr: 0x13E58, symBinAddr: 0x10001757C, symSize: 0x18 }
  - { offsetInCU: 0x4DB0D, offset: 0x4DB0D, size: 0x8, addend: 0x0, symName: __ZNSt3__113move_iteratorIPP8MyStringEppB8ue170006Ev, symObjAddr: 0x13E70, symBinAddr: 0x100017594, symSize: 0x20 }
  - { offsetInCU: 0x4DB33, offset: 0x4DB33, size: 0x8, addend: 0x0, symName: __ZNSt3__114__split_bufferIP8MyStringRNS_9allocatorIS2_EEE21_ConstructTransactionD1B8ue170006Ev, symObjAddr: 0x13E90, symBinAddr: 0x1000175B4, symSize: 0x2C }
  - { offsetInCU: 0x4DB5D, offset: 0x4DB5D, size: 0x8, addend: 0x0, symName: __ZNSt3__114__split_bufferIP8MyStringRNS_9allocatorIS2_EEE21_ConstructTransactionC2B8ue170006EPPS2_m, symObjAddr: 0x13EBC, symBinAddr: 0x1000175E0, symSize: 0x44 }
  - { offsetInCU: 0x4DBA3, offset: 0x4DBA3, size: 0x8, addend: 0x0, symName: __ZNSt3__19allocatorIP8MyStringE9constructB8ue170006IS2_JS2_EEEvPT_DpOT0_, symObjAddr: 0x13F00, symBinAddr: 0x100017624, symSize: 0x28 }
  - { offsetInCU: 0x4DBF9, offset: 0x4DBF9, size: 0x8, addend: 0x0, symName: __ZNSt3__117__compressed_pairIPP8MyStringRNS_9allocatorIS2_EEE6secondB8ue170006Ev, symObjAddr: 0x13F28, symBinAddr: 0x10001764C, symSize: 0x28 }
  - { offsetInCU: 0x4DC1F, offset: 0x4DC1F, size: 0x8, addend: 0x0, symName: __ZNSt3__122__compressed_pair_elemIRNS_9allocatorIP8MyStringEELi1ELb0EE5__getB8ue170006Ev, symObjAddr: 0x13F50, symBinAddr: 0x100017674, symSize: 0x18 }
  - { offsetInCU: 0x4DC45, offset: 0x4DC45, size: 0x8, addend: 0x0, symName: __ZNSt3__114__split_bufferIP8MyStringRNS_9allocatorIS2_EEE21_ConstructTransactionD2B8ue170006Ev, symObjAddr: 0x13F68, symBinAddr: 0x10001768C, symSize: 0x20 }
  - { offsetInCU: 0x4DC6F, offset: 0x4DC6F, size: 0x8, addend: 0x0, symName: __ZNKSt3__113move_iteratorIPP8MyStringE4baseB8ue170006Ev, symObjAddr: 0x14000, symBinAddr: 0x100017724, symSize: 0x18 }
  - { offsetInCU: 0x4DC95, offset: 0x4DC95, size: 0x8, addend: 0x0, symName: __ZNSt3__113move_iteratorIPP8MyStringEC2B8ue170006ES3_, symObjAddr: 0x14018, symBinAddr: 0x10001773C, symSize: 0x20 }
  - { offsetInCU: 0x4DCCD, offset: 0x4DCCD, size: 0x8, addend: 0x0, symName: __ZNSt3__19allocatorIP8MyStringE9constructB8ue170006IS2_JRKS2_EEEvPT_DpOT0_, symObjAddr: 0x14038, symBinAddr: 0x10001775C, symSize: 0x28 }
  - { offsetInCU: 0x4DD23, offset: 0x4DD23, size: 0x8, addend: 0x0, symName: __ZNSt3__19allocatorI8MyStringE8allocateB8ue170006Em, symObjAddr: 0x14060, symBinAddr: 0x100017784, symSize: 0x58 }
  - { offsetInCU: 0x4DD62, offset: 0x4DD62, size: 0x8, addend: 0x0, symName: __ZNSt3__116allocator_traitsINS_9allocatorI8MyStringEEE8max_sizeB8ue170006IS3_vEEmRKS3_, symObjAddr: 0x140B8, symBinAddr: 0x1000177DC, symSize: 0x24 }
  - { offsetInCU: 0x4DD90, offset: 0x4DD90, size: 0x8, addend: 0x0, symName: __ZNKSt3__19allocatorI8MyStringE8max_sizeB8ue170006Ev, symObjAddr: 0x140DC, symBinAddr: 0x100017800, symSize: 0x14 }
  - { offsetInCU: 0x4DDB6, offset: 0x4DDB6, size: 0x8, addend: 0x0, symName: __ZNKSt3__123__move_backward_trivialclB8ue170006IP8MyStringS3_Li0EEENS_4pairIPT_PT0_EES6_S6_S8_, symObjAddr: 0x1426C, symBinAddr: 0x100017990, symSize: 0x48 }
  - { offsetInCU: 0x4DE1E, offset: 0x4DE1E, size: 0x8, addend: 0x0, symName: __ZNSt3__14pairIPP8MyStringS3_EC1B8ue170006IRS3_S6_LPv0EEEOT_OT0_, symObjAddr: 0x1437C, symBinAddr: 0x100017AA0, symSize: 0x3C }
  - { offsetInCU: 0x4DE7C, offset: 0x4DE7C, size: 0x8, addend: 0x0, symName: __ZNSt3__14pairIPP8MyStringS3_EC2B8ue170006IRS3_S6_LPv0EEEOT_OT0_, symObjAddr: 0x143B8, symBinAddr: 0x100017ADC, symSize: 0x34 }
  - { offsetInCU: 0x4DEDA, offset: 0x4DEDA, size: 0x8, addend: 0x0, symName: __ZNSt3__114__split_bufferIP8MyStringRNS_9allocatorIS2_EEEC2EmmS5_, symObjAddr: 0x143EC, symBinAddr: 0x100017B10, symSize: 0xD4 }
  - { offsetInCU: 0x4DF4D, offset: 0x4DF4D, size: 0x8, addend: 0x0, symName: __ZNSt3__117__compressed_pairIPP8MyStringRNS_9allocatorIS2_EEEC1B8ue170006IDnS6_EEOT_OT0_, symObjAddr: 0x144C0, symBinAddr: 0x100017BE4, symSize: 0x3C }
  - { offsetInCU: 0x4DFA5, offset: 0x4DFA5, size: 0x8, addend: 0x0, symName: __ZNSt3__117__compressed_pairIPP8MyStringRNS_9allocatorIS2_EEEC2B8ue170006IDnS6_EEOT_OT0_, symObjAddr: 0x1453C, symBinAddr: 0x100017C60, symSize: 0x48 }
  - { offsetInCU: 0x4DFFD, offset: 0x4DFFD, size: 0x8, addend: 0x0, symName: __ZNSt3__122__compressed_pair_elemIRNS_9allocatorIP8MyStringEELi1ELb0EEC2B8ue170006IS5_vEEOT_, symObjAddr: 0x14584, symBinAddr: 0x100017CA8, symSize: 0x20 }
  - { offsetInCU: 0x4E03F, offset: 0x4E03F, size: 0x8, addend: 0x0, symName: __ZNSt3__19allocatorIP8MyStringE8allocateB8ue170006Em, symObjAddr: 0x145A4, symBinAddr: 0x100017CC8, symSize: 0x58 }
  - { offsetInCU: 0x4E07E, offset: 0x4E07E, size: 0x8, addend: 0x0, symName: __ZNSt3__116allocator_traitsINS_9allocatorIP8MyStringEEE8max_sizeB8ue170006IS4_vEEmRKS4_, symObjAddr: 0x145FC, symBinAddr: 0x100017D20, symSize: 0x24 }
  - { offsetInCU: 0x4E0AC, offset: 0x4E0AC, size: 0x8, addend: 0x0, symName: __ZNKSt3__19allocatorIP8MyStringE8max_sizeB8ue170006Ev, symObjAddr: 0x14620, symBinAddr: 0x100017D44, symSize: 0x14 }
  - { offsetInCU: 0x4E0D2, offset: 0x4E0D2, size: 0x8, addend: 0x0, symName: __ZNSt3__122__allocator_destructorINS_9allocatorI8MyStringEEEC2B8ue170006ERS3_m, symObjAddr: 0x14634, symBinAddr: 0x100017D58, symSize: 0x2C }
  - { offsetInCU: 0x4E118, offset: 0x4E118, size: 0x8, addend: 0x0, symName: __ZNSt3__110unique_ptrIP8MyStringNS_22__allocator_destructorINS_9allocatorIS1_EEEEEC2B8ue170006ILb1EvEES2_NS_16__dependent_typeINS_27__unique_ptr_deleter_sfinaeIS6_EEXT_EE20__good_rval_ref_typeE, symObjAddr: 0x14660, symBinAddr: 0x100017D84, symSize: 0x48 }
  - { offsetInCU: 0x4E169, offset: 0x4E169, size: 0x8, addend: 0x0, symName: __ZNSt3__117__compressed_pairIP8MyStringNS_22__allocator_destructorINS_9allocatorIS1_EEEEEC1B8ue170006IRS2_S6_EEOT_OT0_, symObjAddr: 0x146A8, symBinAddr: 0x100017DCC, symSize: 0x3C }
  - { offsetInCU: 0x4E1C1, offset: 0x4E1C1, size: 0x8, addend: 0x0, symName: __ZNSt3__117__compressed_pairIP8MyStringNS_22__allocator_destructorINS_9allocatorIS1_EEEEEC2B8ue170006IRS2_S6_EEOT_OT0_, symObjAddr: 0x146E4, symBinAddr: 0x100017E08, symSize: 0x48 }
  - { offsetInCU: 0x4E219, offset: 0x4E219, size: 0x8, addend: 0x0, symName: __ZNSt3__122__compressed_pair_elemIP8MyStringLi0ELb0EEC2B8ue170006IRS2_vEEOT_, symObjAddr: 0x1472C, symBinAddr: 0x100017E50, symSize: 0x24 }
  - { offsetInCU: 0x4E25B, offset: 0x4E25B, size: 0x8, addend: 0x0, symName: __ZNSt3__122__compressed_pair_elemINS_22__allocator_destructorINS_9allocatorI8MyStringEEEELi1ELb0EEC2B8ue170006IS5_vEEOT_, symObjAddr: 0x14750, symBinAddr: 0x100017E74, symSize: 0x24 }
  - { offsetInCU: 0x4E29D, offset: 0x4E29D, size: 0x8, addend: 0x0, symName: __ZNKSt3__117__compressed_pairIP8MyStringNS_22__allocator_destructorINS_9allocatorIS1_EEEEE5firstB8ue170006Ev, symObjAddr: 0x14774, symBinAddr: 0x100017E98, symSize: 0x24 }
  - { offsetInCU: 0x4E2C3, offset: 0x4E2C3, size: 0x8, addend: 0x0, symName: __ZNKSt3__122__compressed_pair_elemIP8MyStringLi0ELb0EE5__getB8ue170006Ev, symObjAddr: 0x14798, symBinAddr: 0x100017EBC, symSize: 0x14 }
  - { offsetInCU: 0x4E2E9, offset: 0x4E2E9, size: 0x8, addend: 0x0, symName: __ZNSt3__117__compressed_pairIP8MyStringNS_22__allocator_destructorINS_9allocatorIS1_EEEEE5firstB8ue170006Ev, symObjAddr: 0x147AC, symBinAddr: 0x100017ED0, symSize: 0x24 }
  - { offsetInCU: 0x4E30F, offset: 0x4E30F, size: 0x8, addend: 0x0, symName: __ZNSt3__122__compressed_pair_elemIP8MyStringLi0ELb0EE5__getB8ue170006Ev, symObjAddr: 0x147D0, symBinAddr: 0x100017EF4, symSize: 0x14 }
  - { offsetInCU: 0x4E335, offset: 0x4E335, size: 0x8, addend: 0x0, symName: __ZNSt3__117__compressed_pairIPP8MyStringNS_9allocatorIS2_EEE5firstB8ue170006Ev, symObjAddr: 0x147E4, symBinAddr: 0x100017F08, symSize: 0x24 }
  - { offsetInCU: 0x4E35B, offset: 0x4E35B, size: 0x8, addend: 0x0, symName: __ZNSt3__122__compressed_pair_elemIPP8MyStringLi0ELb0EE5__getB8ue170006Ev, symObjAddr: 0x14808, symBinAddr: 0x100017F2C, symSize: 0x14 }
  - { offsetInCU: 0x4E381, offset: 0x4E381, size: 0x8, addend: 0x0, symName: __ZNSt3__117__compressed_pairIPP8MyStringRNS_9allocatorIS2_EEE5firstB8ue170006Ev, symObjAddr: 0x1481C, symBinAddr: 0x100017F40, symSize: 0x24 }
  - { offsetInCU: 0x4E3A7, offset: 0x4E3A7, size: 0x8, addend: 0x0, symName: __ZNSt3__110unique_ptrIP8MyStringNS_22__allocator_destructorINS_9allocatorIS1_EEEEED2B8ue170006Ev, symObjAddr: 0x14840, symBinAddr: 0x100017F64, symSize: 0x30 }
  - { offsetInCU: 0x4E3D1, offset: 0x4E3D1, size: 0x8, addend: 0x0, symName: __ZNSt3__110unique_ptrIP8MyStringNS_22__allocator_destructorINS_9allocatorIS1_EEEEE5resetB8ue170006ES2_, symObjAddr: 0x14870, symBinAddr: 0x100017F94, symSize: 0x78 }
  - { offsetInCU: 0x4E415, offset: 0x4E415, size: 0x8, addend: 0x0, symName: __ZNSt3__117__compressed_pairIP8MyStringNS_22__allocator_destructorINS_9allocatorIS1_EEEEE6secondB8ue170006Ev, symObjAddr: 0x148E8, symBinAddr: 0x10001800C, symSize: 0x28 }
  - { offsetInCU: 0x4E43B, offset: 0x4E43B, size: 0x8, addend: 0x0, symName: __ZNSt3__122__allocator_destructorINS_9allocatorI8MyStringEEEclB8ue170006EPS2_, symObjAddr: 0x14910, symBinAddr: 0x100018034, symSize: 0x34 }
  - { offsetInCU: 0x4E46F, offset: 0x4E46F, size: 0x8, addend: 0x0, symName: __ZNSt3__122__compressed_pair_elemINS_22__allocator_destructorINS_9allocatorI8MyStringEEEELi1ELb0EE5__getB8ue170006Ev, symObjAddr: 0x14944, symBinAddr: 0x100018068, symSize: 0x14 }
  - { offsetInCU: 0x4E495, offset: 0x4E495, size: 0x8, addend: 0x0, symName: __ZNSt3__114__split_bufferIP8MyStringRNS_9allocatorIS2_EEED2Ev, symObjAddr: 0x14958, symBinAddr: 0x10001807C, symSize: 0x8C }
  - { offsetInCU: 0x4E4C1, offset: 0x4E4C1, size: 0x8, addend: 0x0, symName: __ZNSt3__114__split_bufferIP8MyStringRNS_9allocatorIS2_EEE5clearB8ue170006Ev, symObjAddr: 0x149E4, symBinAddr: 0x100018108, symSize: 0x28 }
  - { offsetInCU: 0x4E4E7, offset: 0x4E4E7, size: 0x8, addend: 0x0, symName: __ZNKSt3__114__split_bufferIP8MyStringRNS_9allocatorIS2_EEE8capacityB8ue170006Ev, symObjAddr: 0x14A0C, symBinAddr: 0x100018130, symSize: 0x40 }
  - { offsetInCU: 0x4E50D, offset: 0x4E50D, size: 0x8, addend: 0x0, symName: __ZNSt3__114__split_bufferIP8MyStringRNS_9allocatorIS2_EEE17__destruct_at_endB8ue170006EPS2_, symObjAddr: 0x14A4C, symBinAddr: 0x100018170, symSize: 0x2C }
  - { offsetInCU: 0x4E541, offset: 0x4E541, size: 0x8, addend: 0x0, symName: __ZNSt3__114__split_bufferIP8MyStringRNS_9allocatorIS2_EEE17__destruct_at_endB8ue170006EPS2_NS_17integral_constantIbLb0EEE, symObjAddr: 0x14A78, symBinAddr: 0x10001819C, symSize: 0x80 }
  - { offsetInCU: 0x4E582, offset: 0x4E582, size: 0x8, addend: 0x0, symName: __ZNKSt3__114__split_bufferIP8MyStringRNS_9allocatorIS2_EEE9__end_capB8ue170006Ev, symObjAddr: 0x14AF8, symBinAddr: 0x10001821C, symSize: 0x28 }
  - { offsetInCU: 0x4E5A8, offset: 0x4E5A8, size: 0x8, addend: 0x0, symName: __ZNKSt3__117__compressed_pairIPP8MyStringRNS_9allocatorIS2_EEE5firstB8ue170006Ev, symObjAddr: 0x14B20, symBinAddr: 0x100018244, symSize: 0x24 }
  - { offsetInCU: 0x4E5CE, offset: 0x4E5CE, size: 0x8, addend: 0x0, symName: __ZNSt3__19allocatorI8MyStringE9constructB8ue170006IS1_JS1_EEEvPT_DpOT0_, symObjAddr: 0x14B44, symBinAddr: 0x100018268, symSize: 0x30 }
  - { offsetInCU: 0x4E624, offset: 0x4E624, size: 0x8, addend: 0x0, symName: __ZNSt3__116allocator_traitsINS_9allocatorI8MyStringEEE9constructB8ue170006IS2_JRA6_KcEvEEvRS3_PT_DpOT0_, symObjAddr: 0x14B74, symBinAddr: 0x100018298, symSize: 0x34 }
  - { offsetInCU: 0x4E67B, offset: 0x4E67B, size: 0x8, addend: 0x0, symName: __ZNSt3__116__deque_iteratorI8MyStringPS1_RS1_PS2_lLl512EEmmB8ue170006Ev, symObjAddr: 0x14BA8, symBinAddr: 0x1000182CC, symSize: 0x68 }
  - { offsetInCU: 0x4E6A1, offset: 0x4E6A1, size: 0x8, addend: 0x0, symName: __ZNSt3__19allocatorI8MyStringE9constructB8ue170006IS1_JRA6_KcEEEvPT_DpOT0_, symObjAddr: 0x14C10, symBinAddr: 0x100018334, symSize: 0x30 }
  - { offsetInCU: 0x4E6F7, offset: 0x4E6F7, size: 0x8, addend: 0x0, symName: __ZNSt3__15dequeI8MyStringNS_9allocatorIS1_EEE20__add_front_capacityEv, symObjAddr: 0x14C40, symBinAddr: 0x100018364, symSize: 0x3A4 }
  - { offsetInCU: 0x4E7AC, offset: 0x4E7AC, size: 0x8, addend: 0x0, symName: __ZNKSt3__15dequeI8MyStringNS_9allocatorIS1_EEE25__annotate_increase_frontB8ue170006Em, symObjAddr: 0x14FE4, symBinAddr: 0x100018708, symSize: 0x40 }
  - { offsetInCU: 0x4E7E1, offset: 0x4E7E1, size: 0x8, addend: 0x0, symName: __ZNSt3__114__split_bufferIP8MyStringNS_9allocatorIS2_EEE4backB8ue170006Ev, symObjAddr: 0x15024, symBinAddr: 0x100018748, symSize: 0x1C }
  - { offsetInCU: 0x4E807, offset: 0x4E807, size: 0x8, addend: 0x0, symName: __ZNSt3__114__split_bufferIP8MyStringNS_9allocatorIS2_EEE8pop_backB8ue170006Ev, symObjAddr: 0x15040, symBinAddr: 0x100018764, symSize: 0x2C }
  - { offsetInCU: 0x4E82D, offset: 0x4E82D, size: 0x8, addend: 0x0, symName: __ZNSt3__114__split_bufferIP8MyStringNS_9allocatorIS2_EEE10push_frontERKS2_, symObjAddr: 0x1506C, symBinAddr: 0x100018790, symSize: 0x25C }
  - { offsetInCU: 0x4E8A5, offset: 0x4E8A5, size: 0x8, addend: 0x0, symName: __ZNKSt3__114__split_bufferIP8MyStringNS_9allocatorIS2_EEE13__front_spareB8ue170006Ev, symObjAddr: 0x152C8, symBinAddr: 0x1000189EC, symSize: 0x28 }
  - { offsetInCU: 0x4E8CB, offset: 0x4E8CB, size: 0x8, addend: 0x0, symName: __ZNSt3__114__split_bufferIP8MyStringRNS_9allocatorIS2_EEE9push_backB8ue170006ERKS2_, symObjAddr: 0x152F0, symBinAddr: 0x100018A14, symSize: 0x260 }
  - { offsetInCU: 0x4E943, offset: 0x4E943, size: 0x8, addend: 0x0, symName: __ZNSt3__116allocator_traitsINS_9allocatorI8MyStringEEE9constructB8ue170006IS2_JRA7_KcEvEEvRS3_PT_DpOT0_, symObjAddr: 0x15550, symBinAddr: 0x100018C74, symSize: 0x34 }
  - { offsetInCU: 0x4E99A, offset: 0x4E99A, size: 0x8, addend: 0x0, symName: __ZNSt3__19allocatorI8MyStringE9constructB8ue170006IS1_JRA7_KcEEEvPT_DpOT0_, symObjAddr: 0x15584, symBinAddr: 0x100018CA8, symSize: 0x30 }
  - { offsetInCU: 0x4E9F0, offset: 0x4E9F0, size: 0x8, addend: 0x0, symName: __ZNKSt3__114__split_bufferIP8MyStringNS_9allocatorIS2_EEE5emptyB8ue170006Ev, symObjAddr: 0x155B4, symBinAddr: 0x100018CD8, symSize: 0x28 }
  - { offsetInCU: 0x4EA16, offset: 0x4EA16, size: 0x8, addend: 0x0, symName: __ZNSt3__116__deque_iteratorI8MyStringPS1_RS1_PS2_lLl512EEC1B8ue170006ES4_S2_, symObjAddr: 0x155DC, symBinAddr: 0x100018D00, symSize: 0x3C }
  - { offsetInCU: 0x4EA5E, offset: 0x4EA5E, size: 0x8, addend: 0x0, symName: __ZNSt3__116__deque_iteratorI8MyStringPS1_RS1_PS2_lLl512EEC2B8ue170006ES4_S2_, symObjAddr: 0x15618, symBinAddr: 0x100018D3C, symSize: 0x2C }
  - { offsetInCU: 0x4EAA6, offset: 0x4EAA6, size: 0x8, addend: 0x0, symName: __ZNSt3__116__deque_iteratorI8MyStringPS1_RS1_PS2_lLl512EEpLB8ue170006El, symObjAddr: 0x15644, symBinAddr: 0x100018D68, symSize: 0x110 }
  - { offsetInCU: 0x4EAF8, offset: 0x4EAF8, size: 0x8, addend: 0x0, symName: __ZNKSt3__116__deque_iteratorI8MyStringPS1_RS1_PS2_lLl512EEmiB8ue170006El, symObjAddr: 0x15978, symBinAddr: 0x10001909C, symSize: 0x40 }
  - { offsetInCU: 0x4EB64, offset: 0x4EB64, size: 0x8, addend: 0x0, symName: __ZNKSt3__111__move_loopINS_17_ClassicAlgPolicyEEclB8ue170006INS_16__deque_iteratorI8MyStringPS5_RS5_PS6_lLl512EEES9_Li0EEENS_4pairIT_T0_EESB_SB_SC_, symObjAddr: 0x15D0C, symBinAddr: 0x100019430, symSize: 0x88 }
  - { offsetInCU: 0x4EBCC, offset: 0x4EBCC, size: 0x8, addend: 0x0, symName: __ZNSt3__111__move_loopINS_17_ClassicAlgPolicyEE12_MoveSegmentINS_16__deque_iteratorI8MyStringPS5_RS5_PS6_lLl512EEES9_EC1B8ue170006ERS9_, symObjAddr: 0x16054, symBinAddr: 0x100019778, symSize: 0x34 }
  - { offsetInCU: 0x4EC04, offset: 0x4EC04, size: 0x8, addend: 0x0, symName: __ZNSt3__127__segmented_iterator_traitsINS_16__deque_iteratorI8MyStringPS2_RS2_PS3_lLl512EEEE9__segmentB8ue170006ES6_, symObjAddr: 0x160C0, symBinAddr: 0x1000197E4, symSize: 0x18 }
  - { offsetInCU: 0x4EC28, offset: 0x4EC28, size: 0x8, addend: 0x0, symName: __ZNSt3__111__move_loopINS_17_ClassicAlgPolicyEE12_MoveSegmentINS_16__deque_iteratorI8MyStringPS5_RS5_PS6_lLl512EEES9_EclB8ue170006ES6_S6_, symObjAddr: 0x160D8, symBinAddr: 0x1000197FC, symSize: 0x68 }
  - { offsetInCU: 0x4EC6A, offset: 0x4EC6A, size: 0x8, addend: 0x0, symName: __ZNSt3__127__segmented_iterator_traitsINS_16__deque_iteratorI8MyStringPS2_RS2_PS3_lLl512EEEE7__localB8ue170006ES6_, symObjAddr: 0x16140, symBinAddr: 0x100019864, symSize: 0x18 }
  - { offsetInCU: 0x4EC8E, offset: 0x4EC8E, size: 0x8, addend: 0x0, symName: __ZNSt3__127__segmented_iterator_traitsINS_16__deque_iteratorI8MyStringPS2_RS2_PS3_lLl512EEEE5__endB8ue170006ES5_, symObjAddr: 0x16158, symBinAddr: 0x10001987C, symSize: 0x1C }
  - { offsetInCU: 0x4ECB2, offset: 0x4ECB2, size: 0x8, addend: 0x0, symName: __ZNSt3__127__segmented_iterator_traitsINS_16__deque_iteratorI8MyStringPS2_RS2_PS3_lLl512EEEE7__beginB8ue170006ES5_, symObjAddr: 0x16174, symBinAddr: 0x100019898, symSize: 0x18 }
  - { offsetInCU: 0x4ECF3, offset: 0x4ECF3, size: 0x8, addend: 0x0, symName: __ZNKSt3__111__move_loopINS_17_ClassicAlgPolicyEEclB8ue170006IP8MyStringNS_16__deque_iteratorIS4_S5_RS4_PS5_lLl512EEELi0EEENS_4pairIT_T0_EESB_SB_SC_, symObjAddr: 0x16364, symBinAddr: 0x100019A88, symSize: 0x164 }
  - { offsetInCU: 0x4EDCF, offset: 0x4EDCF, size: 0x8, addend: 0x0, symName: __ZNSt3__14pairIP8MyStringS2_EC1B8ue170006IS2_S2_LPv0EEEOT_OT0_, symObjAddr: 0x16588, symBinAddr: 0x100019CAC, symSize: 0x3C }
  - { offsetInCU: 0x4EE2D, offset: 0x4EE2D, size: 0x8, addend: 0x0, symName: __ZNSt3__14pairIP8MyStringS2_EC2B8ue170006IS2_S2_LPv0EEEOT_OT0_, symObjAddr: 0x165C4, symBinAddr: 0x100019CE8, symSize: 0x34 }
  - { offsetInCU: 0x4EE8B, offset: 0x4EE8B, size: 0x8, addend: 0x0, symName: __ZNSt3__118__unwrap_iter_implIP8MyStringLb1EE8__unwrapB8ue170006ES2_, symObjAddr: 0x165F8, symBinAddr: 0x100019D1C, symSize: 0x24 }
  - { offsetInCU: 0x4EEAE, offset: 0x4EEAE, size: 0x8, addend: 0x0, symName: __ZNSt3__127__segmented_iterator_traitsINS_16__deque_iteratorI8MyStringPS2_RS2_PS3_lLl512EEEE9__composeB8ue170006ES5_S3_, symObjAddr: 0x16660, symBinAddr: 0x100019D84, symSize: 0x84 }
  - { offsetInCU: 0x4EEE1, offset: 0x4EEE1, size: 0x8, addend: 0x0, symName: __ZNKSt3__111__move_loopINS_17_ClassicAlgPolicyEEclB8ue170006IP8MyStringS5_S5_EENS_4pairIT_T1_EES7_T0_S8_, symObjAddr: 0x167DC, symBinAddr: 0x100019F00, symSize: 0x90 }
  - { offsetInCU: 0x4EF4C, offset: 0x4EF4C, size: 0x8, addend: 0x0, symName: __ZNSt3__18_IterOpsINS_17_ClassicAlgPolicyEE11__iter_moveB8ue170006IRP8MyStringEENS_9enable_ifIXsr12is_referenceIDTdeclsr3stdE7declvalIRT_EEEEE5valueEDTclsr3stdE4movedeclsr3stdE7declvalIS9_EEEEE4typeEOS8_, symObjAddr: 0x168A8, symBinAddr: 0x100019FCC, symSize: 0x28 }
  - { offsetInCU: 0x4EF78, offset: 0x4EF78, size: 0x8, addend: 0x0, symName: __ZNSt3__18_IterOpsINS_17_ClassicAlgPolicyEE25__validate_iter_referenceB8ue170006IRP8MyStringEEvv, symObjAddr: 0x168D0, symBinAddr: 0x100019FF4, symSize: 0x4 }
  - { offsetInCU: 0x4EF96, offset: 0x4EF96, size: 0x8, addend: 0x0, symName: __ZNSt3__118__unwrap_iter_implIP8MyStringLb1EE8__rewrapB8ue170006ES2_S2_, symObjAddr: 0x168D4, symBinAddr: 0x100019FF8, symSize: 0x50 }
  - { offsetInCU: 0x4EFCD, offset: 0x4EFCD, size: 0x8, addend: 0x0, symName: __ZNSt3__14pairIP8MyStringNS_16__deque_iteratorIS1_S2_RS1_PS2_lLl512EEEEC1B8ue170006IS2_S6_LPv0EEEOT_OT0_, symObjAddr: 0x16924, symBinAddr: 0x10001A048, symSize: 0x3C }
  - { offsetInCU: 0x4F02B, offset: 0x4F02B, size: 0x8, addend: 0x0, symName: __ZNSt3__14pairIP8MyStringNS_16__deque_iteratorIS1_S2_RS1_PS2_lLl512EEEEC2B8ue170006IS2_S6_LPv0EEEOT_OT0_, symObjAddr: 0x16960, symBinAddr: 0x10001A084, symSize: 0x34 }
  - { offsetInCU: 0x4F089, offset: 0x4F089, size: 0x8, addend: 0x0, symName: __ZNSt3__111__move_loopINS_17_ClassicAlgPolicyEE12_MoveSegmentINS_16__deque_iteratorI8MyStringPS5_RS5_PS6_lLl512EEES9_EC2B8ue170006ERS9_, symObjAddr: 0x16994, symBinAddr: 0x10001A0B8, symSize: 0x20 }
  - { offsetInCU: 0x4F0C1, offset: 0x4F0C1, size: 0x8, addend: 0x0, symName: __ZNSt3__14pairINS_16__deque_iteratorI8MyStringPS2_RS2_PS3_lLl512EEES6_EC1B8ue170006IRS6_S6_LPv0EEEOT_OT0_, symObjAddr: 0x169B4, symBinAddr: 0x10001A0D8, symSize: 0x3C }
  - { offsetInCU: 0x4F11F, offset: 0x4F11F, size: 0x8, addend: 0x0, symName: __ZNSt3__14pairINS_16__deque_iteratorI8MyStringPS2_RS2_PS3_lLl512EEES6_EC2B8ue170006IRS6_S6_LPv0EEEOT_OT0_, symObjAddr: 0x169F0, symBinAddr: 0x10001A114, symSize: 0x34 }
  - { offsetInCU: 0x4F17D, offset: 0x4F17D, size: 0x8, addend: 0x0, symName: __ZNSt3__118__unwrap_iter_implINS_16__deque_iteratorI8MyStringPS2_RS2_PS3_lLl512EEELb0EE8__unwrapB8ue170006ES6_, symObjAddr: 0x16A24, symBinAddr: 0x10001A148, symSize: 0x24 }
  - { offsetInCU: 0x4F1A0, offset: 0x4F1A0, size: 0x8, addend: 0x0, symName: __ZNSt3__14pairINS_16__deque_iteratorI8MyStringPS2_RS2_PS3_lLl512EEES6_EC1B8ue170006IS6_S6_LPv0EEEOT_OT0_, symObjAddr: 0x16A48, symBinAddr: 0x10001A16C, symSize: 0x3C }
  - { offsetInCU: 0x4F1FE, offset: 0x4F1FE, size: 0x8, addend: 0x0, symName: __ZNSt3__14pairINS_16__deque_iteratorI8MyStringPS2_RS2_PS3_lLl512EEES6_EC2B8ue170006IS6_S6_LPv0EEEOT_OT0_, symObjAddr: 0x16A84, symBinAddr: 0x10001A1A8, symSize: 0x34 }
  - { offsetInCU: 0x4F25C, offset: 0x4F25C, size: 0x8, addend: 0x0, symName: __ZNSt3__118__unwrap_iter_implINS_16__deque_iteratorI8MyStringPS2_RS2_PS3_lLl512EEELb0EE8__rewrapB8ue170006ES6_S6_, symObjAddr: 0x16AB8, symBinAddr: 0x10001A1DC, symSize: 0x2C }
  - { offsetInCU: 0x4F295, offset: 0x4F295, size: 0x8, addend: 0x0, symName: __ZNKSt3__120__move_backward_loopINS_17_ClassicAlgPolicyEEclB8ue170006INS_16__deque_iteratorI8MyStringPS5_RS5_PS6_lLl512EEES9_Li0EEENS_4pairIT_T0_EESB_SB_SC_, symObjAddr: 0x16CD8, symBinAddr: 0x10001A3FC, symSize: 0x230 }
  - { offsetInCU: 0x4F339, offset: 0x4F339, size: 0x8, addend: 0x0, symName: __ZNKSt3__120__move_backward_loopINS_17_ClassicAlgPolicyEEclB8ue170006IP8MyStringNS_16__deque_iteratorIS4_S5_RS4_PS5_lLl512EEELi0EEENS_4pairIT_T0_EESB_SB_SC_, symObjAddr: 0x170B8, symBinAddr: 0x10001A7DC, symSize: 0x19C }
  - { offsetInCU: 0x4F406, offset: 0x4F406, size: 0x8, addend: 0x0, symName: __ZNSt3__14pairIP8MyStringNS_16__deque_iteratorIS1_S2_RS1_PS2_lLl512EEEEC1B8ue170006IRS2_RS6_LPv0EEEOT_OT0_, symObjAddr: 0x172D0, symBinAddr: 0x10001A9F4, symSize: 0x3C }
  - { offsetInCU: 0x4F464, offset: 0x4F464, size: 0x8, addend: 0x0, symName: __ZNSt3__14pairIP8MyStringNS_16__deque_iteratorIS1_S2_RS1_PS2_lLl512EEEEC2B8ue170006IRS2_RS6_LPv0EEEOT_OT0_, symObjAddr: 0x1730C, symBinAddr: 0x10001AA30, symSize: 0x34 }
  - { offsetInCU: 0x4F4C2, offset: 0x4F4C2, size: 0x8, addend: 0x0, symName: __ZNKSt3__120__move_backward_loopINS_17_ClassicAlgPolicyEEclB8ue170006IP8MyStringS5_S5_EENS_4pairIT_T1_EES7_T0_S8_, symObjAddr: 0x17438, symBinAddr: 0x10001AB5C, symSize: 0xA4 }
  - { offsetInCU: 0x4F549, offset: 0x4F549, size: 0x8, addend: 0x0, symName: __ZNSt3__18_IterOpsINS_17_ClassicAlgPolicyEE4nextB8ue170006IP8MyStringEET_S6_S6_, symObjAddr: 0x174DC, symBinAddr: 0x10001AC00, symSize: 0x18 }
  - { offsetInCU: 0x4F580, offset: 0x4F580, size: 0x8, addend: 0x0, symName: __ZNSt3__14pairINS_16__deque_iteratorI8MyStringPS2_RS2_PS3_lLl512EEES6_EC1B8ue170006IRS6_S9_LPv0EEEOT_OT0_, symObjAddr: 0x174F4, symBinAddr: 0x10001AC18, symSize: 0x3C }
  - { offsetInCU: 0x4F5DE, offset: 0x4F5DE, size: 0x8, addend: 0x0, symName: __ZNSt3__14pairINS_16__deque_iteratorI8MyStringPS2_RS2_PS3_lLl512EEES6_EC2B8ue170006IRS6_S9_LPv0EEEOT_OT0_, symObjAddr: 0x17530, symBinAddr: 0x10001AC54, symSize: 0x34 }
  - { offsetInCU: 0x4F63C, offset: 0x4F63C, size: 0x8, addend: 0x0, symName: __ZNSt3__116__deque_iteratorI8MyStringPS1_RS1_PS2_lLl512EEmIB8ue170006El, symObjAddr: 0x17564, symBinAddr: 0x10001AC88, symSize: 0x34 }
  - { offsetInCU: 0x4F671, offset: 0x4F671, size: 0x8, addend: 0x0, symName: __ZNSt3__116__deque_iteratorI8MyStringPKS1_RS2_PKS3_lLl512EEC2B8ue170006IPS1_RS1_PS9_EERKNS0_IS1_T_T0_T1_lLl512EEEPNS_9enable_ifIXsr14is_convertibleISC_S3_EE5valueEvE4typeE, symObjAddr: 0x17598, symBinAddr: 0x10001ACBC, symSize: 0x34 }
  - { offsetInCU: 0x4F6D1, offset: 0x4F6D1, size: 0x8, addend: 0x0, symName: __ZNKSt3__15dequeI8MyStringNS_9allocatorIS1_EEE5beginB8ue170006Ev, symObjAddr: 0x175CC, symBinAddr: 0x10001ACF0, symSize: 0xA8 }
  - { offsetInCU: 0x4F706, offset: 0x4F706, size: 0x8, addend: 0x0, symName: __ZNKSt3__15dequeI8MyStringNS_9allocatorIS1_EEE3endB8ue170006Ev, symObjAddr: 0x17674, symBinAddr: 0x10001AD98, symSize: 0xBC }
  - { offsetInCU: 0x4F74A, offset: 0x4F74A, size: 0x8, addend: 0x0, symName: __ZNKSt3__116__deque_iteratorI8MyStringPKS1_RS2_PKS3_lLl512EEdeB8ue170006Ev, symObjAddr: 0x17730, symBinAddr: 0x10001AE54, symSize: 0x18 }
  - { offsetInCU: 0x4F770, offset: 0x4F770, size: 0x8, addend: 0x0, symName: __ZNSt3__116__deque_iteratorI8MyStringPKS1_RS2_PKS3_lLl512EEppB8ue170006Ev, symObjAddr: 0x17748, symBinAddr: 0x10001AE6C, symSize: 0x70 }
  - { offsetInCU: 0x4F796, offset: 0x4F796, size: 0x8, addend: 0x0, symName: __ZNSt3__116__deque_iteratorI8MyStringPKS1_RS2_PKS3_lLl512EEC1B8ue170006ES6_S3_, symObjAddr: 0x177B8, symBinAddr: 0x10001AEDC, symSize: 0x3C }
  - { offsetInCU: 0x4F7DE, offset: 0x4F7DE, size: 0x8, addend: 0x0, symName: __ZNSt3__116__deque_iteratorI8MyStringPKS1_RS2_PKS3_lLl512EEC2B8ue170006ES6_S3_, symObjAddr: 0x177F4, symBinAddr: 0x10001AF18, symSize: 0x2C }
  - { offsetInCU: 0x4F826, offset: 0x4F826, size: 0x8, addend: 0x0, symName: __ZNKSt3__15dequeI8MyStringNS_9allocatorIS1_EEE23__annotate_shrink_frontB8ue170006Emm, symObjAddr: 0x17850, symBinAddr: 0x10001AF74, symSize: 0x70 }
  - { offsetInCU: 0x4F86A, offset: 0x4F86A, size: 0x8, addend: 0x0, symName: __ZNSt3__15dequeI8MyStringNS_9allocatorIS1_EEE26__maybe_remove_front_spareB8ue170006Eb, symObjAddr: 0x178C0, symBinAddr: 0x10001AFE4, symSize: 0xEC }
  - { offsetInCU: 0x4F89F, offset: 0x4F89F, size: 0x8, addend: 0x0, symName: __ZNKSt3__15dequeI8MyStringNS_9allocatorIS1_EEE22__annotate_shrink_backB8ue170006Emm, symObjAddr: 0x179AC, symBinAddr: 0x10001B0D0, symSize: 0x60 }
  - { offsetInCU: 0x4F8E3, offset: 0x4F8E3, size: 0x8, addend: 0x0, symName: __ZNSt3__15dequeI8MyStringNS_9allocatorIS1_EEE25__maybe_remove_back_spareB8ue170006Eb, symObjAddr: 0x17A0C, symBinAddr: 0x10001B130, symSize: 0xE8 }
  - { offsetInCU: 0x4F918, offset: 0x4F918, size: 0x8, addend: 0x0, symName: __ZNKSt3__15dequeI8MyStringNS_9allocatorIS1_EEE20__front_spare_blocksB8ue170006Ev, symObjAddr: 0x17AF4, symBinAddr: 0x10001B218, symSize: 0x2C }
  - { offsetInCU: 0x4F93E, offset: 0x4F93E, size: 0x8, addend: 0x0, symName: __ZNKSt3__15dequeI8MyStringNS_9allocatorIS1_EEE19__back_spare_blocksB8ue170006Ev, symObjAddr: 0x17B20, symBinAddr: 0x10001B244, symSize: 0x2C }
  - { offsetInCU: 0x4F964, offset: 0x4F964, size: 0x8, addend: 0x0, symName: __ZNSt3__16vectorIiNS_9allocatorIiEEEC2B8ue170006ESt16initializer_listIiE, symObjAddr: 0x17B4C, symBinAddr: 0x10001B270, symSize: 0x120 }
  - { offsetInCU: 0x4F9B4, offset: 0x4F9B4, size: 0x8, addend: 0x0, symName: __ZNSt3__117__compressed_pairIPiNS_9allocatorIiEEEC1B8ue170006IDnNS_18__default_init_tagEEEOT_OT0_, symObjAddr: 0x17C6C, symBinAddr: 0x10001B390, symSize: 0x3C }
  - { offsetInCU: 0x4FA0C, offset: 0x4FA0C, size: 0x8, addend: 0x0, symName: __ZNSt3__16vectorIiNS_9allocatorIiEEE16__destroy_vectorC1B8ue170006ERS3_, symObjAddr: 0x17CE8, symBinAddr: 0x10001B40C, symSize: 0x34 }
  - { offsetInCU: 0x4FA45, offset: 0x4FA45, size: 0x8, addend: 0x0, symName: __ZNKSt16initializer_listIiE4sizeB8ue170006Ev, symObjAddr: 0x17D1C, symBinAddr: 0x10001B440, symSize: 0x18 }
  - { offsetInCU: 0x4FA6B, offset: 0x4FA6B, size: 0x8, addend: 0x0, symName: __ZNSt3__16vectorIiNS_9allocatorIiEEE11__vallocateB8ue170006Em, symObjAddr: 0x17D34, symBinAddr: 0x10001B458, symSize: 0xAC }
  - { offsetInCU: 0x4FAAF, offset: 0x4FAAF, size: 0x8, addend: 0x0, symName: __ZNSt3__16vectorIiNS_9allocatorIiEEE18__construct_at_endIPKiS6_EEvT_T0_m, symObjAddr: 0x17DE0, symBinAddr: 0x10001B504, symSize: 0x8C }
  - { offsetInCU: 0x4FB25, offset: 0x4FB25, size: 0x8, addend: 0x0, symName: __ZNKSt16initializer_listIiE5beginB8ue170006Ev, symObjAddr: 0x17E6C, symBinAddr: 0x10001B590, symSize: 0x18 }
  - { offsetInCU: 0x4FB4B, offset: 0x4FB4B, size: 0x8, addend: 0x0, symName: __ZNKSt16initializer_listIiE3endB8ue170006Ev, symObjAddr: 0x17E84, symBinAddr: 0x10001B5A8, symSize: 0x20 }
  - { offsetInCU: 0x4FB71, offset: 0x4FB71, size: 0x8, addend: 0x0, symName: __ZNSt3__128__exception_guard_exceptionsINS_6vectorIiNS_9allocatorIiEEE16__destroy_vectorEE10__completeB8ue170006Ev, symObjAddr: 0x17EA4, symBinAddr: 0x10001B5C8, symSize: 0x1C }
  - { offsetInCU: 0x4FB97, offset: 0x4FB97, size: 0x8, addend: 0x0, symName: __ZNSt3__128__exception_guard_exceptionsINS_6vectorIiNS_9allocatorIiEEE16__destroy_vectorEED1B8ue170006Ev, symObjAddr: 0x17EC0, symBinAddr: 0x10001B5E4, symSize: 0x2C }
  - { offsetInCU: 0x4FBC1, offset: 0x4FBC1, size: 0x8, addend: 0x0, symName: __ZNSt3__117__compressed_pairIPiNS_9allocatorIiEEEC2B8ue170006IDnNS_18__default_init_tagEEEOT_OT0_, symObjAddr: 0x17EEC, symBinAddr: 0x10001B610, symSize: 0x40 }
  - { offsetInCU: 0x4FC19, offset: 0x4FC19, size: 0x8, addend: 0x0, symName: __ZNSt3__122__compressed_pair_elemIPiLi0ELb0EEC2B8ue170006IDnvEEOT_, symObjAddr: 0x17F2C, symBinAddr: 0x10001B650, symSize: 0x1C }
  - { offsetInCU: 0x4FC5B, offset: 0x4FC5B, size: 0x8, addend: 0x0, symName: __ZNSt3__122__compressed_pair_elemINS_9allocatorIiEELi1ELb1EEC2B8ue170006ENS_18__default_init_tagE, symObjAddr: 0x17F48, symBinAddr: 0x10001B66C, symSize: 0x2C }
  - { offsetInCU: 0x4FC90, offset: 0x4FC90, size: 0x8, addend: 0x0, symName: __ZNSt3__19allocatorIiEC2B8ue170006Ev, symObjAddr: 0x17F74, symBinAddr: 0x10001B698, symSize: 0x2C }
  - { offsetInCU: 0x4FCBA, offset: 0x4FCBA, size: 0x8, addend: 0x0, symName: __ZNSt3__116__non_trivial_ifILb1ENS_9allocatorIiEEEC2B8ue170006Ev, symObjAddr: 0x17FA0, symBinAddr: 0x10001B6C4, symSize: 0x14 }
  - { offsetInCU: 0x4FCE4, offset: 0x4FCE4, size: 0x8, addend: 0x0, symName: __ZNSt3__128__exception_guard_exceptionsINS_6vectorIiNS_9allocatorIiEEE16__destroy_vectorEEC1B8ue170006ES5_, symObjAddr: 0x17FB4, symBinAddr: 0x10001B6D8, symSize: 0x34 }
  - { offsetInCU: 0x4FD1C, offset: 0x4FD1C, size: 0x8, addend: 0x0, symName: __ZNSt3__128__exception_guard_exceptionsINS_6vectorIiNS_9allocatorIiEEE16__destroy_vectorEEC2B8ue170006ES5_, symObjAddr: 0x17FE8, symBinAddr: 0x10001B70C, symSize: 0x24 }
  - { offsetInCU: 0x4FD54, offset: 0x4FD54, size: 0x8, addend: 0x0, symName: __ZNSt3__16vectorIiNS_9allocatorIiEEE16__destroy_vectorC2B8ue170006ERS3_, symObjAddr: 0x1800C, symBinAddr: 0x10001B730, symSize: 0x20 }
  - { offsetInCU: 0x4FD8D, offset: 0x4FD8D, size: 0x8, addend: 0x0, symName: __ZNKSt3__16vectorIiNS_9allocatorIiEEE8max_sizeEv, symObjAddr: 0x1802C, symBinAddr: 0x10001B750, symSize: 0x60 }
  - { offsetInCU: 0x4FDB5, offset: 0x4FDB5, size: 0x8, addend: 0x0, symName: __ZNKSt3__16vectorIiNS_9allocatorIiEEE20__throw_length_errorB8ue170006Ev, symObjAddr: 0x1808C, symBinAddr: 0x10001B7B0, symSize: 0x1C }
  - { offsetInCU: 0x4FDDB, offset: 0x4FDDB, size: 0x8, addend: 0x0, symName: __ZNSt3__16vectorIiNS_9allocatorIiEEE7__allocB8ue170006Ev, symObjAddr: 0x180E8, symBinAddr: 0x10001B80C, symSize: 0x28 }
  - { offsetInCU: 0x4FE01, offset: 0x4FE01, size: 0x8, addend: 0x0, symName: __ZNSt3__16vectorIiNS_9allocatorIiEEE9__end_capB8ue170006Ev, symObjAddr: 0x18110, symBinAddr: 0x10001B834, symSize: 0x28 }
  - { offsetInCU: 0x4FE27, offset: 0x4FE27, size: 0x8, addend: 0x0, symName: __ZNKSt3__16vectorIiNS_9allocatorIiEEE14__annotate_newB8ue170006Em, symObjAddr: 0x18138, symBinAddr: 0x10001B85C, symSize: 0xAC }
  - { offsetInCU: 0x4FE67, offset: 0x4FE67, size: 0x8, addend: 0x0, symName: __ZNSt3__116allocator_traitsINS_9allocatorIiEEE8max_sizeB8ue170006IS2_vEEmRKS2_, symObjAddr: 0x181E4, symBinAddr: 0x10001B908, symSize: 0x24 }
  - { offsetInCU: 0x4FE95, offset: 0x4FE95, size: 0x8, addend: 0x0, symName: __ZNKSt3__16vectorIiNS_9allocatorIiEEE7__allocB8ue170006Ev, symObjAddr: 0x18208, symBinAddr: 0x10001B92C, symSize: 0x28 }
  - { offsetInCU: 0x4FEBB, offset: 0x4FEBB, size: 0x8, addend: 0x0, symName: __ZNKSt3__19allocatorIiE8max_sizeB8ue170006Ev, symObjAddr: 0x18230, symBinAddr: 0x10001B954, symSize: 0x14 }
  - { offsetInCU: 0x4FEE1, offset: 0x4FEE1, size: 0x8, addend: 0x0, symName: __ZNKSt3__117__compressed_pairIPiNS_9allocatorIiEEE6secondB8ue170006Ev, symObjAddr: 0x18244, symBinAddr: 0x10001B968, symSize: 0x24 }
  - { offsetInCU: 0x4FF07, offset: 0x4FF07, size: 0x8, addend: 0x0, symName: __ZNKSt3__122__compressed_pair_elemINS_9allocatorIiEELi1ELb1EE5__getB8ue170006Ev, symObjAddr: 0x18268, symBinAddr: 0x10001B98C, symSize: 0x14 }
  - { offsetInCU: 0x4FF2D, offset: 0x4FF2D, size: 0x8, addend: 0x0, symName: __ZNSt3__19allocatorIiE8allocateB8ue170006Em, symObjAddr: 0x1827C, symBinAddr: 0x10001B9A0, symSize: 0x58 }
  - { offsetInCU: 0x4FF61, offset: 0x4FF61, size: 0x8, addend: 0x0, symName: __ZNSt3__117__compressed_pairIPiNS_9allocatorIiEEE6secondB8ue170006Ev, symObjAddr: 0x182D4, symBinAddr: 0x10001B9F8, symSize: 0x24 }
  - { offsetInCU: 0x4FF87, offset: 0x4FF87, size: 0x8, addend: 0x0, symName: __ZNSt3__122__compressed_pair_elemINS_9allocatorIiEELi1ELb1EE5__getB8ue170006Ev, symObjAddr: 0x182F8, symBinAddr: 0x10001BA1C, symSize: 0x14 }
  - { offsetInCU: 0x4FFAD, offset: 0x4FFAD, size: 0x8, addend: 0x0, symName: __ZNSt3__117__compressed_pairIPiNS_9allocatorIiEEE5firstB8ue170006Ev, symObjAddr: 0x1830C, symBinAddr: 0x10001BA30, symSize: 0x24 }
  - { offsetInCU: 0x4FFD3, offset: 0x4FFD3, size: 0x8, addend: 0x0, symName: __ZNSt3__122__compressed_pair_elemIPiLi0ELb0EE5__getB8ue170006Ev, symObjAddr: 0x18330, symBinAddr: 0x10001BA54, symSize: 0x14 }
  - { offsetInCU: 0x4FFF9, offset: 0x4FFF9, size: 0x8, addend: 0x0, symName: __ZNKSt3__16vectorIiNS_9allocatorIiEEE31__annotate_contiguous_containerB8ue170006EPKvS5_S5_S5_, symObjAddr: 0x18344, symBinAddr: 0x10001BA68, symSize: 0x20 }
  - { offsetInCU: 0x5004F, offset: 0x5004F, size: 0x8, addend: 0x0, symName: __ZNKSt3__16vectorIiNS_9allocatorIiEEE4dataB8ue170006Ev, symObjAddr: 0x18364, symBinAddr: 0x10001BA88, symSize: 0x28 }
  - { offsetInCU: 0x50075, offset: 0x50075, size: 0x8, addend: 0x0, symName: __ZNKSt3__16vectorIiNS_9allocatorIiEEE8capacityB8ue170006Ev, symObjAddr: 0x1838C, symBinAddr: 0x10001BAB0, symSize: 0x40 }
  - { offsetInCU: 0x5009B, offset: 0x5009B, size: 0x8, addend: 0x0, symName: __ZNKSt3__16vectorIiNS_9allocatorIiEEE9__end_capB8ue170006Ev, symObjAddr: 0x183E0, symBinAddr: 0x10001BB04, symSize: 0x28 }
  - { offsetInCU: 0x500C1, offset: 0x500C1, size: 0x8, addend: 0x0, symName: __ZNKSt3__117__compressed_pairIPiNS_9allocatorIiEEE5firstB8ue170006Ev, symObjAddr: 0x18408, symBinAddr: 0x10001BB2C, symSize: 0x24 }
  - { offsetInCU: 0x500E7, offset: 0x500E7, size: 0x8, addend: 0x0, symName: __ZNKSt3__122__compressed_pair_elemIPiLi0ELb0EE5__getB8ue170006Ev, symObjAddr: 0x1842C, symBinAddr: 0x10001BB50, symSize: 0x14 }
  - { offsetInCU: 0x50129, offset: 0x50129, size: 0x8, addend: 0x0, symName: __ZNSt3__16vectorIiNS_9allocatorIiEEE21_ConstructTransactionC1B8ue170006ERS3_m, symObjAddr: 0x18440, symBinAddr: 0x10001BB64, symSize: 0x3C }
  - { offsetInCU: 0x50171, offset: 0x50171, size: 0x8, addend: 0x0, symName: __ZNSt3__16vectorIiNS_9allocatorIiEEE21_ConstructTransactionD1B8ue170006Ev, symObjAddr: 0x184FC, symBinAddr: 0x10001BC20, symSize: 0x2C }
  - { offsetInCU: 0x5019B, offset: 0x5019B, size: 0x8, addend: 0x0, symName: __ZNSt3__16vectorIiNS_9allocatorIiEEE21_ConstructTransactionC2B8ue170006ERS3_m, symObjAddr: 0x18528, symBinAddr: 0x10001BC4C, symSize: 0x44 }
  - { offsetInCU: 0x50206, offset: 0x50206, size: 0x8, addend: 0x0, symName: __ZNSt3__14pairIPKiS2_EC1B8ue170006IS2_S2_LPv0EEEOT_OT0_, symObjAddr: 0x186C0, symBinAddr: 0x10001BDE4, symSize: 0x3C }
  - { offsetInCU: 0x50264, offset: 0x50264, size: 0x8, addend: 0x0, symName: __ZNSt3__14pairIPKiS2_EC2B8ue170006IS2_S2_LPv0EEEOT_OT0_, symObjAddr: 0x186FC, symBinAddr: 0x10001BE20, symSize: 0x34 }
  - { offsetInCU: 0x502C2, offset: 0x502C2, size: 0x8, addend: 0x0, symName: __ZNSt3__118__unwrap_iter_implIPKiLb1EE8__unwrapB8ue170006ES2_, symObjAddr: 0x18730, symBinAddr: 0x10001BE54, symSize: 0x24 }
  - { offsetInCU: 0x50302, offset: 0x50302, size: 0x8, addend: 0x0, symName: __ZNKSt3__114__copy_trivialclB8ue170006IKiiLi0EEENS_4pairIPT_PT0_EES5_S5_S7_, symObjAddr: 0x188E4, symBinAddr: 0x10001C008, symSize: 0x48 }
  - { offsetInCU: 0x5036A, offset: 0x5036A, size: 0x8, addend: 0x0, symName: __ZNSt3__14pairIPKiPiEC1B8ue170006IRS2_S3_LPv0EEEOT_OT0_, symObjAddr: 0x18AAC, symBinAddr: 0x10001C1D0, symSize: 0x3C }
  - { offsetInCU: 0x503C8, offset: 0x503C8, size: 0x8, addend: 0x0, symName: __ZNSt3__14pairIPKiPiEC2B8ue170006IRS2_S3_LPv0EEEOT_OT0_, symObjAddr: 0x18AE8, symBinAddr: 0x10001C20C, symSize: 0x34 }
  - { offsetInCU: 0x50426, offset: 0x50426, size: 0x8, addend: 0x0, symName: __ZNSt3__14pairIPKiPiEC1B8ue170006IS2_S3_LPv0EEEOT_OT0_, symObjAddr: 0x18B1C, symBinAddr: 0x10001C240, symSize: 0x3C }
  - { offsetInCU: 0x50484, offset: 0x50484, size: 0x8, addend: 0x0, symName: __ZNSt3__14pairIPKiPiEC2B8ue170006IS2_S3_LPv0EEEOT_OT0_, symObjAddr: 0x18B58, symBinAddr: 0x10001C27C, symSize: 0x34 }
  - { offsetInCU: 0x504E2, offset: 0x504E2, size: 0x8, addend: 0x0, symName: __ZNSt3__118__unwrap_iter_implIPKiLb1EE8__rewrapB8ue170006ES2_S2_, symObjAddr: 0x18BC8, symBinAddr: 0x10001C2EC, symSize: 0x50 }
  - { offsetInCU: 0x50513, offset: 0x50513, size: 0x8, addend: 0x0, symName: __ZNSt3__118__unwrap_iter_implIPiLb1EE8__unwrapB8ue170006ES1_, symObjAddr: 0x18C18, symBinAddr: 0x10001C33C, symSize: 0x24 }
  - { offsetInCU: 0x50536, offset: 0x50536, size: 0x8, addend: 0x0, symName: __ZNSt3__118__unwrap_iter_implIPiLb1EE8__rewrapB8ue170006ES1_S1_, symObjAddr: 0x18C3C, symBinAddr: 0x10001C360, symSize: 0x50 }
  - { offsetInCU: 0x50567, offset: 0x50567, size: 0x8, addend: 0x0, symName: __ZNSt3__16vectorIiNS_9allocatorIiEEE21_ConstructTransactionD2B8ue170006Ev, symObjAddr: 0x18C8C, symBinAddr: 0x10001C3B0, symSize: 0x20 }
  - { offsetInCU: 0x50591, offset: 0x50591, size: 0x8, addend: 0x0, symName: __ZNSt3__128__exception_guard_exceptionsINS_6vectorIiNS_9allocatorIiEEE16__destroy_vectorEED2B8ue170006Ev, symObjAddr: 0x18CAC, symBinAddr: 0x10001C3D0, symSize: 0x50 }
  - { offsetInCU: 0x505BB, offset: 0x505BB, size: 0x8, addend: 0x0, symName: __ZNSt3__16vectorIiNS_9allocatorIiEEE16__destroy_vectorclB8ue170006Ev, symObjAddr: 0x18CFC, symBinAddr: 0x10001C420, symSize: 0x90 }
  - { offsetInCU: 0x505E1, offset: 0x505E1, size: 0x8, addend: 0x0, symName: __ZNSt3__16vectorIiNS_9allocatorIiEEE7__clearB8ue170006Ev, symObjAddr: 0x18D8C, symBinAddr: 0x10001C4B0, symSize: 0x28 }
  - { offsetInCU: 0x50607, offset: 0x50607, size: 0x8, addend: 0x0, symName: __ZNKSt3__16vectorIiNS_9allocatorIiEEE17__annotate_deleteB8ue170006Ev, symObjAddr: 0x18DB4, symBinAddr: 0x10001C4D8, symSize: 0xB8 }
  - { offsetInCU: 0x5062D, offset: 0x5062D, size: 0x8, addend: 0x0, symName: __ZNSt3__116allocator_traitsINS_9allocatorIiEEE10deallocateB8ue170006ERS2_Pim, symObjAddr: 0x18E6C, symBinAddr: 0x10001C590, symSize: 0x34 }
  - { offsetInCU: 0x5066F, offset: 0x5066F, size: 0x8, addend: 0x0, symName: __ZNSt3__16vectorIiNS_9allocatorIiEEE22__base_destruct_at_endB8ue170006EPi, symObjAddr: 0x18EA0, symBinAddr: 0x10001C5C4, symSize: 0x8C }
  - { offsetInCU: 0x506B3, offset: 0x506B3, size: 0x8, addend: 0x0, symName: __ZNSt3__116allocator_traitsINS_9allocatorIiEEE7destroyB8ue170006IivEEvRS2_PT_, symObjAddr: 0x18F2C, symBinAddr: 0x10001C650, symSize: 0x2C }
  - { offsetInCU: 0x506F0, offset: 0x506F0, size: 0x8, addend: 0x0, symName: __ZNSt3__19allocatorIiE7destroyB8ue170006EPi, symObjAddr: 0x18F58, symBinAddr: 0x10001C67C, symSize: 0x14 }
  - { offsetInCU: 0x50724, offset: 0x50724, size: 0x8, addend: 0x0, symName: __ZNKSt3__16vectorIiNS_9allocatorIiEEE4sizeB8ue170006Ev, symObjAddr: 0x18F6C, symBinAddr: 0x10001C690, symSize: 0x28 }
  - { offsetInCU: 0x5074A, offset: 0x5074A, size: 0x8, addend: 0x0, symName: __ZNSt3__19allocatorIiE10deallocateB8ue170006EPim, symObjAddr: 0x18F94, symBinAddr: 0x10001C6B8, symSize: 0x40 }
  - { offsetInCU: 0x5078C, offset: 0x5078C, size: 0x8, addend: 0x0, symName: __ZNSt3__16vectorIiNS_9allocatorIiEEED2B8ue170006Ev, symObjAddr: 0x18FD4, symBinAddr: 0x10001C6F8, symSize: 0x40 }
  - { offsetInCU: 0x507B6, offset: 0x507B6, size: 0x8, addend: 0x0, symName: __ZNKSt3__16vectorIiNS_9allocatorIiEEE5beginB8ue170006Ev, symObjAddr: 0x19014, symBinAddr: 0x10001C738, symSize: 0x30 }
  - { offsetInCU: 0x507DE, offset: 0x507DE, size: 0x8, addend: 0x0, symName: __ZNKSt3__16vectorIiNS_9allocatorIiEEE3endB8ue170006Ev, symObjAddr: 0x19044, symBinAddr: 0x10001C768, symSize: 0x30 }
  - { offsetInCU: 0x50806, offset: 0x50806, size: 0x8, addend: 0x0, symName: __ZNKSt3__111__wrap_iterIPKiEdeB8ue170006Ev, symObjAddr: 0x190A8, symBinAddr: 0x10001C7CC, symSize: 0x18 }
  - { offsetInCU: 0x5082C, offset: 0x5082C, size: 0x8, addend: 0x0, symName: __ZNSt3__111__wrap_iterIPKiEppB8ue170006Ev, symObjAddr: 0x190C0, symBinAddr: 0x10001C7E4, symSize: 0x20 }
  - { offsetInCU: 0x50852, offset: 0x50852, size: 0x8, addend: 0x0, symName: __ZNKSt3__16vectorIiNS_9allocatorIiEEE11__make_iterB8ue170006EPKi, symObjAddr: 0x190E0, symBinAddr: 0x10001C804, symSize: 0x30 }
  - { offsetInCU: 0x50887, offset: 0x50887, size: 0x8, addend: 0x0, symName: __ZNSt3__111__wrap_iterIPKiEC1B8ue170006ES2_, symObjAddr: 0x19110, symBinAddr: 0x10001C834, symSize: 0x34 }
  - { offsetInCU: 0x508BF, offset: 0x508BF, size: 0x8, addend: 0x0, symName: __ZNSt3__111__wrap_iterIPKiEC2B8ue170006ES2_, symObjAddr: 0x19144, symBinAddr: 0x10001C868, symSize: 0x20 }
  - { offsetInCU: 0x508F7, offset: 0x508F7, size: 0x8, addend: 0x0, symName: __ZNKSt3__111__wrap_iterIPKiE4baseB8ue170006Ev, symObjAddr: 0x191AC, symBinAddr: 0x10001C8D0, symSize: 0x18 }
  - { offsetInCU: 0x5091D, offset: 0x5091D, size: 0x8, addend: 0x0, symName: __ZNSt3__15stackIiNS_5dequeIiNS_9allocatorIiEEEEEC2B8ue170006Ev, symObjAddr: 0x191C4, symBinAddr: 0x10001C8E8, symSize: 0x2C }
  - { offsetInCU: 0x50947, offset: 0x50947, size: 0x8, addend: 0x0, symName: __ZNSt3__15dequeIiNS_9allocatorIiEEED2B8ue170006Ev, symObjAddr: 0x191F0, symBinAddr: 0x10001C914, symSize: 0xA4 }
  - { offsetInCU: 0x5099D, offset: 0x5099D, size: 0x8, addend: 0x0, symName: __ZNSt3__15dequeIiNS_9allocatorIiEEE5clearEv, symObjAddr: 0x19294, symBinAddr: 0x10001C9B8, symSize: 0x194 }
  - { offsetInCU: 0x509F8, offset: 0x509F8, size: 0x8, addend: 0x0, symName: __ZNKSt3__15dequeIiNS_9allocatorIiEEE17__annotate_deleteB8ue170006Ev, symObjAddr: 0x19428, symBinAddr: 0x10001CB4C, symSize: 0xE8 }
  - { offsetInCU: 0x50A3B, offset: 0x50A3B, size: 0x8, addend: 0x0, symName: __ZNSt3__114__split_bufferIPiNS_9allocatorIS1_EEE5beginB8ue170006Ev, symObjAddr: 0x19510, symBinAddr: 0x10001CC34, symSize: 0x18 }
  - { offsetInCU: 0x50A61, offset: 0x50A61, size: 0x8, addend: 0x0, symName: __ZNSt3__114__split_bufferIPiNS_9allocatorIS1_EEE3endB8ue170006Ev, symObjAddr: 0x19528, symBinAddr: 0x10001CC4C, symSize: 0x18 }
  - { offsetInCU: 0x50A87, offset: 0x50A87, size: 0x8, addend: 0x0, symName: __ZNSt3__15dequeIiNS_9allocatorIiEEE7__allocB8ue170006Ev, symObjAddr: 0x19540, symBinAddr: 0x10001CC64, symSize: 0x28 }
  - { offsetInCU: 0x50AAD, offset: 0x50AAD, size: 0x8, addend: 0x0, symName: __ZNSt3__114__split_bufferIPiNS_9allocatorIS1_EEED1Ev, symObjAddr: 0x19568, symBinAddr: 0x10001CC8C, symSize: 0x2C }
  - { offsetInCU: 0x50AD9, offset: 0x50AD9, size: 0x8, addend: 0x0, symName: __ZNSt3__15dequeIiNS_9allocatorIiEEE5beginB8ue170006Ev, symObjAddr: 0x19594, symBinAddr: 0x10001CCB8, symSize: 0xB8 }
  - { offsetInCU: 0x50B0E, offset: 0x50B0E, size: 0x8, addend: 0x0, symName: __ZNSt3__15dequeIiNS_9allocatorIiEEE3endB8ue170006Ev, symObjAddr: 0x1964C, symBinAddr: 0x10001CD70, symSize: 0xBC }
  - { offsetInCU: 0x50B52, offset: 0x50B52, size: 0x8, addend: 0x0, symName: __ZNKSt3__116__deque_iteratorIiPiRiPS1_lLl1024EEdeB8ue170006Ev, symObjAddr: 0x1973C, symBinAddr: 0x10001CE60, symSize: 0x18 }
  - { offsetInCU: 0x50B78, offset: 0x50B78, size: 0x8, addend: 0x0, symName: __ZNSt3__116__deque_iteratorIiPiRiPS1_lLl1024EEppB8ue170006Ev, symObjAddr: 0x19754, symBinAddr: 0x10001CE78, symSize: 0x70 }
  - { offsetInCU: 0x50B9E, offset: 0x50B9E, size: 0x8, addend: 0x0, symName: __ZNSt3__15dequeIiNS_9allocatorIiEEE6__sizeB8ue170006Ev, symObjAddr: 0x197C4, symBinAddr: 0x10001CEE8, symSize: 0x28 }
  - { offsetInCU: 0x50BC4, offset: 0x50BC4, size: 0x8, addend: 0x0, symName: __ZNKSt3__114__split_bufferIPiNS_9allocatorIS1_EEE4sizeB8ue170006Ev, symObjAddr: 0x197EC, symBinAddr: 0x10001CF10, symSize: 0x28 }
  - { offsetInCU: 0x50BEA, offset: 0x50BEA, size: 0x8, addend: 0x0, symName: __ZNSt3__114__split_bufferIPiNS_9allocatorIS1_EEE5frontB8ue170006Ev, symObjAddr: 0x19814, symBinAddr: 0x10001CF38, symSize: 0x18 }
  - { offsetInCU: 0x50C10, offset: 0x50C10, size: 0x8, addend: 0x0, symName: __ZNSt3__114__split_bufferIPiNS_9allocatorIS1_EEE9pop_frontB8ue170006Ev, symObjAddr: 0x1982C, symBinAddr: 0x10001CF50, symSize: 0x2C }
  - { offsetInCU: 0x50C36, offset: 0x50C36, size: 0x8, addend: 0x0, symName: __ZNKSt3__15dequeIiNS_9allocatorIiEEE14__annotate_newB8ue170006Em, symObjAddr: 0x19858, symBinAddr: 0x10001CF7C, symSize: 0xB8 }
  - { offsetInCU: 0x50C6B, offset: 0x50C6B, size: 0x8, addend: 0x0, symName: __ZNKSt3__114__split_bufferIPiNS_9allocatorIS1_EEE5emptyB8ue170006Ev, symObjAddr: 0x19910, symBinAddr: 0x10001D034, symSize: 0x28 }
  - { offsetInCU: 0x50C91, offset: 0x50C91, size: 0x8, addend: 0x0, symName: __ZNSt3__116__deque_iteratorIiPiRiPS1_lLl1024EEC1B8ue170006ES3_S1_, symObjAddr: 0x19938, symBinAddr: 0x10001D05C, symSize: 0x3C }
  - { offsetInCU: 0x50CD9, offset: 0x50CD9, size: 0x8, addend: 0x0, symName: __ZNSt3__116__deque_iteratorIiPiRiPS1_lLl1024EEC2B8ue170006ES3_S1_, symObjAddr: 0x19974, symBinAddr: 0x10001D098, symSize: 0x2C }
  - { offsetInCU: 0x50D21, offset: 0x50D21, size: 0x8, addend: 0x0, symName: __ZNKSt3__15dequeIiNS_9allocatorIiEEE4sizeB8ue170006Ev, symObjAddr: 0x199A0, symBinAddr: 0x10001D0C4, symSize: 0x28 }
  - { offsetInCU: 0x50D47, offset: 0x50D47, size: 0x8, addend: 0x0, symName: __ZNKSt3__15dequeIiNS_9allocatorIiEEE6__sizeB8ue170006Ev, symObjAddr: 0x199C8, symBinAddr: 0x10001D0EC, symSize: 0x28 }
  - { offsetInCU: 0x50D6D, offset: 0x50D6D, size: 0x8, addend: 0x0, symName: __ZNKSt3__117__compressed_pairImNS_9allocatorIiEEE5firstB8ue170006Ev, symObjAddr: 0x199F0, symBinAddr: 0x10001D114, symSize: 0x24 }
  - { offsetInCU: 0x50D93, offset: 0x50D93, size: 0x8, addend: 0x0, symName: __ZNSt3__117__compressed_pairImNS_9allocatorIiEEE5firstB8ue170006Ev, symObjAddr: 0x19A44, symBinAddr: 0x10001D168, symSize: 0x24 }
  - { offsetInCU: 0x50DB9, offset: 0x50DB9, size: 0x8, addend: 0x0, symName: __ZNSt3__114__split_bufferIPiNS_9allocatorIS1_EEE19__destruct_at_beginB8ue170006EPS1_, symObjAddr: 0x19A68, symBinAddr: 0x10001D18C, symSize: 0x2C }
  - { offsetInCU: 0x50DED, offset: 0x50DED, size: 0x8, addend: 0x0, symName: __ZNSt3__114__split_bufferIPiNS_9allocatorIS1_EEE19__destruct_at_beginEPS1_NS_17integral_constantIbLb1EEE, symObjAddr: 0x19A94, symBinAddr: 0x10001D1B8, symSize: 0x20 }
  - { offsetInCU: 0x50E2E, offset: 0x50E2E, size: 0x8, addend: 0x0, symName: __ZNKSt3__15dequeIiNS_9allocatorIiEEE18__annotate_from_toB8ue170006EmmNS3_22__asan_annotation_typeENS3_23__asan_annotation_placeE, symObjAddr: 0x19AB4, symBinAddr: 0x10001D1D8, symSize: 0x580 }
  - { offsetInCU: 0x50FEA, offset: 0x50FEA, size: 0x8, addend: 0x0, symName: __ZNKSt3__114__split_bufferIPiNS_9allocatorIS1_EEE5beginB8ue170006Ev, symObjAddr: 0x1A034, symBinAddr: 0x10001D758, symSize: 0x18 }
  - { offsetInCU: 0x51010, offset: 0x51010, size: 0x8, addend: 0x0, symName: __ZNKSt3__15dequeIiNS_9allocatorIiEEE5emptyB8ue170006Ev, symObjAddr: 0x1A04C, symBinAddr: 0x10001D770, symSize: 0x30 }
  - { offsetInCU: 0x51036, offset: 0x51036, size: 0x8, addend: 0x0, symName: __ZNKSt3__15dequeIiNS_9allocatorIiEEE44__annotate_double_ended_contiguous_containerB8ue170006EPKvS5_S5_S5_S5_S5_, symObjAddr: 0x1A07C, symBinAddr: 0x10001D7A0, symSize: 0x28 }
  - { offsetInCU: 0x510A4, offset: 0x510A4, size: 0x8, addend: 0x0, symName: __ZNKSt3__15dequeIiNS_9allocatorIiEEE22__annotate_whole_blockB8ue170006EmNS3_22__asan_annotation_typeE, symObjAddr: 0x1A0A4, symBinAddr: 0x10001D7C8, symSize: 0xAC }
  - { offsetInCU: 0x51115, offset: 0x51115, size: 0x8, addend: 0x0, symName: __ZNKSt3__15dequeIiNS_9allocatorIiEEE23__annotate_poison_blockB8ue170006EPKvS5_, symObjAddr: 0x1A150, symBinAddr: 0x10001D874, symSize: 0x44 }
  - { offsetInCU: 0x51159, offset: 0x51159, size: 0x8, addend: 0x0, symName: __ZNSt3__117__compressed_pairImNS_9allocatorIiEEE6secondB8ue170006Ev, symObjAddr: 0x1A194, symBinAddr: 0x10001D8B8, symSize: 0x24 }
  - { offsetInCU: 0x5117F, offset: 0x5117F, size: 0x8, addend: 0x0, symName: __ZNSt3__114__split_bufferIPiNS_9allocatorIS1_EEED2Ev, symObjAddr: 0x1A1B8, symBinAddr: 0x10001D8DC, symSize: 0x8C }
  - { offsetInCU: 0x511AB, offset: 0x511AB, size: 0x8, addend: 0x0, symName: __ZNSt3__114__split_bufferIPiNS_9allocatorIS1_EEE5clearB8ue170006Ev, symObjAddr: 0x1A244, symBinAddr: 0x10001D968, symSize: 0x28 }
  - { offsetInCU: 0x511D1, offset: 0x511D1, size: 0x8, addend: 0x0, symName: __ZNSt3__116allocator_traitsINS_9allocatorIPiEEE10deallocateB8ue170006ERS3_PS2_m, symObjAddr: 0x1A26C, symBinAddr: 0x10001D990, symSize: 0x34 }
  - { offsetInCU: 0x51213, offset: 0x51213, size: 0x8, addend: 0x0, symName: __ZNSt3__114__split_bufferIPiNS_9allocatorIS1_EEE7__allocB8ue170006Ev, symObjAddr: 0x1A2A0, symBinAddr: 0x10001D9C4, symSize: 0x28 }
  - { offsetInCU: 0x51239, offset: 0x51239, size: 0x8, addend: 0x0, symName: __ZNKSt3__114__split_bufferIPiNS_9allocatorIS1_EEE8capacityB8ue170006Ev, symObjAddr: 0x1A2C8, symBinAddr: 0x10001D9EC, symSize: 0x40 }
  - { offsetInCU: 0x5125F, offset: 0x5125F, size: 0x8, addend: 0x0, symName: __ZNSt3__114__split_bufferIPiNS_9allocatorIS1_EEE17__destruct_at_endB8ue170006EPS1_, symObjAddr: 0x1A308, symBinAddr: 0x10001DA2C, symSize: 0x2C }
  - { offsetInCU: 0x51293, offset: 0x51293, size: 0x8, addend: 0x0, symName: __ZNSt3__114__split_bufferIPiNS_9allocatorIS1_EEE17__destruct_at_endB8ue170006EPS1_NS_17integral_constantIbLb0EEE, symObjAddr: 0x1A334, symBinAddr: 0x10001DA58, symSize: 0x80 }
  - { offsetInCU: 0x512D4, offset: 0x512D4, size: 0x8, addend: 0x0, symName: __ZNSt3__116allocator_traitsINS_9allocatorIPiEEE7destroyB8ue170006IS2_vEEvRS3_PT_, symObjAddr: 0x1A3B4, symBinAddr: 0x10001DAD8, symSize: 0x2C }
  - { offsetInCU: 0x51311, offset: 0x51311, size: 0x8, addend: 0x0, symName: __ZNSt3__19allocatorIPiE7destroyB8ue170006EPS1_, symObjAddr: 0x1A3F4, symBinAddr: 0x10001DB18, symSize: 0x14 }
  - { offsetInCU: 0x51345, offset: 0x51345, size: 0x8, addend: 0x0, symName: __ZNSt3__19allocatorIPiE10deallocateB8ue170006EPS1_m, symObjAddr: 0x1A408, symBinAddr: 0x10001DB2C, symSize: 0x40 }
  - { offsetInCU: 0x51387, offset: 0x51387, size: 0x8, addend: 0x0, symName: __ZNSt3__117__compressed_pairIPPiNS_9allocatorIS1_EEE6secondB8ue170006Ev, symObjAddr: 0x1A448, symBinAddr: 0x10001DB6C, symSize: 0x24 }
  - { offsetInCU: 0x513AD, offset: 0x513AD, size: 0x8, addend: 0x0, symName: __ZNSt3__122__compressed_pair_elemINS_9allocatorIPiEELi1ELb1EE5__getB8ue170006Ev, symObjAddr: 0x1A46C, symBinAddr: 0x10001DB90, symSize: 0x14 }
  - { offsetInCU: 0x513D3, offset: 0x513D3, size: 0x8, addend: 0x0, symName: __ZNKSt3__114__split_bufferIPiNS_9allocatorIS1_EEE9__end_capB8ue170006Ev, symObjAddr: 0x1A480, symBinAddr: 0x10001DBA4, symSize: 0x28 }
  - { offsetInCU: 0x513F9, offset: 0x513F9, size: 0x8, addend: 0x0, symName: __ZNKSt3__117__compressed_pairIPPiNS_9allocatorIS1_EEE5firstB8ue170006Ev, symObjAddr: 0x1A4A8, symBinAddr: 0x10001DBCC, symSize: 0x24 }
  - { offsetInCU: 0x5141F, offset: 0x5141F, size: 0x8, addend: 0x0, symName: __ZNKSt3__122__compressed_pair_elemIPPiLi0ELb0EE5__getB8ue170006Ev, symObjAddr: 0x1A4CC, symBinAddr: 0x10001DBF0, symSize: 0x14 }
  - { offsetInCU: 0x51445, offset: 0x51445, size: 0x8, addend: 0x0, symName: __ZNSt3__16vectorIiNS_9allocatorIiEEE11__make_iterB8ue170006EPi, symObjAddr: 0x1A4E0, symBinAddr: 0x10001DC04, symSize: 0x30 }
  - { offsetInCU: 0x5147A, offset: 0x5147A, size: 0x8, addend: 0x0, symName: __ZNSt3__111__wrap_iterIPiEC1B8ue170006ES1_, symObjAddr: 0x1A510, symBinAddr: 0x10001DC34, symSize: 0x34 }
  - { offsetInCU: 0x514B2, offset: 0x514B2, size: 0x8, addend: 0x0, symName: __ZNSt3__111__wrap_iterIPiEC2B8ue170006ES1_, symObjAddr: 0x1A544, symBinAddr: 0x10001DC68, symSize: 0x20 }
  - { offsetInCU: 0x514EA, offset: 0x514EA, size: 0x8, addend: 0x0, symName: __ZNSt3__15dequeIiNS_9allocatorIiEEE9push_backERKi, symObjAddr: 0x1A564, symBinAddr: 0x10001DC88, symSize: 0xAC }
  - { offsetInCU: 0x51530, offset: 0x51530, size: 0x8, addend: 0x0, symName: __ZNKSt3__15dequeIiNS_9allocatorIiEEE12__back_spareB8ue170006Ev, symObjAddr: 0x1A610, symBinAddr: 0x10001DD34, symSize: 0x54 }
  - { offsetInCU: 0x51556, offset: 0x51556, size: 0x8, addend: 0x0, symName: __ZNSt3__15dequeIiNS_9allocatorIiEEE19__add_back_capacityEv, symObjAddr: 0x1A664, symBinAddr: 0x10001DD88, symSize: 0x34C }
  - { offsetInCU: 0x5160B, offset: 0x5160B, size: 0x8, addend: 0x0, symName: __ZNKSt3__15dequeIiNS_9allocatorIiEEE24__annotate_increase_backB8ue170006Em, symObjAddr: 0x1A9B0, symBinAddr: 0x10001E0D4, symSize: 0x7C }
  - { offsetInCU: 0x51640, offset: 0x51640, size: 0x8, addend: 0x0, symName: __ZNSt3__116allocator_traitsINS_9allocatorIiEEE9constructB8ue170006IiJRKiEvEEvRS2_PT_DpOT0_, symObjAddr: 0x1AA2C, symBinAddr: 0x10001E150, symSize: 0x34 }
  - { offsetInCU: 0x51697, offset: 0x51697, size: 0x8, addend: 0x0, symName: __ZNKSt3__15dequeIiNS_9allocatorIiEEE10__capacityB8ue170006Ev, symObjAddr: 0x1AA60, symBinAddr: 0x10001E184, symSize: 0x60 }
  - { offsetInCU: 0x516BD, offset: 0x516BD, size: 0x8, addend: 0x0, symName: __ZNKSt3__15dequeIiNS_9allocatorIiEEE13__front_spareB8ue170006Ev, symObjAddr: 0x1AAC0, symBinAddr: 0x10001E1E4, symSize: 0x18 }
  - { offsetInCU: 0x516E3, offset: 0x516E3, size: 0x8, addend: 0x0, symName: __ZNSt3__114__split_bufferIPiNS_9allocatorIS1_EEE9push_backB8ue170006ERKS1_, symObjAddr: 0x1AAD8, symBinAddr: 0x10001E1FC, symSize: 0x260 }
  - { offsetInCU: 0x5175B, offset: 0x5175B, size: 0x8, addend: 0x0, symName: __ZNKSt3__114__split_bufferIPiNS_9allocatorIS1_EEE12__back_spareB8ue170006Ev, symObjAddr: 0x1AD38, symBinAddr: 0x10001E45C, symSize: 0x40 }
  - { offsetInCU: 0x51781, offset: 0x51781, size: 0x8, addend: 0x0, symName: __ZNSt3__114__split_bufferIPiNS_9allocatorIS1_EEE9push_backEOS1_, symObjAddr: 0x1AD78, symBinAddr: 0x10001E49C, symSize: 0x260 }
  - { offsetInCU: 0x517F9, offset: 0x517F9, size: 0x8, addend: 0x0, symName: __ZNSt3__116allocator_traitsINS_9allocatorIiEEE8allocateB8ue170006ERS2_m, symObjAddr: 0x1AFD8, symBinAddr: 0x10001E6FC, symSize: 0x2C }
  - { offsetInCU: 0x5182C, offset: 0x5182C, size: 0x8, addend: 0x0, symName: __ZNSt3__114__split_bufferIPiNS_9allocatorIS1_EEE10push_frontEOS1_, symObjAddr: 0x1B004, symBinAddr: 0x10001E728, symSize: 0x25C }
  - { offsetInCU: 0x518A4, offset: 0x518A4, size: 0x8, addend: 0x0, symName: __ZNSt3__114__split_bufferIPiRNS_9allocatorIS1_EEEC1EmmS4_, symObjAddr: 0x1B260, symBinAddr: 0x10001E984, symSize: 0x44 }
  - { offsetInCU: 0x51900, offset: 0x51900, size: 0x8, addend: 0x0, symName: __ZNSt3__122__allocator_destructorINS_9allocatorIiEEEC1B8ue170006ERS2_m, symObjAddr: 0x1B2A4, symBinAddr: 0x10001E9C8, symSize: 0x3C }
  - { offsetInCU: 0x519BF, offset: 0x519BF, size: 0x8, addend: 0x0, symName: __ZNSt3__110unique_ptrIPiNS_22__allocator_destructorINS_9allocatorIiEEEEEC1B8ue170006ILb1EvEES1_NS_16__dependent_typeINS_27__unique_ptr_deleter_sfinaeIS5_EEXT_EE20__good_rval_ref_typeE, symObjAddr: 0x1B2E0, symBinAddr: 0x10001EA04, symSize: 0x3C }
  - { offsetInCU: 0x51A10, offset: 0x51A10, size: 0x8, addend: 0x0, symName: __ZNSt3__114__split_bufferIPiRNS_9allocatorIS1_EEE9push_backEOS1_, symObjAddr: 0x1B31C, symBinAddr: 0x10001EA40, symSize: 0x260 }
  - { offsetInCU: 0x51A88, offset: 0x51A88, size: 0x8, addend: 0x0, symName: __ZNKSt3__110unique_ptrIPiNS_22__allocator_destructorINS_9allocatorIiEEEEE3getB8ue170006Ev, symObjAddr: 0x1B57C, symBinAddr: 0x10001ECA0, symSize: 0x28 }
  - { offsetInCU: 0x51AAE, offset: 0x51AAE, size: 0x8, addend: 0x0, symName: __ZNSt3__110unique_ptrIPiNS_22__allocator_destructorINS_9allocatorIiEEEEE7releaseB8ue170006Ev, symObjAddr: 0x1B5A4, symBinAddr: 0x10001ECC8, symSize: 0x44 }
  - { offsetInCU: 0x51AE3, offset: 0x51AE3, size: 0x8, addend: 0x0, symName: __ZNSt3__114__split_bufferIPiRNS_9allocatorIS1_EEE10push_frontERKS1_, symObjAddr: 0x1B5E8, symBinAddr: 0x10001ED0C, symSize: 0x25C }
  - { offsetInCU: 0x51B5B, offset: 0x51B5B, size: 0x8, addend: 0x0, symName: __ZNSt3__114__split_bufferIPiNS_9allocatorIS1_EEE9__end_capB8ue170006Ev, symObjAddr: 0x1B880, symBinAddr: 0x10001EFA4, symSize: 0x28 }
  - { offsetInCU: 0x51B81, offset: 0x51B81, size: 0x8, addend: 0x0, symName: __ZNSt3__114__split_bufferIPiRNS_9allocatorIS1_EEE9__end_capB8ue170006Ev, symObjAddr: 0x1B8A8, symBinAddr: 0x10001EFCC, symSize: 0x28 }
  - { offsetInCU: 0x51BA7, offset: 0x51BA7, size: 0x8, addend: 0x0, symName: __ZNSt3__110unique_ptrIPiNS_22__allocator_destructorINS_9allocatorIiEEEEED1B8ue170006Ev, symObjAddr: 0x1B8D0, symBinAddr: 0x10001EFF4, symSize: 0x2C }
  - { offsetInCU: 0x51BD1, offset: 0x51BD1, size: 0x8, addend: 0x0, symName: __ZNSt3__114__split_bufferIPiRNS_9allocatorIS1_EEED1Ev, symObjAddr: 0x1B8FC, symBinAddr: 0x10001F020, symSize: 0x2C }
  - { offsetInCU: 0x51BFD, offset: 0x51BFD, size: 0x8, addend: 0x0, symName: __ZNSt3__114__split_bufferIPiRNS_9allocatorIS1_EEE18__construct_at_endINS_13move_iteratorIPS1_EEEENS_9enable_ifIXsr31__has_forward_iterator_categoryIT_EE5valueEvE4typeESB_SB_, symObjAddr: 0x1B968, symBinAddr: 0x10001F08C, symSize: 0x60 }
  - { offsetInCU: 0x51C4A, offset: 0x51C4A, size: 0x8, addend: 0x0, symName: __ZNSt3__113move_iteratorIPPiEC1B8ue170006ES2_, symObjAddr: 0x1B9C8, symBinAddr: 0x10001F0EC, symSize: 0x34 }
  - { offsetInCU: 0x51C82, offset: 0x51C82, size: 0x8, addend: 0x0, symName: __ZNSt3__116allocator_traitsINS_9allocatorIPiEEE9constructB8ue170006IS2_JRKS2_EvEEvRS3_PT_DpOT0_, symObjAddr: 0x1B9FC, symBinAddr: 0x10001F120, symSize: 0x34 }
  - { offsetInCU: 0x51CF6, offset: 0x51CF6, size: 0x8, addend: 0x0, symName: __ZNKSt3__114__move_trivialclB8ue170006IPiS2_Li0EEENS_4pairIPT_PT0_EES5_S5_S7_, symObjAddr: 0x1BBCC, symBinAddr: 0x10001F2F0, symSize: 0x48 }
  - { offsetInCU: 0x51D64, offset: 0x51D64, size: 0x8, addend: 0x0, symName: __ZNSt3__14pairIPPiS2_EC1B8ue170006IRS2_S2_LPv0EEEOT_OT0_, symObjAddr: 0x1BDF4, symBinAddr: 0x10001F518, symSize: 0x3C }
  - { offsetInCU: 0x51DC2, offset: 0x51DC2, size: 0x8, addend: 0x0, symName: __ZNSt3__14pairIPPiS2_EC2B8ue170006IRS2_S2_LPv0EEEOT_OT0_, symObjAddr: 0x1BE30, symBinAddr: 0x10001F554, symSize: 0x34 }
  - { offsetInCU: 0x51E20, offset: 0x51E20, size: 0x8, addend: 0x0, symName: __ZNSt3__118__unwrap_iter_implIPPiLb1EE8__unwrapB8ue170006ES2_, symObjAddr: 0x1BE64, symBinAddr: 0x10001F588, symSize: 0x24 }
  - { offsetInCU: 0x51E43, offset: 0x51E43, size: 0x8, addend: 0x0, symName: __ZNSt3__14pairIPPiS2_EC1B8ue170006IS2_S2_LPv0EEEOT_OT0_, symObjAddr: 0x1BE88, symBinAddr: 0x10001F5AC, symSize: 0x3C }
  - { offsetInCU: 0x51EA1, offset: 0x51EA1, size: 0x8, addend: 0x0, symName: __ZNSt3__14pairIPPiS2_EC2B8ue170006IS2_S2_LPv0EEEOT_OT0_, symObjAddr: 0x1BEC4, symBinAddr: 0x10001F5E8, symSize: 0x34 }
  - { offsetInCU: 0x51EFF, offset: 0x51EFF, size: 0x8, addend: 0x0, symName: __ZNSt3__118__unwrap_iter_implIPPiLb1EE8__rewrapB8ue170006ES2_S2_, symObjAddr: 0x1BEF8, symBinAddr: 0x10001F61C, symSize: 0x50 }
  - { offsetInCU: 0x51F30, offset: 0x51F30, size: 0x8, addend: 0x0, symName: __ZNSt3__114__split_bufferIPiRNS_9allocatorIS1_EEE28__construct_at_end_with_sizeINS_13move_iteratorIPS1_EEEEvT_m, symObjAddr: 0x1BF48, symBinAddr: 0x10001F66C, symSize: 0xDC }
  - { offsetInCU: 0x51F98, offset: 0x51F98, size: 0x8, addend: 0x0, symName: __ZNSt3__114__split_bufferIPiRNS_9allocatorIS1_EEE21_ConstructTransactionC1B8ue170006EPPS1_m, symObjAddr: 0x1C060, symBinAddr: 0x10001F784, symSize: 0x3C }
  - { offsetInCU: 0x51FDE, offset: 0x51FDE, size: 0x8, addend: 0x0, symName: __ZNSt3__116allocator_traitsINS_9allocatorIPiEEE9constructB8ue170006IS2_JS2_EvEEvRS3_PT_DpOT0_, symObjAddr: 0x1C09C, symBinAddr: 0x10001F7C0, symSize: 0x34 }
  - { offsetInCU: 0x52035, offset: 0x52035, size: 0x8, addend: 0x0, symName: __ZNSt3__114__split_bufferIPiRNS_9allocatorIS1_EEE7__allocB8ue170006Ev, symObjAddr: 0x1C0D0, symBinAddr: 0x10001F7F4, symSize: 0x28 }
  - { offsetInCU: 0x5205B, offset: 0x5205B, size: 0x8, addend: 0x0, symName: __ZNKSt3__113move_iteratorIPPiEdeB8ue170006Ev, symObjAddr: 0x1C0F8, symBinAddr: 0x10001F81C, symSize: 0x18 }
  - { offsetInCU: 0x52081, offset: 0x52081, size: 0x8, addend: 0x0, symName: __ZNSt3__113move_iteratorIPPiEppB8ue170006Ev, symObjAddr: 0x1C110, symBinAddr: 0x10001F834, symSize: 0x20 }
  - { offsetInCU: 0x520A7, offset: 0x520A7, size: 0x8, addend: 0x0, symName: __ZNSt3__114__split_bufferIPiRNS_9allocatorIS1_EEE21_ConstructTransactionD1B8ue170006Ev, symObjAddr: 0x1C130, symBinAddr: 0x10001F854, symSize: 0x2C }
  - { offsetInCU: 0x520D1, offset: 0x520D1, size: 0x8, addend: 0x0, symName: __ZNSt3__114__split_bufferIPiRNS_9allocatorIS1_EEE21_ConstructTransactionC2B8ue170006EPPS1_m, symObjAddr: 0x1C15C, symBinAddr: 0x10001F880, symSize: 0x44 }
  - { offsetInCU: 0x52117, offset: 0x52117, size: 0x8, addend: 0x0, symName: __ZNSt3__19allocatorIPiE9constructB8ue170006IS1_JS1_EEEvPT_DpOT0_, symObjAddr: 0x1C1A0, symBinAddr: 0x10001F8C4, symSize: 0x28 }
  - { offsetInCU: 0x5216D, offset: 0x5216D, size: 0x8, addend: 0x0, symName: __ZNSt3__117__compressed_pairIPPiRNS_9allocatorIS1_EEE6secondB8ue170006Ev, symObjAddr: 0x1C1C8, symBinAddr: 0x10001F8EC, symSize: 0x28 }
  - { offsetInCU: 0x52193, offset: 0x52193, size: 0x8, addend: 0x0, symName: __ZNSt3__122__compressed_pair_elemIRNS_9allocatorIPiEELi1ELb0EE5__getB8ue170006Ev, symObjAddr: 0x1C1F0, symBinAddr: 0x10001F914, symSize: 0x18 }
  - { offsetInCU: 0x521B9, offset: 0x521B9, size: 0x8, addend: 0x0, symName: __ZNSt3__114__split_bufferIPiRNS_9allocatorIS1_EEE21_ConstructTransactionD2B8ue170006Ev, symObjAddr: 0x1C208, symBinAddr: 0x10001F92C, symSize: 0x20 }
  - { offsetInCU: 0x521E3, offset: 0x521E3, size: 0x8, addend: 0x0, symName: __ZNKSt3__113move_iteratorIPPiE4baseB8ue170006Ev, symObjAddr: 0x1C2A0, symBinAddr: 0x10001F9C4, symSize: 0x18 }
  - { offsetInCU: 0x52209, offset: 0x52209, size: 0x8, addend: 0x0, symName: __ZNSt3__113move_iteratorIPPiEC2B8ue170006ES2_, symObjAddr: 0x1C2B8, symBinAddr: 0x10001F9DC, symSize: 0x20 }
  - { offsetInCU: 0x52241, offset: 0x52241, size: 0x8, addend: 0x0, symName: __ZNSt3__19allocatorIPiE9constructB8ue170006IS1_JRKS1_EEEvPT_DpOT0_, symObjAddr: 0x1C2D8, symBinAddr: 0x10001F9FC, symSize: 0x28 }
  - { offsetInCU: 0x52297, offset: 0x52297, size: 0x8, addend: 0x0, symName: __ZNKSt3__123__move_backward_trivialclB8ue170006IPiS2_Li0EEENS_4pairIPT_PT0_EES5_S5_S7_, symObjAddr: 0x1C47C, symBinAddr: 0x10001FBA0, symSize: 0x48 }
  - { offsetInCU: 0x522FF, offset: 0x522FF, size: 0x8, addend: 0x0, symName: __ZNSt3__14pairIPPiS2_EC1B8ue170006IRS2_S5_LPv0EEEOT_OT0_, symObjAddr: 0x1C58C, symBinAddr: 0x10001FCB0, symSize: 0x3C }
  - { offsetInCU: 0x5235D, offset: 0x5235D, size: 0x8, addend: 0x0, symName: __ZNSt3__14pairIPPiS2_EC2B8ue170006IRS2_S5_LPv0EEEOT_OT0_, symObjAddr: 0x1C5C8, symBinAddr: 0x10001FCEC, symSize: 0x34 }
  - { offsetInCU: 0x523BB, offset: 0x523BB, size: 0x8, addend: 0x0, symName: __ZNSt3__114__split_bufferIPiRNS_9allocatorIS1_EEEC2EmmS4_, symObjAddr: 0x1C5FC, symBinAddr: 0x10001FD20, symSize: 0xD4 }
  - { offsetInCU: 0x5242E, offset: 0x5242E, size: 0x8, addend: 0x0, symName: __ZNSt3__117__compressed_pairIPPiRNS_9allocatorIS1_EEEC1B8ue170006IDnS5_EEOT_OT0_, symObjAddr: 0x1C6D0, symBinAddr: 0x10001FDF4, symSize: 0x3C }
  - { offsetInCU: 0x52486, offset: 0x52486, size: 0x8, addend: 0x0, symName: __ZNSt3__117__compressed_pairIPPiRNS_9allocatorIS1_EEEC2B8ue170006IDnS5_EEOT_OT0_, symObjAddr: 0x1C74C, symBinAddr: 0x10001FE70, symSize: 0x48 }
  - { offsetInCU: 0x524DE, offset: 0x524DE, size: 0x8, addend: 0x0, symName: __ZNSt3__122__compressed_pair_elemIPPiLi0ELb0EEC2B8ue170006IDnvEEOT_, symObjAddr: 0x1C794, symBinAddr: 0x10001FEB8, symSize: 0x1C }
  - { offsetInCU: 0x52520, offset: 0x52520, size: 0x8, addend: 0x0, symName: __ZNSt3__122__compressed_pair_elemIRNS_9allocatorIPiEELi1ELb0EEC2B8ue170006IS4_vEEOT_, symObjAddr: 0x1C7B0, symBinAddr: 0x10001FED4, symSize: 0x20 }
  - { offsetInCU: 0x52562, offset: 0x52562, size: 0x8, addend: 0x0, symName: __ZNSt3__19allocatorIPiE8allocateB8ue170006Em, symObjAddr: 0x1C7D0, symBinAddr: 0x10001FEF4, symSize: 0x58 }
  - { offsetInCU: 0x525A1, offset: 0x525A1, size: 0x8, addend: 0x0, symName: __ZNSt3__116allocator_traitsINS_9allocatorIPiEEE8max_sizeB8ue170006IS3_vEEmRKS3_, symObjAddr: 0x1C828, symBinAddr: 0x10001FF4C, symSize: 0x24 }
  - { offsetInCU: 0x525CF, offset: 0x525CF, size: 0x8, addend: 0x0, symName: __ZNKSt3__19allocatorIPiE8max_sizeB8ue170006Ev, symObjAddr: 0x1C84C, symBinAddr: 0x10001FF70, symSize: 0x14 }
  - { offsetInCU: 0x525F5, offset: 0x525F5, size: 0x8, addend: 0x0, symName: __ZNSt3__122__allocator_destructorINS_9allocatorIiEEEC2B8ue170006ERS2_m, symObjAddr: 0x1C860, symBinAddr: 0x10001FF84, symSize: 0x2C }
  - { offsetInCU: 0x5263B, offset: 0x5263B, size: 0x8, addend: 0x0, symName: __ZNSt3__110unique_ptrIPiNS_22__allocator_destructorINS_9allocatorIiEEEEEC2B8ue170006ILb1EvEES1_NS_16__dependent_typeINS_27__unique_ptr_deleter_sfinaeIS5_EEXT_EE20__good_rval_ref_typeE, symObjAddr: 0x1C88C, symBinAddr: 0x10001FFB0, symSize: 0x48 }
  - { offsetInCU: 0x5268C, offset: 0x5268C, size: 0x8, addend: 0x0, symName: __ZNSt3__117__compressed_pairIPiNS_22__allocator_destructorINS_9allocatorIiEEEEEC1B8ue170006IRS1_S5_EEOT_OT0_, symObjAddr: 0x1C8D4, symBinAddr: 0x10001FFF8, symSize: 0x3C }
  - { offsetInCU: 0x526E4, offset: 0x526E4, size: 0x8, addend: 0x0, symName: __ZNSt3__117__compressed_pairIPiNS_22__allocator_destructorINS_9allocatorIiEEEEEC2B8ue170006IRS1_S5_EEOT_OT0_, symObjAddr: 0x1C910, symBinAddr: 0x100020034, symSize: 0x48 }
  - { offsetInCU: 0x5273C, offset: 0x5273C, size: 0x8, addend: 0x0, symName: __ZNSt3__122__compressed_pair_elemIPiLi0ELb0EEC2B8ue170006IRS1_vEEOT_, symObjAddr: 0x1C958, symBinAddr: 0x10002007C, symSize: 0x24 }
  - { offsetInCU: 0x5277E, offset: 0x5277E, size: 0x8, addend: 0x0, symName: __ZNSt3__122__compressed_pair_elemINS_22__allocator_destructorINS_9allocatorIiEEEELi1ELb0EEC2B8ue170006IS4_vEEOT_, symObjAddr: 0x1C97C, symBinAddr: 0x1000200A0, symSize: 0x24 }
  - { offsetInCU: 0x527C0, offset: 0x527C0, size: 0x8, addend: 0x0, symName: __ZNKSt3__117__compressed_pairIPiNS_22__allocator_destructorINS_9allocatorIiEEEEE5firstB8ue170006Ev, symObjAddr: 0x1C9A0, symBinAddr: 0x1000200C4, symSize: 0x24 }
  - { offsetInCU: 0x527E6, offset: 0x527E6, size: 0x8, addend: 0x0, symName: __ZNSt3__117__compressed_pairIPiNS_22__allocator_destructorINS_9allocatorIiEEEEE5firstB8ue170006Ev, symObjAddr: 0x1C9C4, symBinAddr: 0x1000200E8, symSize: 0x24 }
  - { offsetInCU: 0x5280C, offset: 0x5280C, size: 0x8, addend: 0x0, symName: __ZNSt3__117__compressed_pairIPPiNS_9allocatorIS1_EEE5firstB8ue170006Ev, symObjAddr: 0x1C9E8, symBinAddr: 0x10002010C, symSize: 0x24 }
  - { offsetInCU: 0x52832, offset: 0x52832, size: 0x8, addend: 0x0, symName: __ZNSt3__122__compressed_pair_elemIPPiLi0ELb0EE5__getB8ue170006Ev, symObjAddr: 0x1CA0C, symBinAddr: 0x100020130, symSize: 0x14 }
  - { offsetInCU: 0x52858, offset: 0x52858, size: 0x8, addend: 0x0, symName: __ZNSt3__117__compressed_pairIPPiRNS_9allocatorIS1_EEE5firstB8ue170006Ev, symObjAddr: 0x1CA20, symBinAddr: 0x100020144, symSize: 0x24 }
  - { offsetInCU: 0x5287E, offset: 0x5287E, size: 0x8, addend: 0x0, symName: __ZNSt3__110unique_ptrIPiNS_22__allocator_destructorINS_9allocatorIiEEEEED2B8ue170006Ev, symObjAddr: 0x1CA44, symBinAddr: 0x100020168, symSize: 0x30 }
  - { offsetInCU: 0x528A8, offset: 0x528A8, size: 0x8, addend: 0x0, symName: __ZNSt3__110unique_ptrIPiNS_22__allocator_destructorINS_9allocatorIiEEEEE5resetB8ue170006ES1_, symObjAddr: 0x1CA74, symBinAddr: 0x100020198, symSize: 0x78 }
  - { offsetInCU: 0x528EC, offset: 0x528EC, size: 0x8, addend: 0x0, symName: __ZNSt3__117__compressed_pairIPiNS_22__allocator_destructorINS_9allocatorIiEEEEE6secondB8ue170006Ev, symObjAddr: 0x1CAEC, symBinAddr: 0x100020210, symSize: 0x28 }
  - { offsetInCU: 0x52912, offset: 0x52912, size: 0x8, addend: 0x0, symName: __ZNSt3__122__allocator_destructorINS_9allocatorIiEEEclB8ue170006EPi, symObjAddr: 0x1CB14, symBinAddr: 0x100020238, symSize: 0x34 }
  - { offsetInCU: 0x52946, offset: 0x52946, size: 0x8, addend: 0x0, symName: __ZNSt3__122__compressed_pair_elemINS_22__allocator_destructorINS_9allocatorIiEEEELi1ELb0EE5__getB8ue170006Ev, symObjAddr: 0x1CB48, symBinAddr: 0x10002026C, symSize: 0x14 }
  - { offsetInCU: 0x5296C, offset: 0x5296C, size: 0x8, addend: 0x0, symName: __ZNSt3__114__split_bufferIPiRNS_9allocatorIS1_EEED2Ev, symObjAddr: 0x1CB5C, symBinAddr: 0x100020280, symSize: 0x8C }
  - { offsetInCU: 0x52998, offset: 0x52998, size: 0x8, addend: 0x0, symName: __ZNSt3__114__split_bufferIPiRNS_9allocatorIS1_EEE5clearB8ue170006Ev, symObjAddr: 0x1CBE8, symBinAddr: 0x10002030C, symSize: 0x28 }
  - { offsetInCU: 0x529BE, offset: 0x529BE, size: 0x8, addend: 0x0, symName: __ZNKSt3__114__split_bufferIPiRNS_9allocatorIS1_EEE8capacityB8ue170006Ev, symObjAddr: 0x1CC10, symBinAddr: 0x100020334, symSize: 0x40 }
  - { offsetInCU: 0x529E4, offset: 0x529E4, size: 0x8, addend: 0x0, symName: __ZNSt3__114__split_bufferIPiRNS_9allocatorIS1_EEE17__destruct_at_endB8ue170006EPS1_, symObjAddr: 0x1CC50, symBinAddr: 0x100020374, symSize: 0x2C }
  - { offsetInCU: 0x52A18, offset: 0x52A18, size: 0x8, addend: 0x0, symName: __ZNSt3__114__split_bufferIPiRNS_9allocatorIS1_EEE17__destruct_at_endB8ue170006EPS1_NS_17integral_constantIbLb0EEE, symObjAddr: 0x1CC7C, symBinAddr: 0x1000203A0, symSize: 0x80 }
  - { offsetInCU: 0x52A59, offset: 0x52A59, size: 0x8, addend: 0x0, symName: __ZNKSt3__114__split_bufferIPiRNS_9allocatorIS1_EEE9__end_capB8ue170006Ev, symObjAddr: 0x1CCFC, symBinAddr: 0x100020420, symSize: 0x28 }
  - { offsetInCU: 0x52A7F, offset: 0x52A7F, size: 0x8, addend: 0x0, symName: __ZNKSt3__117__compressed_pairIPPiRNS_9allocatorIS1_EEE5firstB8ue170006Ev, symObjAddr: 0x1CD24, symBinAddr: 0x100020448, symSize: 0x24 }
  - { offsetInCU: 0x52AA5, offset: 0x52AA5, size: 0x8, addend: 0x0, symName: __ZNSt3__19allocatorIiE9constructB8ue170006IiJRKiEEEvPT_DpOT0_, symObjAddr: 0x1CD48, symBinAddr: 0x10002046C, symSize: 0x28 }
  - { offsetInCU: 0x52AFB, offset: 0x52AFB, size: 0x8, addend: 0x0, symName: __ZNKSt3__15stackIiNS_5dequeIiNS_9allocatorIiEEEEE5emptyB8ue170006Ev, symObjAddr: 0x1CD70, symBinAddr: 0x100020494, symSize: 0x28 }
  - { offsetInCU: 0x52B20, offset: 0x52B20, size: 0x8, addend: 0x0, symName: __Z12adapter_peekIiNSt3__15dequeIiNS0_9allocatorIiEEEEEDTcldtfp_3topEERKNS0_5stackIT_T0_EE, symObjAddr: 0x1CD98, symBinAddr: 0x1000204BC, symSize: 0x24 }
  - { offsetInCU: 0x52B5F, offset: 0x52B5F, size: 0x8, addend: 0x0, symName: __ZNSt3__15stackIiNS_5dequeIiNS_9allocatorIiEEEEE3popB8ue170006Ev, symObjAddr: 0x1CDBC, symBinAddr: 0x1000204E0, symSize: 0x24 }
  - { offsetInCU: 0x52B85, offset: 0x52B85, size: 0x8, addend: 0x0, symName: __ZNKSt3__15stackIiNS_5dequeIiNS_9allocatorIiEEEEE3topB8ue170006Ev, symObjAddr: 0x1CDE0, symBinAddr: 0x100020504, symSize: 0x24 }
  - { offsetInCU: 0x52BAB, offset: 0x52BAB, size: 0x8, addend: 0x0, symName: __ZNKSt3__15dequeIiNS_9allocatorIiEEE4backEv, symObjAddr: 0x1CE04, symBinAddr: 0x100020528, symSize: 0x68 }
  - { offsetInCU: 0x52BE2, offset: 0x52BE2, size: 0x8, addend: 0x0, symName: __ZNSt3__15dequeIiNS_9allocatorIiEEE8pop_backEv, symObjAddr: 0x1CE6C, symBinAddr: 0x100020590, symSize: 0xE0 }
  - { offsetInCU: 0x52C46, offset: 0x52C46, size: 0x8, addend: 0x0, symName: __ZNKSt3__15dequeIiNS_9allocatorIiEEE22__annotate_shrink_backB8ue170006Emm, symObjAddr: 0x1CF4C, symBinAddr: 0x100020670, symSize: 0x60 }
  - { offsetInCU: 0x52C8A, offset: 0x52C8A, size: 0x8, addend: 0x0, symName: __ZNSt3__15dequeIiNS_9allocatorIiEEE25__maybe_remove_back_spareB8ue170006Eb, symObjAddr: 0x1CFAC, symBinAddr: 0x1000206D0, symSize: 0xE8 }
  - { offsetInCU: 0x52CBF, offset: 0x52CBF, size: 0x8, addend: 0x0, symName: __ZNKSt3__15dequeIiNS_9allocatorIiEEE19__back_spare_blocksB8ue170006Ev, symObjAddr: 0x1D094, symBinAddr: 0x1000207B8, symSize: 0x2C }
  - { offsetInCU: 0x52CE5, offset: 0x52CE5, size: 0x8, addend: 0x0, symName: __ZNSt3__114__split_bufferIPiNS_9allocatorIS1_EEE4backB8ue170006Ev, symObjAddr: 0x1D0C0, symBinAddr: 0x1000207E4, symSize: 0x1C }
  - { offsetInCU: 0x52D0B, offset: 0x52D0B, size: 0x8, addend: 0x0, symName: __ZNSt3__114__split_bufferIPiNS_9allocatorIS1_EEE8pop_backB8ue170006Ev, symObjAddr: 0x1D0DC, symBinAddr: 0x100020800, symSize: 0x2C }
  - { offsetInCU: 0x52D31, offset: 0x52D31, size: 0x8, addend: 0x0, symName: __ZNSt3__15stackIiNS_5dequeIiNS_9allocatorIiEEEEEC2B8ue170006ERKS5_, symObjAddr: 0x1D108, symBinAddr: 0x10002082C, symSize: 0x34 }
  - { offsetInCU: 0x52D69, offset: 0x52D69, size: 0x8, addend: 0x0, symName: __ZNSt3__15dequeIiNS_9allocatorIiEEEC1ERKS3_, symObjAddr: 0x1D13C, symBinAddr: 0x100020860, symSize: 0x34 }
  - { offsetInCU: 0x52DA4, offset: 0x52DA4, size: 0x8, addend: 0x0, symName: __ZNSt3__15dequeIiNS_9allocatorIiEEEC2ERKS3_, symObjAddr: 0x1D170, symBinAddr: 0x100020894, symSize: 0xF8 }
  - { offsetInCU: 0x52DDF, offset: 0x52DDF, size: 0x8, addend: 0x0, symName: __ZNSt3__116allocator_traitsINS_9allocatorIiEEE37select_on_container_copy_constructionB8ue170006IS2_vvEES2_RKS2_, symObjAddr: 0x1D268, symBinAddr: 0x10002098C, symSize: 0x10 }
  - { offsetInCU: 0x52E0E, offset: 0x52E0E, size: 0x8, addend: 0x0, symName: __ZNKSt3__15dequeIiNS_9allocatorIiEEE7__allocB8ue170006Ev, symObjAddr: 0x1D278, symBinAddr: 0x10002099C, symSize: 0x28 }
  - { offsetInCU: 0x52E34, offset: 0x52E34, size: 0x8, addend: 0x0, symName: __ZNSt3__19allocatorIPiEC1B8ue170006IiEERKNS0_IT_EE, symObjAddr: 0x1D2A0, symBinAddr: 0x1000209C4, symSize: 0x34 }
  - { offsetInCU: 0x52E72, offset: 0x52E72, size: 0x8, addend: 0x0, symName: __ZNSt3__114__split_bufferIPiNS_9allocatorIS1_EEEC1B8ue170006ERKS3_, symObjAddr: 0x1D2D4, symBinAddr: 0x1000209F8, symSize: 0x34 }
  - { offsetInCU: 0x52EAA, offset: 0x52EAA, size: 0x8, addend: 0x0, symName: __ZNSt3__117__compressed_pairImNS_9allocatorIiEEEC1B8ue170006IiRNS1_IPiEEEEOT_OT0_, symObjAddr: 0x1D308, symBinAddr: 0x100020A2C, symSize: 0x3C }
  - { offsetInCU: 0x52F02, offset: 0x52F02, size: 0x8, addend: 0x0, symName: __ZNSt3__15dequeIiNS_9allocatorIiEEE8__appendINS_16__deque_iteratorIiPKiRS6_PKS7_lLl1024EEEEEvT_SC_PNS_9enable_ifIXsr31__has_forward_iterator_categoryISC_EE5valueEvE4typeE, symObjAddr: 0x1D344, symBinAddr: 0x100020A68, symSize: 0x78 }
  - { offsetInCU: 0x52F5D, offset: 0x52F5D, size: 0x8, addend: 0x0, symName: __ZNKSt3__15dequeIiNS_9allocatorIiEEE5beginB8ue170006Ev, symObjAddr: 0x1D3BC, symBinAddr: 0x100020AE0, symSize: 0xA8 }
  - { offsetInCU: 0x52F92, offset: 0x52F92, size: 0x8, addend: 0x0, symName: __ZNKSt3__15dequeIiNS_9allocatorIiEEE3endB8ue170006Ev, symObjAddr: 0x1D464, symBinAddr: 0x100020B88, symSize: 0xBC }
  - { offsetInCU: 0x52FD6, offset: 0x52FD6, size: 0x8, addend: 0x0, symName: __ZNKSt3__117__compressed_pairImNS_9allocatorIiEEE6secondB8ue170006Ev, symObjAddr: 0x1D520, symBinAddr: 0x100020C44, symSize: 0x24 }
  - { offsetInCU: 0x52FFC, offset: 0x52FFC, size: 0x8, addend: 0x0, symName: __ZNSt3__19allocatorIPiEC2B8ue170006IiEERKNS0_IT_EE, symObjAddr: 0x1D544, symBinAddr: 0x100020C68, symSize: 0x30 }
  - { offsetInCU: 0x5303A, offset: 0x5303A, size: 0x8, addend: 0x0, symName: __ZNSt3__116__non_trivial_ifILb1ENS_9allocatorIPiEEEC2B8ue170006Ev, symObjAddr: 0x1D574, symBinAddr: 0x100020C98, symSize: 0x14 }
  - { offsetInCU: 0x53064, offset: 0x53064, size: 0x8, addend: 0x0, symName: __ZNSt3__114__split_bufferIPiNS_9allocatorIS1_EEEC2B8ue170006ERKS3_, symObjAddr: 0x1D588, symBinAddr: 0x100020CAC, symSize: 0x4C }
  - { offsetInCU: 0x5309C, offset: 0x5309C, size: 0x8, addend: 0x0, symName: __ZNSt3__117__compressed_pairIPPiNS_9allocatorIS1_EEEC1B8ue170006IDnRKS4_EEOT_OT0_, symObjAddr: 0x1D5D4, symBinAddr: 0x100020CF8, symSize: 0x3C }
  - { offsetInCU: 0x530F4, offset: 0x530F4, size: 0x8, addend: 0x0, symName: __ZNSt3__117__compressed_pairIPPiNS_9allocatorIS1_EEEC2B8ue170006IDnRKS4_EEOT_OT0_, symObjAddr: 0x1D610, symBinAddr: 0x100020D34, symSize: 0x44 }
  - { offsetInCU: 0x5314C, offset: 0x5314C, size: 0x8, addend: 0x0, symName: __ZNSt3__122__compressed_pair_elemINS_9allocatorIPiEELi1ELb1EEC2B8ue170006IRKS3_vEEOT_, symObjAddr: 0x1D654, symBinAddr: 0x100020D78, symSize: 0x18 }
  - { offsetInCU: 0x5318E, offset: 0x5318E, size: 0x8, addend: 0x0, symName: __ZNSt3__117__compressed_pairImNS_9allocatorIiEEEC2B8ue170006IiRNS1_IPiEEEEOT_OT0_, symObjAddr: 0x1D66C, symBinAddr: 0x100020D90, symSize: 0x44 }
  - { offsetInCU: 0x531E6, offset: 0x531E6, size: 0x8, addend: 0x0, symName: __ZNSt3__122__compressed_pair_elemINS_9allocatorIiEELi1ELb1EEC2B8ue170006IRNS1_IPiEEvEEOT_, symObjAddr: 0x1D6B0, symBinAddr: 0x100020DD4, symSize: 0x34 }
  - { offsetInCU: 0x53228, offset: 0x53228, size: 0x8, addend: 0x0, symName: __ZNSt3__19allocatorIiEC2B8ue170006IPiEERKNS0_IT_EE, symObjAddr: 0x1D6E4, symBinAddr: 0x100020E08, symSize: 0x30 }
  - { offsetInCU: 0x53266, offset: 0x53266, size: 0x8, addend: 0x0, symName: __ZNSt3__15dequeIiNS_9allocatorIiEEE18__append_with_sizeB8ue170006INS_16__deque_iteratorIiPKiRS6_PKS7_lLl1024EEEEEvT_m, symObjAddr: 0x1D714, symBinAddr: 0x100020E38, symSize: 0x21C }
  - { offsetInCU: 0x53337, offset: 0x53337, size: 0x8, addend: 0x0, symName: __ZNSt3__15dequeIiNS_9allocatorIiEEE19__add_back_capacityEm, symObjAddr: 0x1D97C, symBinAddr: 0x1000210A0, symSize: 0x63C }
  - { offsetInCU: 0x53438, offset: 0x53438, size: 0x8, addend: 0x0, symName: __ZNKSt3__116__deque_iteratorIiPiRiPS1_lLl1024EEplB8ue170006El, symObjAddr: 0x1DFB8, symBinAddr: 0x1000216DC, symSize: 0x40 }
  - { offsetInCU: 0x534A3, offset: 0x534A3, size: 0x8, addend: 0x0, symName: __ZNSt3__15dequeIiNS_9allocatorIiEEE13__deque_rangeC1B8ue170006ENS_16__deque_iteratorIiPiRiPS6_lLl1024EEES9_, symObjAddr: 0x1DFF8, symBinAddr: 0x10002171C, symSize: 0x4C }
  - { offsetInCU: 0x534EB, offset: 0x534EB, size: 0x8, addend: 0x0, symName: __ZNKSt3__15dequeIiNS_9allocatorIiEEE13__deque_range5beginB8ue170006Ev, symObjAddr: 0x1E044, symBinAddr: 0x100021768, symSize: 0x24 }
  - { offsetInCU: 0x53511, offset: 0x53511, size: 0x8, addend: 0x0, symName: __ZNKSt3__15dequeIiNS_9allocatorIiEEE13__deque_range3endB8ue170006Ev, symObjAddr: 0x1E068, symBinAddr: 0x10002178C, symSize: 0x50 }
  - { offsetInCU: 0x53537, offset: 0x53537, size: 0x8, addend: 0x0, symName: __ZNKSt3__15dequeIiNS_9allocatorIiEEE13__deque_rangedeB8ue170006Ev, symObjAddr: 0x1E0EC, symBinAddr: 0x100021810, symSize: 0x7C }
  - { offsetInCU: 0x5356E, offset: 0x5356E, size: 0x8, addend: 0x0, symName: __ZNSt3__15dequeIiNS_9allocatorIiEEE21_ConstructTransactionC1B8ue170006EPS3_RNS3_19__deque_block_rangeE, symObjAddr: 0x1E168, symBinAddr: 0x10002188C, symSize: 0x3C }
  - { offsetInCU: 0x535B6, offset: 0x535B6, size: 0x8, addend: 0x0, symName: __ZNKSt3__116__deque_iteratorIiPKiRS1_PKS2_lLl1024EEdeB8ue170006Ev, symObjAddr: 0x1E1A4, symBinAddr: 0x1000218C8, symSize: 0x18 }
  - { offsetInCU: 0x535DC, offset: 0x535DC, size: 0x8, addend: 0x0, symName: __ZNSt3__116__deque_iteratorIiPKiRS1_PKS2_lLl1024EEppB8ue170006Ev, symObjAddr: 0x1E1BC, symBinAddr: 0x1000218E0, symSize: 0x70 }
  - { offsetInCU: 0x53602, offset: 0x53602, size: 0x8, addend: 0x0, symName: __ZNSt3__15dequeIiNS_9allocatorIiEEE21_ConstructTransactionD1B8ue170006Ev, symObjAddr: 0x1E22C, symBinAddr: 0x100021950, symSize: 0x2C }
  - { offsetInCU: 0x5362C, offset: 0x5362C, size: 0x8, addend: 0x0, symName: __ZNSt3__15dequeIiNS_9allocatorIiEEE13__deque_rangeppB8ue170006Ev, symObjAddr: 0x1E258, symBinAddr: 0x10002197C, symSize: 0x64 }
  - { offsetInCU: 0x53652, offset: 0x53652, size: 0x8, addend: 0x0, symName: __ZNSt3__15dequeIiNS_9allocatorIiEEE18__recommend_blocksB8ue170006Em, symObjAddr: 0x1E2BC, symBinAddr: 0x1000219E0, symSize: 0x40 }
  - { offsetInCU: 0x53676, offset: 0x53676, size: 0x8, addend: 0x0, symName: __ZNSt3__114__split_bufferIPiRNS_9allocatorIS1_EEE4backB8ue170006Ev, symObjAddr: 0x1E2FC, symBinAddr: 0x100021A20, symSize: 0x1C }
  - { offsetInCU: 0x5369C, offset: 0x5369C, size: 0x8, addend: 0x0, symName: __ZNSt3__114__split_bufferIPiRNS_9allocatorIS1_EEE5beginB8ue170006Ev, symObjAddr: 0x1E318, symBinAddr: 0x100021A3C, symSize: 0x18 }
  - { offsetInCU: 0x536C2, offset: 0x536C2, size: 0x8, addend: 0x0, symName: __ZNSt3__114__split_bufferIPiRNS_9allocatorIS1_EEE3endB8ue170006Ev, symObjAddr: 0x1E330, symBinAddr: 0x100021A54, symSize: 0x18 }
  - { offsetInCU: 0x536E8, offset: 0x536E8, size: 0x8, addend: 0x0, symName: __ZNSt3__114__split_bufferIPiRNS_9allocatorIS1_EEE9push_backB8ue170006ERKS1_, symObjAddr: 0x1E348, symBinAddr: 0x100021A6C, symSize: 0x260 }
  - { offsetInCU: 0x53760, offset: 0x53760, size: 0x8, addend: 0x0, symName: __ZNSt3__116__deque_iteratorIiPiRiPS1_lLl1024EEpLB8ue170006El, symObjAddr: 0x1E5A8, symBinAddr: 0x100021CCC, symSize: 0x110 }
  - { offsetInCU: 0x537B2, offset: 0x537B2, size: 0x8, addend: 0x0, symName: __ZNSt3__15dequeIiNS_9allocatorIiEEE13__deque_rangeC2B8ue170006ENS_16__deque_iteratorIiPiRiPS6_lLl1024EEES9_, symObjAddr: 0x1E6B8, symBinAddr: 0x100021DDC, symSize: 0x34 }
  - { offsetInCU: 0x537FA, offset: 0x537FA, size: 0x8, addend: 0x0, symName: __ZNSt3__15dequeIiNS_9allocatorIiEEE19__deque_block_rangeC1B8ue170006EPiS5_, symObjAddr: 0x1E71C, symBinAddr: 0x100021E40, symSize: 0x3C }
  - { offsetInCU: 0x53842, offset: 0x53842, size: 0x8, addend: 0x0, symName: __ZNSt3__15dequeIiNS_9allocatorIiEEE19__deque_block_rangeC2B8ue170006EPiS5_, symObjAddr: 0x1E758, symBinAddr: 0x100021E7C, symSize: 0x2C }
  - { offsetInCU: 0x5388A, offset: 0x5388A, size: 0x8, addend: 0x0, symName: __ZNSt3__15dequeIiNS_9allocatorIiEEE21_ConstructTransactionC2B8ue170006EPS3_RNS3_19__deque_block_rangeE, symObjAddr: 0x1E784, symBinAddr: 0x100021EA8, symSize: 0x48 }
  - { offsetInCU: 0x538D2, offset: 0x538D2, size: 0x8, addend: 0x0, symName: __ZNSt3__15dequeIiNS_9allocatorIiEEE21_ConstructTransactionD2B8ue170006Ev, symObjAddr: 0x1E7CC, symBinAddr: 0x100021EF0, symSize: 0x5C }
  - { offsetInCU: 0x538FC, offset: 0x538FC, size: 0x8, addend: 0x0, symName: __ZNSt3__116__deque_iteratorIiPKiRS1_PKS2_lLl1024EEC1B8ue170006ES5_S2_, symObjAddr: 0x1E96C, symBinAddr: 0x100022090, symSize: 0x3C }
  - { offsetInCU: 0x53944, offset: 0x53944, size: 0x8, addend: 0x0, symName: __ZNSt3__116__deque_iteratorIiPKiRS1_PKS2_lLl1024EEC2B8ue170006ES5_S2_, symObjAddr: 0x1E9A8, symBinAddr: 0x1000220CC, symSize: 0x2C }
  - { offsetInCU: 0x5398C, offset: 0x5398C, size: 0x8, addend: 0x0, symName: __ZNSt3__15queueIiNS_5dequeIiNS_9allocatorIiEEEEEC2B8ue170006Ev, symObjAddr: 0x1E9D4, symBinAddr: 0x1000220F8, symSize: 0x2C }
  - { offsetInCU: 0x539B6, offset: 0x539B6, size: 0x8, addend: 0x0, symName: __ZNKSt3__15queueIiNS_5dequeIiNS_9allocatorIiEEEEE5emptyB8ue170006Ev, symObjAddr: 0x1EA00, symBinAddr: 0x100022124, symSize: 0x28 }
  - { offsetInCU: 0x539DB, offset: 0x539DB, size: 0x8, addend: 0x0, symName: __Z12adapter_peekIiNSt3__15dequeIiNS0_9allocatorIiEEEEEDTcldtfp_5frontEERKNS0_5queueIT_T0_EE, symObjAddr: 0x1EA28, symBinAddr: 0x10002214C, symSize: 0x24 }
  - { offsetInCU: 0x53A1A, offset: 0x53A1A, size: 0x8, addend: 0x0, symName: __ZNSt3__15queueIiNS_5dequeIiNS_9allocatorIiEEEEE3popB8ue170006Ev, symObjAddr: 0x1EA4C, symBinAddr: 0x100022170, symSize: 0x24 }
  - { offsetInCU: 0x53A40, offset: 0x53A40, size: 0x8, addend: 0x0, symName: __ZNKSt3__15queueIiNS_5dequeIiNS_9allocatorIiEEEEE5frontB8ue170006Ev, symObjAddr: 0x1EA70, symBinAddr: 0x100022194, symSize: 0x24 }
  - { offsetInCU: 0x53A66, offset: 0x53A66, size: 0x8, addend: 0x0, symName: __ZNKSt3__15dequeIiNS_9allocatorIiEEE5frontEv, symObjAddr: 0x1EA94, symBinAddr: 0x1000221B8, symSize: 0x50 }
  - { offsetInCU: 0x53A8E, offset: 0x53A8E, size: 0x8, addend: 0x0, symName: __ZNSt3__15dequeIiNS_9allocatorIiEEE9pop_frontEv, symObjAddr: 0x1EAE4, symBinAddr: 0x100022208, symSize: 0xD4 }
  - { offsetInCU: 0x53AE3, offset: 0x53AE3, size: 0x8, addend: 0x0, symName: __ZNKSt3__15dequeIiNS_9allocatorIiEEE23__annotate_shrink_frontB8ue170006Emm, symObjAddr: 0x1EBB8, symBinAddr: 0x1000222DC, symSize: 0x70 }
  - { offsetInCU: 0x53B27, offset: 0x53B27, size: 0x8, addend: 0x0, symName: __ZNSt3__15dequeIiNS_9allocatorIiEEE26__maybe_remove_front_spareB8ue170006Eb, symObjAddr: 0x1EC28, symBinAddr: 0x10002234C, symSize: 0xEC }
  - { offsetInCU: 0x53B5C, offset: 0x53B5C, size: 0x8, addend: 0x0, symName: __ZNKSt3__15dequeIiNS_9allocatorIiEEE20__front_spare_blocksB8ue170006Ev, symObjAddr: 0x1ED14, symBinAddr: 0x100022438, symSize: 0x2C }
  - { offsetInCU: 0x53B82, offset: 0x53B82, size: 0x8, addend: 0x0, symName: __ZNSt3__15queueIiNS_5dequeIiNS_9allocatorIiEEEEEC2B8ue170006ERKS5_, symObjAddr: 0x1ED40, symBinAddr: 0x100022464, symSize: 0x34 }
  - { offsetInCU: 0x53BBB, offset: 0x53BBB, size: 0x8, addend: 0x0, symName: __ZNSt3__114priority_queueIiNS_6vectorIiNS_9allocatorIiEEEENS_4lessIiEEEC2B8ue170006Ev, symObjAddr: 0x1ED74, symBinAddr: 0x100022498, symSize: 0x2C }
  - { offsetInCU: 0x53BE5, offset: 0x53BE5, size: 0x8, addend: 0x0, symName: __ZNSt3__16vectorIiNS_9allocatorIiEEE9push_backB8ue170006ERKi, symObjAddr: 0x1EDA0, symBinAddr: 0x1000224C4, symSize: 0x6C }
  - { offsetInCU: 0x53C1C, offset: 0x53C1C, size: 0x8, addend: 0x0, symName: __ZNSt3__16vectorIiNS_9allocatorIiEEE22__construct_one_at_endB8ue170006IJRKiEEEvDpOT_, symObjAddr: 0x1EE4C, symBinAddr: 0x100022570, symSize: 0x90 }
  - { offsetInCU: 0x53C6B, offset: 0x53C6B, size: 0x8, addend: 0x0, symName: __ZNSt3__16vectorIiNS_9allocatorIiEEE21__push_back_slow_pathIRKiEEvOT_, symObjAddr: 0x1EEDC, symBinAddr: 0x100022600, symSize: 0xD8 }
  - { offsetInCU: 0x53CC9, offset: 0x53CC9, size: 0x8, addend: 0x0, symName: __ZNKSt3__16vectorIiNS_9allocatorIiEEE11__recommendB8ue170006Em, symObjAddr: 0x1EFB4, symBinAddr: 0x1000226D8, symSize: 0xB4 }
  - { offsetInCU: 0x53D1E, offset: 0x53D1E, size: 0x8, addend: 0x0, symName: __ZNSt3__114__split_bufferIiRNS_9allocatorIiEEEC1EmmS3_, symObjAddr: 0x1F068, symBinAddr: 0x10002278C, symSize: 0x44 }
  - { offsetInCU: 0x53D74, offset: 0x53D74, size: 0x8, addend: 0x0, symName: __ZNSt3__114__split_bufferIiRNS_9allocatorIiEEED1Ev, symObjAddr: 0x1F1BC, symBinAddr: 0x1000228E0, symSize: 0x2C }
  - { offsetInCU: 0x53DA0, offset: 0x53DA0, size: 0x8, addend: 0x0, symName: __ZNSt3__114__split_bufferIiRNS_9allocatorIiEEEC2EmmS3_, symObjAddr: 0x1F1E8, symBinAddr: 0x10002290C, symSize: 0xD4 }
  - { offsetInCU: 0x53E13, offset: 0x53E13, size: 0x8, addend: 0x0, symName: __ZNSt3__117__compressed_pairIPiRNS_9allocatorIiEEEC1B8ue170006IDnS4_EEOT_OT0_, symObjAddr: 0x1F2BC, symBinAddr: 0x1000229E0, symSize: 0x3C }
  - { offsetInCU: 0x53E6B, offset: 0x53E6B, size: 0x8, addend: 0x0, symName: __ZNSt3__114__split_bufferIiRNS_9allocatorIiEEE7__allocB8ue170006Ev, symObjAddr: 0x1F2F8, symBinAddr: 0x100022A1C, symSize: 0x28 }
  - { offsetInCU: 0x53E91, offset: 0x53E91, size: 0x8, addend: 0x0, symName: __ZNSt3__114__split_bufferIiRNS_9allocatorIiEEE9__end_capB8ue170006Ev, symObjAddr: 0x1F320, symBinAddr: 0x100022A44, symSize: 0x28 }
  - { offsetInCU: 0x53EB7, offset: 0x53EB7, size: 0x8, addend: 0x0, symName: __ZNSt3__117__compressed_pairIPiRNS_9allocatorIiEEEC2B8ue170006IDnS4_EEOT_OT0_, symObjAddr: 0x1F348, symBinAddr: 0x100022A6C, symSize: 0x48 }
  - { offsetInCU: 0x53F0F, offset: 0x53F0F, size: 0x8, addend: 0x0, symName: __ZNSt3__122__compressed_pair_elemIRNS_9allocatorIiEELi1ELb0EEC2B8ue170006IS3_vEEOT_, symObjAddr: 0x1F390, symBinAddr: 0x100022AB4, symSize: 0x20 }
  - { offsetInCU: 0x53F51, offset: 0x53F51, size: 0x8, addend: 0x0, symName: __ZNSt3__117__compressed_pairIPiRNS_9allocatorIiEEE6secondB8ue170006Ev, symObjAddr: 0x1F3B0, symBinAddr: 0x100022AD4, symSize: 0x28 }
  - { offsetInCU: 0x53F77, offset: 0x53F77, size: 0x8, addend: 0x0, symName: __ZNSt3__122__compressed_pair_elemIRNS_9allocatorIiEELi1ELb0EE5__getB8ue170006Ev, symObjAddr: 0x1F3D8, symBinAddr: 0x100022AFC, symSize: 0x18 }
  - { offsetInCU: 0x53F9D, offset: 0x53F9D, size: 0x8, addend: 0x0, symName: __ZNSt3__117__compressed_pairIPiRNS_9allocatorIiEEE5firstB8ue170006Ev, symObjAddr: 0x1F3F0, symBinAddr: 0x100022B14, symSize: 0x24 }
  - { offsetInCU: 0x53FC3, offset: 0x53FC3, size: 0x8, addend: 0x0, symName: __ZNSt3__116reverse_iteratorIPiEC1B8ue170006ES1_, symObjAddr: 0x1F48C, symBinAddr: 0x100022BB0, symSize: 0x34 }
  - { offsetInCU: 0x53FFB, offset: 0x53FFB, size: 0x8, addend: 0x0, symName: __ZNKSt3__116reverse_iteratorIPiE4baseB8ue170006Ev, symObjAddr: 0x1F4C0, symBinAddr: 0x100022BE4, symSize: 0x18 }
  - { offsetInCU: 0x5403E, offset: 0x5403E, size: 0x8, addend: 0x0, symName: __ZNKSt3__111__move_loopINS_17_ClassicAlgPolicyEEclB8ue170006INS_16reverse_iteratorIPiEES6_S6_EENS_4pairIT_T1_EES8_T0_S9_, symObjAddr: 0x1F804, symBinAddr: 0x100022F28, symSize: 0xA0 }
  - { offsetInCU: 0x540A9, offset: 0x540A9, size: 0x8, addend: 0x0, symName: __ZNSt3__18_IterOpsINS_17_ClassicAlgPolicyEE11__iter_moveB8ue170006IRNS_16reverse_iteratorIPiEEEENS_9enable_ifIXsr12is_referenceIDTdeclsr3stdE7declvalIRT_EEEEE5valueEDTclsr3stdE4movedeclsr3stdE7declvalISA_EEEEE4typeEOS9_, symObjAddr: 0x1FA38, symBinAddr: 0x10002315C, symSize: 0x28 }
  - { offsetInCU: 0x540D5, offset: 0x540D5, size: 0x8, addend: 0x0, symName: __ZNKSt3__116reverse_iteratorIPiEdeB8ue170006Ev, symObjAddr: 0x1FA60, symBinAddr: 0x100023184, symSize: 0x28 }
  - { offsetInCU: 0x54109, offset: 0x54109, size: 0x8, addend: 0x0, symName: __ZNSt3__116reverse_iteratorIPiEppB8ue170006Ev, symObjAddr: 0x1FA88, symBinAddr: 0x1000231AC, symSize: 0x20 }
  - { offsetInCU: 0x5412F, offset: 0x5412F, size: 0x8, addend: 0x0, symName: __ZNSt3__18_IterOpsINS_17_ClassicAlgPolicyEE25__validate_iter_referenceB8ue170006IRNS_16reverse_iteratorIPiEEEEvv, symObjAddr: 0x1FAA8, symBinAddr: 0x1000231CC, symSize: 0x4 }
  - { offsetInCU: 0x5414D, offset: 0x5414D, size: 0x8, addend: 0x0, symName: __ZNSt3__118__unwrap_iter_implINS_16reverse_iteratorIPiEELb0EE8__unwrapB8ue170006ES3_, symObjAddr: 0x1FAAC, symBinAddr: 0x1000231D0, symSize: 0x24 }
  - { offsetInCU: 0x54176, offset: 0x54176, size: 0x8, addend: 0x0, symName: __ZNSt3__14pairINS_16reverse_iteratorIPiEES3_EC1B8ue170006IS3_S3_LPv0EEEOT_OT0_, symObjAddr: 0x1FAD0, symBinAddr: 0x1000231F4, symSize: 0x3C }
  - { offsetInCU: 0x541D4, offset: 0x541D4, size: 0x8, addend: 0x0, symName: __ZNSt3__14pairINS_16reverse_iteratorIPiEES3_EC2B8ue170006IS3_S3_LPv0EEEOT_OT0_, symObjAddr: 0x1FB0C, symBinAddr: 0x100023230, symSize: 0x34 }
  - { offsetInCU: 0x54232, offset: 0x54232, size: 0x8, addend: 0x0, symName: __ZNSt3__118__unwrap_iter_implINS_16reverse_iteratorIPiEELb0EE8__rewrapB8ue170006ES3_S3_, symObjAddr: 0x1FB40, symBinAddr: 0x100023264, symSize: 0x2C }
  - { offsetInCU: 0x54260, offset: 0x54260, size: 0x8, addend: 0x0, symName: __ZNSt3__116reverse_iteratorIPiEC2B8ue170006ES1_, symObjAddr: 0x1FB6C, symBinAddr: 0x100023290, symSize: 0x28 }
  - { offsetInCU: 0x54298, offset: 0x54298, size: 0x8, addend: 0x0, symName: __ZNSt3__114__split_bufferIiRNS_9allocatorIiEEED2Ev, symObjAddr: 0x1FB94, symBinAddr: 0x1000232B8, symSize: 0x8C }
  - { offsetInCU: 0x542C4, offset: 0x542C4, size: 0x8, addend: 0x0, symName: __ZNSt3__114__split_bufferIiRNS_9allocatorIiEEE5clearB8ue170006Ev, symObjAddr: 0x1FC20, symBinAddr: 0x100023344, symSize: 0x28 }
  - { offsetInCU: 0x542EA, offset: 0x542EA, size: 0x8, addend: 0x0, symName: __ZNKSt3__114__split_bufferIiRNS_9allocatorIiEEE8capacityB8ue170006Ev, symObjAddr: 0x1FC48, symBinAddr: 0x10002336C, symSize: 0x40 }
  - { offsetInCU: 0x54310, offset: 0x54310, size: 0x8, addend: 0x0, symName: __ZNSt3__114__split_bufferIiRNS_9allocatorIiEEE17__destruct_at_endB8ue170006EPi, symObjAddr: 0x1FC88, symBinAddr: 0x1000233AC, symSize: 0x2C }
  - { offsetInCU: 0x54344, offset: 0x54344, size: 0x8, addend: 0x0, symName: __ZNSt3__114__split_bufferIiRNS_9allocatorIiEEE17__destruct_at_endB8ue170006EPiNS_17integral_constantIbLb0EEE, symObjAddr: 0x1FCB4, symBinAddr: 0x1000233D8, symSize: 0x80 }
  - { offsetInCU: 0x54385, offset: 0x54385, size: 0x8, addend: 0x0, symName: __ZNKSt3__114__split_bufferIiRNS_9allocatorIiEEE9__end_capB8ue170006Ev, symObjAddr: 0x1FD34, symBinAddr: 0x100023458, symSize: 0x28 }
  - { offsetInCU: 0x543AB, offset: 0x543AB, size: 0x8, addend: 0x0, symName: __ZNKSt3__117__compressed_pairIPiRNS_9allocatorIiEEE5firstB8ue170006Ev, symObjAddr: 0x1FD5C, symBinAddr: 0x100023480, symSize: 0x24 }
  - { offsetInCU: 0x543D1, offset: 0x543D1, size: 0x8, addend: 0x0, symName: __ZNKSt3__111__wrap_iterIPiEplB8ue170006El, symObjAddr: 0x1FF8C, symBinAddr: 0x1000236B0, symSize: 0x3C }
  - { offsetInCU: 0x54413, offset: 0x54413, size: 0x8, addend: 0x0, symName: __ZNKSt3__14lessIiEclB8ue170006ERKiS3_, symObjAddr: 0x1FFC8, symBinAddr: 0x1000236EC, symSize: 0x34 }
  - { offsetInCU: 0x54457, offset: 0x54457, size: 0x8, addend: 0x0, symName: __ZNSt3__111__wrap_iterIPiEmmB8ue170006Ev, symObjAddr: 0x1FFFC, symBinAddr: 0x100023720, symSize: 0x20 }
  - { offsetInCU: 0x5447D, offset: 0x5447D, size: 0x8, addend: 0x0, symName: __ZNSt3__18_IterOpsINS_17_ClassicAlgPolicyEE11__iter_moveB8ue170006IRNS_11__wrap_iterIPiEEEENS_9enable_ifIXsr12is_referenceIDTdeclsr3stdE7declvalIRT_EEEEE5valueEDTclsr3stdE4movedeclsr3stdE7declvalISA_EEEEE4typeEOS9_, symObjAddr: 0x2001C, symBinAddr: 0x100023740, symSize: 0x28 }
  - { offsetInCU: 0x544A9, offset: 0x544A9, size: 0x8, addend: 0x0, symName: __ZNSt3__111__wrap_iterIPiEpLB8ue170006El, symObjAddr: 0x20044, symBinAddr: 0x100023768, symSize: 0x28 }
  - { offsetInCU: 0x544DD, offset: 0x544DD, size: 0x8, addend: 0x0, symName: __ZNSt3__18_IterOpsINS_17_ClassicAlgPolicyEE25__validate_iter_referenceB8ue170006IRNS_11__wrap_iterIPiEEEEvv, symObjAddr: 0x2006C, symBinAddr: 0x100023790, symSize: 0x4 }
  - { offsetInCU: 0x544FB, offset: 0x544FB, size: 0x8, addend: 0x0, symName: __ZNKSt3__114priority_queueIiNS_6vectorIiNS_9allocatorIiEEEENS_4lessIiEEE5emptyB8ue170006Ev, symObjAddr: 0x20070, symBinAddr: 0x100023794, symSize: 0x28 }
  - { offsetInCU: 0x54520, offset: 0x54520, size: 0x8, addend: 0x0, symName: __Z12adapter_peekIiNSt3__16vectorIiNS0_9allocatorIiEEEENS0_4lessIiEEEDTcldtfp_3topEERKNS0_14priority_queueIT_T0_T1_EE, symObjAddr: 0x20098, symBinAddr: 0x1000237BC, symSize: 0x24 }
  - { offsetInCU: 0x54568, offset: 0x54568, size: 0x8, addend: 0x0, symName: __ZNSt3__114priority_queueIiNS_6vectorIiNS_9allocatorIiEEEENS_4lessIiEEE3popEv, symObjAddr: 0x200BC, symBinAddr: 0x1000237E0, symSize: 0x50 }
  - { offsetInCU: 0x54590, offset: 0x54590, size: 0x8, addend: 0x0, symName: __ZNKSt3__16vectorIiNS_9allocatorIiEEE5emptyB8ue170006Ev, symObjAddr: 0x2010C, symBinAddr: 0x100023830, symSize: 0x28 }
  - { offsetInCU: 0x545B6, offset: 0x545B6, size: 0x8, addend: 0x0, symName: __ZNKSt3__114priority_queueIiNS_6vectorIiNS_9allocatorIiEEEENS_4lessIiEEE3topB8ue170006Ev, symObjAddr: 0x20134, symBinAddr: 0x100023858, symSize: 0x24 }
  - { offsetInCU: 0x545DC, offset: 0x545DC, size: 0x8, addend: 0x0, symName: __ZNKSt3__16vectorIiNS_9allocatorIiEEE5frontB8ue170006Ev, symObjAddr: 0x20158, symBinAddr: 0x10002387C, symSize: 0x18 }
  - { offsetInCU: 0x54602, offset: 0x54602, size: 0x8, addend: 0x0, symName: __ZNSt3__16vectorIiNS_9allocatorIiEEE8pop_backEv, symObjAddr: 0x201C8, symBinAddr: 0x1000238EC, symSize: 0x2C }
  - { offsetInCU: 0x5462A, offset: 0x5462A, size: 0x8, addend: 0x0, symName: __ZNSt3__16vectorIiNS_9allocatorIiEEE17__destruct_at_endB8ue170006EPi, symObjAddr: 0x20484, symBinAddr: 0x100023BA8, symSize: 0x4C }
  - { offsetInCU: 0x5466E, offset: 0x5466E, size: 0x8, addend: 0x0, symName: __ZNKSt3__16vectorIiNS_9allocatorIiEEE17__annotate_shrinkB8ue170006Em, symObjAddr: 0x204D0, symBinAddr: 0x100023BF4, symSize: 0xB4 }
  - { offsetInCU: 0x546A3, offset: 0x546A3, size: 0x8, addend: 0x0, symName: __ZNSt3__114priority_queueIiNS_6vectorIiNS_9allocatorIiEEEENS_4lessIiEEEC2B8ue170006ERKS7_, symObjAddr: 0x20584, symBinAddr: 0x100023CA8, symSize: 0x34 }
  - { offsetInCU: 0x546DC, offset: 0x546DC, size: 0x8, addend: 0x0, symName: __ZNSt3__16vectorIiNS_9allocatorIiEEEC1ERKS3_, symObjAddr: 0x205B8, symBinAddr: 0x100023CDC, symSize: 0x34 }
  - { offsetInCU: 0x54717, offset: 0x54717, size: 0x8, addend: 0x0, symName: __ZNSt3__16vectorIiNS_9allocatorIiEEEC2ERKS3_, symObjAddr: 0x205EC, symBinAddr: 0x100023D10, symSize: 0x94 }
  - { offsetInCU: 0x54758, offset: 0x54758, size: 0x8, addend: 0x0, symName: __ZNSt3__117__compressed_pairIPiNS_9allocatorIiEEEC1B8ue170006IDnS3_EEOT_OT0_, symObjAddr: 0x20680, symBinAddr: 0x100023DA4, symSize: 0x3C }
  - { offsetInCU: 0x547B0, offset: 0x547B0, size: 0x8, addend: 0x0, symName: __ZNSt3__16vectorIiNS_9allocatorIiEEE16__init_with_sizeB8ue170006IPiS5_EEvT_T0_m, symObjAddr: 0x206BC, symBinAddr: 0x100023DE0, symSize: 0xB8 }
  - { offsetInCU: 0x54824, offset: 0x54824, size: 0x8, addend: 0x0, symName: __ZNSt3__117__compressed_pairIPiNS_9allocatorIiEEEC2B8ue170006IDnS3_EEOT_OT0_, symObjAddr: 0x20774, symBinAddr: 0x100023E98, symSize: 0x44 }
  - { offsetInCU: 0x5487C, offset: 0x5487C, size: 0x8, addend: 0x0, symName: __ZNSt3__122__compressed_pair_elemINS_9allocatorIiEELi1ELb1EEC2B8ue170006IS2_vEEOT_, symObjAddr: 0x207B8, symBinAddr: 0x100023EDC, symSize: 0x18 }
  - { offsetInCU: 0x548BE, offset: 0x548BE, size: 0x8, addend: 0x0, symName: __ZNSt3__16vectorIiNS_9allocatorIiEEE18__construct_at_endIPiS5_EEvT_T0_m, symObjAddr: 0x207D0, symBinAddr: 0x100023EF4, symSize: 0x8C }
  - { offsetInCU: 0x54951, offset: 0x54951, size: 0x8, addend: 0x0, symName: __ZNSt3__14pairIPiS1_EC1B8ue170006IS1_S1_LPv0EEEOT_OT0_, symObjAddr: 0x209AC, symBinAddr: 0x1000240D0, symSize: 0x3C }
  - { offsetInCU: 0x549AF, offset: 0x549AF, size: 0x8, addend: 0x0, symName: __ZNSt3__14pairIPiS1_EC2B8ue170006IS1_S1_LPv0EEEOT_OT0_, symObjAddr: 0x209E8, symBinAddr: 0x10002410C, symSize: 0x34 }
  - { offsetInCU: 0x54A0D, offset: 0x54A0D, size: 0x8, addend: 0x0, symName: __ZNKSt3__114__copy_trivialclB8ue170006IiiLi0EEENS_4pairIPT_PT0_EES4_S4_S6_, symObjAddr: 0x20B98, symBinAddr: 0x1000242BC, symSize: 0x48 }
  - { offsetInCU: 0x54A75, offset: 0x54A75, size: 0x8, addend: 0x0, symName: __ZNSt3__14pairIPiS1_EC1B8ue170006IRS1_S1_LPv0EEEOT_OT0_, symObjAddr: 0x20D28, symBinAddr: 0x10002444C, symSize: 0x3C }
  - { offsetInCU: 0x54AD3, offset: 0x54AD3, size: 0x8, addend: 0x0, symName: __ZNSt3__14pairIPiS1_EC2B8ue170006IRS1_S1_LPv0EEEOT_OT0_, symObjAddr: 0x20D64, symBinAddr: 0x100024488, symSize: 0x34 }
  - { offsetInCU: 0x54B31, offset: 0x54B31, size: 0x8, addend: 0x0, symName: __ZNSt3__15dequeIiNS_9allocatorIiEEE9push_backEOi, symObjAddr: 0x20D98, symBinAddr: 0x1000244BC, symSize: 0xAC }
  - { offsetInCU: 0x54B77, offset: 0x54B77, size: 0x8, addend: 0x0, symName: __ZNSt3__116allocator_traitsINS_9allocatorIiEEE9constructB8ue170006IiJiEvEEvRS2_PT_DpOT0_, symObjAddr: 0x20E44, symBinAddr: 0x100024568, symSize: 0x34 }
  - { offsetInCU: 0x54BCE, offset: 0x54BCE, size: 0x8, addend: 0x0, symName: __ZNSt3__19allocatorIiE9constructB8ue170006IiJiEEEvPT_DpOT0_, symObjAddr: 0x20E78, symBinAddr: 0x10002459C, symSize: 0x28 }
  - { offsetInCU: 0x54C2F, offset: 0x54C2F, size: 0x8, addend: 0x0, symName: __ZNKSt3__110__equal_toclB8ue170006IiiEEbRKT_RKT0_, symObjAddr: 0x21170, symBinAddr: 0x100024894, symSize: 0x34 }
  - { offsetInCU: 0x54C83, offset: 0x54C83, size: 0x8, addend: 0x0, symName: __ZNSt3__118__unwrap_iter_implINS_16__deque_iteratorIiPKiRS2_PKS3_lLl1024EEELb0EE8__unwrapB8ue170006ES7_, symObjAddr: 0x211A4, symBinAddr: 0x1000248C8, symSize: 0x24 }
  - { offsetInCU: 0x54CA6, offset: 0x54CA6, size: 0x8, addend: 0x0, symName: __ZNKSt3__16__lessIvvEclB8ue170006IiiEEbRKT_RKT0_, symObjAddr: 0x214BC, symBinAddr: 0x100024BE0, symSize: 0x34 }
  - { offsetInCU: 0x54CFA, offset: 0x54CFA, size: 0x8, addend: 0x0, symName: __ZNSt3__15dequeIP5PointNS_9allocatorIS2_EEEC2B8ue170006Ev, symObjAddr: 0x214F0, symBinAddr: 0x100024C14, symSize: 0x5C }
  - { offsetInCU: 0x54D24, offset: 0x54D24, size: 0x8, addend: 0x0, symName: __ZNSt3__114__split_bufferIPP5PointNS_9allocatorIS3_EEEC1B8ue170006Ev, symObjAddr: 0x2154C, symBinAddr: 0x100024C70, symSize: 0x2C }
  - { offsetInCU: 0x54D4E, offset: 0x54D4E, size: 0x8, addend: 0x0, symName: __ZNSt3__117__compressed_pairImNS_9allocatorIP5PointEEEC1B8ue170006IiNS_18__default_init_tagEEEOT_OT0_, symObjAddr: 0x21578, symBinAddr: 0x100024C9C, symSize: 0x3C }
  - { offsetInCU: 0x54DA6, offset: 0x54DA6, size: 0x8, addend: 0x0, symName: __ZNKSt3__15dequeIP5PointNS_9allocatorIS2_EEE14__annotate_newB8ue170006Em, symObjAddr: 0x215B4, symBinAddr: 0x100024CD8, symSize: 0xC8 }
  - { offsetInCU: 0x54DDB, offset: 0x54DDB, size: 0x8, addend: 0x0, symName: __ZNSt3__114__split_bufferIPP5PointNS_9allocatorIS3_EEEC2B8ue170006Ev, symObjAddr: 0x2167C, symBinAddr: 0x100024DA0, symSize: 0x50 }
  - { offsetInCU: 0x54E05, offset: 0x54E05, size: 0x8, addend: 0x0, symName: __ZNSt3__117__compressed_pairIPPP5PointNS_9allocatorIS3_EEEC1B8ue170006IDnNS_18__default_init_tagEEEOT_OT0_, symObjAddr: 0x216CC, symBinAddr: 0x100024DF0, symSize: 0x3C }
  - { offsetInCU: 0x54E5D, offset: 0x54E5D, size: 0x8, addend: 0x0, symName: __ZNSt3__117__compressed_pairIPPP5PointNS_9allocatorIS3_EEEC2B8ue170006IDnNS_18__default_init_tagEEEOT_OT0_, symObjAddr: 0x21708, symBinAddr: 0x100024E2C, symSize: 0x40 }
  - { offsetInCU: 0x54EB5, offset: 0x54EB5, size: 0x8, addend: 0x0, symName: __ZNSt3__122__compressed_pair_elemIPPP5PointLi0ELb0EEC2B8ue170006IDnvEEOT_, symObjAddr: 0x21748, symBinAddr: 0x100024E6C, symSize: 0x1C }
  - { offsetInCU: 0x54EF7, offset: 0x54EF7, size: 0x8, addend: 0x0, symName: __ZNSt3__122__compressed_pair_elemINS_9allocatorIPP5PointEELi1ELb1EEC2B8ue170006ENS_18__default_init_tagE, symObjAddr: 0x21764, symBinAddr: 0x100024E88, symSize: 0x2C }
  - { offsetInCU: 0x54F2C, offset: 0x54F2C, size: 0x8, addend: 0x0, symName: __ZNSt3__19allocatorIPP5PointEC2B8ue170006Ev, symObjAddr: 0x21790, symBinAddr: 0x100024EB4, symSize: 0x2C }
  - { offsetInCU: 0x54F56, offset: 0x54F56, size: 0x8, addend: 0x0, symName: __ZNSt3__116__non_trivial_ifILb1ENS_9allocatorIPP5PointEEEC2B8ue170006Ev, symObjAddr: 0x217BC, symBinAddr: 0x100024EE0, symSize: 0x14 }
  - { offsetInCU: 0x54F80, offset: 0x54F80, size: 0x8, addend: 0x0, symName: __ZNSt3__117__compressed_pairImNS_9allocatorIP5PointEEEC2B8ue170006IiNS_18__default_init_tagEEEOT_OT0_, symObjAddr: 0x217D0, symBinAddr: 0x100024EF4, symSize: 0x40 }
  - { offsetInCU: 0x54FD8, offset: 0x54FD8, size: 0x8, addend: 0x0, symName: __ZNKSt3__15dequeIP5PointNS_9allocatorIS2_EEE18__annotate_from_toB8ue170006EmmNS5_22__asan_annotation_typeENS5_23__asan_annotation_placeE, symObjAddr: 0x21810, symBinAddr: 0x100024F34, symSize: 0x580 }
  - { offsetInCU: 0x55194, offset: 0x55194, size: 0x8, addend: 0x0, symName: __ZNKSt3__114__split_bufferIPP5PointNS_9allocatorIS3_EEE4sizeB8ue170006Ev, symObjAddr: 0x21D90, symBinAddr: 0x1000254B4, symSize: 0x28 }
  - { offsetInCU: 0x551BA, offset: 0x551BA, size: 0x8, addend: 0x0, symName: __ZNKSt3__114__split_bufferIPP5PointNS_9allocatorIS3_EEE5beginB8ue170006Ev, symObjAddr: 0x21DB8, symBinAddr: 0x1000254DC, symSize: 0x18 }
  - { offsetInCU: 0x551E0, offset: 0x551E0, size: 0x8, addend: 0x0, symName: __ZNKSt3__15dequeIP5PointNS_9allocatorIS2_EEE4sizeB8ue170006Ev, symObjAddr: 0x21DD0, symBinAddr: 0x1000254F4, symSize: 0x28 }
  - { offsetInCU: 0x55206, offset: 0x55206, size: 0x8, addend: 0x0, symName: __ZNKSt3__15dequeIP5PointNS_9allocatorIS2_EEE5emptyB8ue170006Ev, symObjAddr: 0x21DF8, symBinAddr: 0x10002551C, symSize: 0x30 }
  - { offsetInCU: 0x5522C, offset: 0x5522C, size: 0x8, addend: 0x0, symName: __ZNKSt3__15dequeIP5PointNS_9allocatorIS2_EEE44__annotate_double_ended_contiguous_containerB8ue170006EPKvS7_S7_S7_S7_S7_, symObjAddr: 0x21E28, symBinAddr: 0x10002554C, symSize: 0x28 }
  - { offsetInCU: 0x5529A, offset: 0x5529A, size: 0x8, addend: 0x0, symName: __ZNKSt3__15dequeIP5PointNS_9allocatorIS2_EEE6__sizeB8ue170006Ev, symObjAddr: 0x21E50, symBinAddr: 0x100025574, symSize: 0x28 }
  - { offsetInCU: 0x552C0, offset: 0x552C0, size: 0x8, addend: 0x0, symName: __ZNKSt3__117__compressed_pairImNS_9allocatorIP5PointEEE5firstB8ue170006Ev, symObjAddr: 0x21E78, symBinAddr: 0x10002559C, symSize: 0x24 }
  - { offsetInCU: 0x552E6, offset: 0x552E6, size: 0x8, addend: 0x0, symName: __ZNSt3__15dequeIP5PointNS_9allocatorIS2_EEED2B8ue170006Ev, symObjAddr: 0x21E9C, symBinAddr: 0x1000255C0, symSize: 0xA4 }
  - { offsetInCU: 0x5533C, offset: 0x5533C, size: 0x8, addend: 0x0, symName: __ZNSt3__15dequeIP5PointNS_9allocatorIS2_EEE5clearEv, symObjAddr: 0x21F40, symBinAddr: 0x100025664, symSize: 0x180 }
  - { offsetInCU: 0x55397, offset: 0x55397, size: 0x8, addend: 0x0, symName: __ZNKSt3__15dequeIP5PointNS_9allocatorIS2_EEE17__annotate_deleteB8ue170006Ev, symObjAddr: 0x220C0, symBinAddr: 0x1000257E4, symSize: 0xE8 }
  - { offsetInCU: 0x553DA, offset: 0x553DA, size: 0x8, addend: 0x0, symName: __ZNSt3__114__split_bufferIPP5PointNS_9allocatorIS3_EEE5beginB8ue170006Ev, symObjAddr: 0x221A8, symBinAddr: 0x1000258CC, symSize: 0x18 }
  - { offsetInCU: 0x55400, offset: 0x55400, size: 0x8, addend: 0x0, symName: __ZNSt3__114__split_bufferIPP5PointNS_9allocatorIS3_EEE3endB8ue170006Ev, symObjAddr: 0x221C0, symBinAddr: 0x1000258E4, symSize: 0x18 }
  - { offsetInCU: 0x55426, offset: 0x55426, size: 0x8, addend: 0x0, symName: __ZNSt3__15dequeIP5PointNS_9allocatorIS2_EEE7__allocB8ue170006Ev, symObjAddr: 0x221D8, symBinAddr: 0x1000258FC, symSize: 0x28 }
  - { offsetInCU: 0x5544C, offset: 0x5544C, size: 0x8, addend: 0x0, symName: __ZNSt3__114__split_bufferIPP5PointNS_9allocatorIS3_EEED1Ev, symObjAddr: 0x22200, symBinAddr: 0x100025924, symSize: 0x2C }
  - { offsetInCU: 0x55478, offset: 0x55478, size: 0x8, addend: 0x0, symName: __ZNSt3__15dequeIP5PointNS_9allocatorIS2_EEE5beginB8ue170006Ev, symObjAddr: 0x2222C, symBinAddr: 0x100025950, symSize: 0xB8 }
  - { offsetInCU: 0x554AD, offset: 0x554AD, size: 0x8, addend: 0x0, symName: __ZNSt3__15dequeIP5PointNS_9allocatorIS2_EEE3endB8ue170006Ev, symObjAddr: 0x222E4, symBinAddr: 0x100025A08, symSize: 0xBC }
  - { offsetInCU: 0x554F1, offset: 0x554F1, size: 0x8, addend: 0x0, symName: __ZNKSt3__116__deque_iteratorIP5PointPS2_RS2_PS3_lLl512EEdeB8ue170006Ev, symObjAddr: 0x223D4, symBinAddr: 0x100025AF8, symSize: 0x18 }
  - { offsetInCU: 0x55517, offset: 0x55517, size: 0x8, addend: 0x0, symName: __ZNSt3__116__deque_iteratorIP5PointPS2_RS2_PS3_lLl512EEppB8ue170006Ev, symObjAddr: 0x223EC, symBinAddr: 0x100025B10, symSize: 0x70 }
  - { offsetInCU: 0x5553D, offset: 0x5553D, size: 0x8, addend: 0x0, symName: __ZNSt3__15dequeIP5PointNS_9allocatorIS2_EEE6__sizeB8ue170006Ev, symObjAddr: 0x2245C, symBinAddr: 0x100025B80, symSize: 0x28 }
  - { offsetInCU: 0x55563, offset: 0x55563, size: 0x8, addend: 0x0, symName: __ZNSt3__114__split_bufferIPP5PointNS_9allocatorIS3_EEE5frontB8ue170006Ev, symObjAddr: 0x22484, symBinAddr: 0x100025BA8, symSize: 0x18 }
  - { offsetInCU: 0x55589, offset: 0x55589, size: 0x8, addend: 0x0, symName: __ZNSt3__114__split_bufferIPP5PointNS_9allocatorIS3_EEE9pop_frontB8ue170006Ev, symObjAddr: 0x2249C, symBinAddr: 0x100025BC0, symSize: 0x2C }
  - { offsetInCU: 0x555AF, offset: 0x555AF, size: 0x8, addend: 0x0, symName: __ZNKSt3__114__split_bufferIPP5PointNS_9allocatorIS3_EEE5emptyB8ue170006Ev, symObjAddr: 0x224C8, symBinAddr: 0x100025BEC, symSize: 0x28 }
  - { offsetInCU: 0x555D5, offset: 0x555D5, size: 0x8, addend: 0x0, symName: __ZNSt3__116__deque_iteratorIP5PointPS2_RS2_PS3_lLl512EEC1B8ue170006ES5_S3_, symObjAddr: 0x224F0, symBinAddr: 0x100025C14, symSize: 0x3C }
  - { offsetInCU: 0x5561D, offset: 0x5561D, size: 0x8, addend: 0x0, symName: __ZNSt3__116__deque_iteratorIP5PointPS2_RS2_PS3_lLl512EEC2B8ue170006ES5_S3_, symObjAddr: 0x2252C, symBinAddr: 0x100025C50, symSize: 0x2C }
  - { offsetInCU: 0x55665, offset: 0x55665, size: 0x8, addend: 0x0, symName: __ZNSt3__117__compressed_pairImNS_9allocatorIP5PointEEE5firstB8ue170006Ev, symObjAddr: 0x22588, symBinAddr: 0x100025CAC, symSize: 0x24 }
  - { offsetInCU: 0x5568B, offset: 0x5568B, size: 0x8, addend: 0x0, symName: __ZNSt3__114__split_bufferIPP5PointNS_9allocatorIS3_EEE19__destruct_at_beginB8ue170006EPS3_, symObjAddr: 0x225AC, symBinAddr: 0x100025CD0, symSize: 0x2C }
  - { offsetInCU: 0x556BF, offset: 0x556BF, size: 0x8, addend: 0x0, symName: __ZNSt3__114__split_bufferIPP5PointNS_9allocatorIS3_EEE19__destruct_at_beginEPS3_NS_17integral_constantIbLb1EEE, symObjAddr: 0x225D8, symBinAddr: 0x100025CFC, symSize: 0x20 }
  - { offsetInCU: 0x55700, offset: 0x55700, size: 0x8, addend: 0x0, symName: __ZNKSt3__15dequeIP5PointNS_9allocatorIS2_EEE22__annotate_whole_blockB8ue170006EmNS5_22__asan_annotation_typeE, symObjAddr: 0x225F8, symBinAddr: 0x100025D1C, symSize: 0xAC }
  - { offsetInCU: 0x55771, offset: 0x55771, size: 0x8, addend: 0x0, symName: __ZNKSt3__15dequeIP5PointNS_9allocatorIS2_EEE23__annotate_poison_blockB8ue170006EPKvS7_, symObjAddr: 0x226A4, symBinAddr: 0x100025DC8, symSize: 0x44 }
  - { offsetInCU: 0x557B5, offset: 0x557B5, size: 0x8, addend: 0x0, symName: __ZNSt3__117__compressed_pairImNS_9allocatorIP5PointEEE6secondB8ue170006Ev, symObjAddr: 0x226E8, symBinAddr: 0x100025E0C, symSize: 0x24 }
  - { offsetInCU: 0x557DB, offset: 0x557DB, size: 0x8, addend: 0x0, symName: __ZNSt3__114__split_bufferIPP5PointNS_9allocatorIS3_EEED2Ev, symObjAddr: 0x2270C, symBinAddr: 0x100025E30, symSize: 0x8C }
  - { offsetInCU: 0x55807, offset: 0x55807, size: 0x8, addend: 0x0, symName: __ZNSt3__114__split_bufferIPP5PointNS_9allocatorIS3_EEE5clearB8ue170006Ev, symObjAddr: 0x22798, symBinAddr: 0x100025EBC, symSize: 0x28 }
  - { offsetInCU: 0x5582D, offset: 0x5582D, size: 0x8, addend: 0x0, symName: __ZNSt3__116allocator_traitsINS_9allocatorIPP5PointEEE10deallocateB8ue170006ERS5_PS4_m, symObjAddr: 0x227C0, symBinAddr: 0x100025EE4, symSize: 0x34 }
  - { offsetInCU: 0x5586F, offset: 0x5586F, size: 0x8, addend: 0x0, symName: __ZNSt3__114__split_bufferIPP5PointNS_9allocatorIS3_EEE7__allocB8ue170006Ev, symObjAddr: 0x227F4, symBinAddr: 0x100025F18, symSize: 0x28 }
  - { offsetInCU: 0x55895, offset: 0x55895, size: 0x8, addend: 0x0, symName: __ZNKSt3__114__split_bufferIPP5PointNS_9allocatorIS3_EEE8capacityB8ue170006Ev, symObjAddr: 0x2281C, symBinAddr: 0x100025F40, symSize: 0x40 }
  - { offsetInCU: 0x558BB, offset: 0x558BB, size: 0x8, addend: 0x0, symName: __ZNSt3__114__split_bufferIPP5PointNS_9allocatorIS3_EEE17__destruct_at_endB8ue170006EPS3_, symObjAddr: 0x2285C, symBinAddr: 0x100025F80, symSize: 0x2C }
  - { offsetInCU: 0x558EF, offset: 0x558EF, size: 0x8, addend: 0x0, symName: __ZNSt3__114__split_bufferIPP5PointNS_9allocatorIS3_EEE17__destruct_at_endB8ue170006EPS3_NS_17integral_constantIbLb0EEE, symObjAddr: 0x22888, symBinAddr: 0x100025FAC, symSize: 0x80 }
  - { offsetInCU: 0x55930, offset: 0x55930, size: 0x8, addend: 0x0, symName: __ZNSt3__116allocator_traitsINS_9allocatorIPP5PointEEE7destroyB8ue170006IS4_vEEvRS5_PT_, symObjAddr: 0x22908, symBinAddr: 0x10002602C, symSize: 0x2C }
  - { offsetInCU: 0x5596D, offset: 0x5596D, size: 0x8, addend: 0x0, symName: __ZNSt3__19allocatorIPP5PointE7destroyB8ue170006EPS3_, symObjAddr: 0x22948, symBinAddr: 0x10002606C, symSize: 0x14 }
  - { offsetInCU: 0x559A1, offset: 0x559A1, size: 0x8, addend: 0x0, symName: __ZNSt3__19allocatorIPP5PointE10deallocateB8ue170006EPS3_m, symObjAddr: 0x2295C, symBinAddr: 0x100026080, symSize: 0x40 }
  - { offsetInCU: 0x559E3, offset: 0x559E3, size: 0x8, addend: 0x0, symName: __ZNSt3__117__compressed_pairIPPP5PointNS_9allocatorIS3_EEE6secondB8ue170006Ev, symObjAddr: 0x2299C, symBinAddr: 0x1000260C0, symSize: 0x24 }
  - { offsetInCU: 0x55A09, offset: 0x55A09, size: 0x8, addend: 0x0, symName: __ZNSt3__122__compressed_pair_elemINS_9allocatorIPP5PointEELi1ELb1EE5__getB8ue170006Ev, symObjAddr: 0x229C0, symBinAddr: 0x1000260E4, symSize: 0x14 }
  - { offsetInCU: 0x55A2F, offset: 0x55A2F, size: 0x8, addend: 0x0, symName: __ZNKSt3__114__split_bufferIPP5PointNS_9allocatorIS3_EEE9__end_capB8ue170006Ev, symObjAddr: 0x229D4, symBinAddr: 0x1000260F8, symSize: 0x28 }
  - { offsetInCU: 0x55A55, offset: 0x55A55, size: 0x8, addend: 0x0, symName: __ZNKSt3__117__compressed_pairIPPP5PointNS_9allocatorIS3_EEE5firstB8ue170006Ev, symObjAddr: 0x229FC, symBinAddr: 0x100026120, symSize: 0x24 }
  - { offsetInCU: 0x55A7B, offset: 0x55A7B, size: 0x8, addend: 0x0, symName: __ZNKSt3__122__compressed_pair_elemIPPP5PointLi0ELb0EE5__getB8ue170006Ev, symObjAddr: 0x22A20, symBinAddr: 0x100026144, symSize: 0x14 }
  - { offsetInCU: 0x55AA1, offset: 0x55AA1, size: 0x8, addend: 0x0, symName: __ZNKSt3__15dequeIP5PointNS_9allocatorIS2_EEE12__back_spareB8ue170006Ev, symObjAddr: 0x22A34, symBinAddr: 0x100026158, symSize: 0x54 }
  - { offsetInCU: 0x55AC7, offset: 0x55AC7, size: 0x8, addend: 0x0, symName: __ZNSt3__15dequeIP5PointNS_9allocatorIS2_EEE19__add_back_capacityEv, symObjAddr: 0x22A88, symBinAddr: 0x1000261AC, symSize: 0x34C }
  - { offsetInCU: 0x55B7C, offset: 0x55B7C, size: 0x8, addend: 0x0, symName: __ZNKSt3__15dequeIP5PointNS_9allocatorIS2_EEE24__annotate_increase_backB8ue170006Em, symObjAddr: 0x22DD4, symBinAddr: 0x1000264F8, symSize: 0x7C }
  - { offsetInCU: 0x55BB1, offset: 0x55BB1, size: 0x8, addend: 0x0, symName: __ZNKSt3__15dequeIP5PointNS_9allocatorIS2_EEE10__capacityB8ue170006Ev, symObjAddr: 0x22E50, symBinAddr: 0x100026574, symSize: 0x60 }
  - { offsetInCU: 0x55BD7, offset: 0x55BD7, size: 0x8, addend: 0x0, symName: __ZNKSt3__15dequeIP5PointNS_9allocatorIS2_EEE13__front_spareB8ue170006Ev, symObjAddr: 0x22EB0, symBinAddr: 0x1000265D4, symSize: 0x18 }
  - { offsetInCU: 0x55BFD, offset: 0x55BFD, size: 0x8, addend: 0x0, symName: __ZNSt3__114__split_bufferIPP5PointNS_9allocatorIS3_EEE9push_backB8ue170006ERKS3_, symObjAddr: 0x22EC8, symBinAddr: 0x1000265EC, symSize: 0x260 }
  - { offsetInCU: 0x55C75, offset: 0x55C75, size: 0x8, addend: 0x0, symName: __ZNKSt3__114__split_bufferIPP5PointNS_9allocatorIS3_EEE12__back_spareB8ue170006Ev, symObjAddr: 0x23128, symBinAddr: 0x10002684C, symSize: 0x40 }
  - { offsetInCU: 0x55C9B, offset: 0x55C9B, size: 0x8, addend: 0x0, symName: __ZNSt3__114__split_bufferIPP5PointNS_9allocatorIS3_EEE9push_backEOS3_, symObjAddr: 0x23168, symBinAddr: 0x10002688C, symSize: 0x260 }
  - { offsetInCU: 0x55D13, offset: 0x55D13, size: 0x8, addend: 0x0, symName: __ZNSt3__116allocator_traitsINS_9allocatorIP5PointEEE8allocateB8ue170006ERS4_m, symObjAddr: 0x233C8, symBinAddr: 0x100026AEC, symSize: 0x2C }
  - { offsetInCU: 0x55D46, offset: 0x55D46, size: 0x8, addend: 0x0, symName: __ZNSt3__114__split_bufferIPP5PointNS_9allocatorIS3_EEE10push_frontEOS3_, symObjAddr: 0x233F4, symBinAddr: 0x100026B18, symSize: 0x25C }
  - { offsetInCU: 0x55DBE, offset: 0x55DBE, size: 0x8, addend: 0x0, symName: __ZNSt3__114__split_bufferIPP5PointRNS_9allocatorIS3_EEEC1EmmS6_, symObjAddr: 0x23650, symBinAddr: 0x100026D74, symSize: 0x44 }
  - { offsetInCU: 0x55E1A, offset: 0x55E1A, size: 0x8, addend: 0x0, symName: __ZNSt3__122__allocator_destructorINS_9allocatorIP5PointEEEC1B8ue170006ERS4_m, symObjAddr: 0x23694, symBinAddr: 0x100026DB8, symSize: 0x3C }
  - { offsetInCU: 0x55ED9, offset: 0x55ED9, size: 0x8, addend: 0x0, symName: __ZNSt3__110unique_ptrIPP5PointNS_22__allocator_destructorINS_9allocatorIS2_EEEEEC1B8ue170006ILb1EvEES3_NS_16__dependent_typeINS_27__unique_ptr_deleter_sfinaeIS7_EEXT_EE20__good_rval_ref_typeE, symObjAddr: 0x236D0, symBinAddr: 0x100026DF4, symSize: 0x3C }
  - { offsetInCU: 0x55F2A, offset: 0x55F2A, size: 0x8, addend: 0x0, symName: __ZNSt3__114__split_bufferIPP5PointRNS_9allocatorIS3_EEE9push_backEOS3_, symObjAddr: 0x2370C, symBinAddr: 0x100026E30, symSize: 0x260 }
  - { offsetInCU: 0x55FA2, offset: 0x55FA2, size: 0x8, addend: 0x0, symName: __ZNKSt3__110unique_ptrIPP5PointNS_22__allocator_destructorINS_9allocatorIS2_EEEEE3getB8ue170006Ev, symObjAddr: 0x2396C, symBinAddr: 0x100027090, symSize: 0x28 }
  - { offsetInCU: 0x55FC8, offset: 0x55FC8, size: 0x8, addend: 0x0, symName: __ZNSt3__110unique_ptrIPP5PointNS_22__allocator_destructorINS_9allocatorIS2_EEEEE7releaseB8ue170006Ev, symObjAddr: 0x23994, symBinAddr: 0x1000270B8, symSize: 0x44 }
  - { offsetInCU: 0x55FFD, offset: 0x55FFD, size: 0x8, addend: 0x0, symName: __ZNSt3__114__split_bufferIPP5PointRNS_9allocatorIS3_EEE10push_frontERKS3_, symObjAddr: 0x239D8, symBinAddr: 0x1000270FC, symSize: 0x25C }
  - { offsetInCU: 0x56075, offset: 0x56075, size: 0x8, addend: 0x0, symName: __ZNSt3__114__split_bufferIPP5PointNS_9allocatorIS3_EEE9__end_capB8ue170006Ev, symObjAddr: 0x23C70, symBinAddr: 0x100027394, symSize: 0x28 }
  - { offsetInCU: 0x5609B, offset: 0x5609B, size: 0x8, addend: 0x0, symName: __ZNSt3__114__split_bufferIPP5PointRNS_9allocatorIS3_EEE9__end_capB8ue170006Ev, symObjAddr: 0x23C98, symBinAddr: 0x1000273BC, symSize: 0x28 }
  - { offsetInCU: 0x560C1, offset: 0x560C1, size: 0x8, addend: 0x0, symName: __ZNSt3__110unique_ptrIPP5PointNS_22__allocator_destructorINS_9allocatorIS2_EEEEED1B8ue170006Ev, symObjAddr: 0x23CC0, symBinAddr: 0x1000273E4, symSize: 0x2C }
  - { offsetInCU: 0x560EB, offset: 0x560EB, size: 0x8, addend: 0x0, symName: __ZNSt3__114__split_bufferIPP5PointRNS_9allocatorIS3_EEED1Ev, symObjAddr: 0x23CEC, symBinAddr: 0x100027410, symSize: 0x2C }
  - { offsetInCU: 0x56117, offset: 0x56117, size: 0x8, addend: 0x0, symName: __ZNSt3__114__split_bufferIPP5PointRNS_9allocatorIS3_EEE18__construct_at_endINS_13move_iteratorIPS3_EEEENS_9enable_ifIXsr31__has_forward_iterator_categoryIT_EE5valueEvE4typeESD_SD_, symObjAddr: 0x23D58, symBinAddr: 0x10002747C, symSize: 0x60 }
  - { offsetInCU: 0x56164, offset: 0x56164, size: 0x8, addend: 0x0, symName: __ZNSt3__113move_iteratorIPPP5PointEC1B8ue170006ES4_, symObjAddr: 0x23DB8, symBinAddr: 0x1000274DC, symSize: 0x34 }
  - { offsetInCU: 0x5619C, offset: 0x5619C, size: 0x8, addend: 0x0, symName: __ZNSt3__116allocator_traitsINS_9allocatorIPP5PointEEE9constructB8ue170006IS4_JRKS4_EvEEvRS5_PT_DpOT0_, symObjAddr: 0x23DEC, symBinAddr: 0x100027510, symSize: 0x34 }
  - { offsetInCU: 0x56210, offset: 0x56210, size: 0x8, addend: 0x0, symName: __ZNKSt3__114__move_trivialclB8ue170006IPP5PointS4_Li0EEENS_4pairIPT_PT0_EES7_S7_S9_, symObjAddr: 0x23FBC, symBinAddr: 0x1000276E0, symSize: 0x48 }
  - { offsetInCU: 0x5627E, offset: 0x5627E, size: 0x8, addend: 0x0, symName: __ZNSt3__14pairIPPP5PointS4_EC1B8ue170006IRS4_S4_LPv0EEEOT_OT0_, symObjAddr: 0x241E4, symBinAddr: 0x100027908, symSize: 0x3C }
  - { offsetInCU: 0x562DC, offset: 0x562DC, size: 0x8, addend: 0x0, symName: __ZNSt3__14pairIPPP5PointS4_EC2B8ue170006IRS4_S4_LPv0EEEOT_OT0_, symObjAddr: 0x24220, symBinAddr: 0x100027944, symSize: 0x34 }
  - { offsetInCU: 0x5633A, offset: 0x5633A, size: 0x8, addend: 0x0, symName: __ZNSt3__118__unwrap_iter_implIPPP5PointLb1EE8__unwrapB8ue170006ES4_, symObjAddr: 0x24254, symBinAddr: 0x100027978, symSize: 0x24 }
  - { offsetInCU: 0x5635D, offset: 0x5635D, size: 0x8, addend: 0x0, symName: __ZNSt3__14pairIPPP5PointS4_EC1B8ue170006IS4_S4_LPv0EEEOT_OT0_, symObjAddr: 0x24278, symBinAddr: 0x10002799C, symSize: 0x3C }
  - { offsetInCU: 0x563BB, offset: 0x563BB, size: 0x8, addend: 0x0, symName: __ZNSt3__14pairIPPP5PointS4_EC2B8ue170006IS4_S4_LPv0EEEOT_OT0_, symObjAddr: 0x242B4, symBinAddr: 0x1000279D8, symSize: 0x34 }
  - { offsetInCU: 0x56419, offset: 0x56419, size: 0x8, addend: 0x0, symName: __ZNSt3__118__unwrap_iter_implIPPP5PointLb1EE8__rewrapB8ue170006ES4_S4_, symObjAddr: 0x242E8, symBinAddr: 0x100027A0C, symSize: 0x50 }
  - { offsetInCU: 0x5644A, offset: 0x5644A, size: 0x8, addend: 0x0, symName: __ZNSt3__114__split_bufferIPP5PointRNS_9allocatorIS3_EEE28__construct_at_end_with_sizeINS_13move_iteratorIPS3_EEEEvT_m, symObjAddr: 0x24338, symBinAddr: 0x100027A5C, symSize: 0xDC }
  - { offsetInCU: 0x564B2, offset: 0x564B2, size: 0x8, addend: 0x0, symName: __ZNSt3__114__split_bufferIPP5PointRNS_9allocatorIS3_EEE21_ConstructTransactionC1B8ue170006EPPS3_m, symObjAddr: 0x24450, symBinAddr: 0x100027B74, symSize: 0x3C }
  - { offsetInCU: 0x564F8, offset: 0x564F8, size: 0x8, addend: 0x0, symName: __ZNSt3__116allocator_traitsINS_9allocatorIPP5PointEEE9constructB8ue170006IS4_JS4_EvEEvRS5_PT_DpOT0_, symObjAddr: 0x2448C, symBinAddr: 0x100027BB0, symSize: 0x34 }
  - { offsetInCU: 0x5654F, offset: 0x5654F, size: 0x8, addend: 0x0, symName: __ZNSt3__114__split_bufferIPP5PointRNS_9allocatorIS3_EEE7__allocB8ue170006Ev, symObjAddr: 0x244C0, symBinAddr: 0x100027BE4, symSize: 0x28 }
  - { offsetInCU: 0x56575, offset: 0x56575, size: 0x8, addend: 0x0, symName: __ZNKSt3__113move_iteratorIPPP5PointEdeB8ue170006Ev, symObjAddr: 0x244E8, symBinAddr: 0x100027C0C, symSize: 0x18 }
  - { offsetInCU: 0x5659B, offset: 0x5659B, size: 0x8, addend: 0x0, symName: __ZNSt3__113move_iteratorIPPP5PointEppB8ue170006Ev, symObjAddr: 0x24500, symBinAddr: 0x100027C24, symSize: 0x20 }
  - { offsetInCU: 0x565C1, offset: 0x565C1, size: 0x8, addend: 0x0, symName: __ZNSt3__114__split_bufferIPP5PointRNS_9allocatorIS3_EEE21_ConstructTransactionD1B8ue170006Ev, symObjAddr: 0x24520, symBinAddr: 0x100027C44, symSize: 0x2C }
  - { offsetInCU: 0x565EB, offset: 0x565EB, size: 0x8, addend: 0x0, symName: __ZNSt3__114__split_bufferIPP5PointRNS_9allocatorIS3_EEE21_ConstructTransactionC2B8ue170006EPPS3_m, symObjAddr: 0x2454C, symBinAddr: 0x100027C70, symSize: 0x44 }
  - { offsetInCU: 0x56631, offset: 0x56631, size: 0x8, addend: 0x0, symName: __ZNSt3__19allocatorIPP5PointE9constructB8ue170006IS3_JS3_EEEvPT_DpOT0_, symObjAddr: 0x24590, symBinAddr: 0x100027CB4, symSize: 0x28 }
  - { offsetInCU: 0x56687, offset: 0x56687, size: 0x8, addend: 0x0, symName: __ZNSt3__117__compressed_pairIPPP5PointRNS_9allocatorIS3_EEE6secondB8ue170006Ev, symObjAddr: 0x245B8, symBinAddr: 0x100027CDC, symSize: 0x28 }
  - { offsetInCU: 0x566AD, offset: 0x566AD, size: 0x8, addend: 0x0, symName: __ZNSt3__122__compressed_pair_elemIRNS_9allocatorIPP5PointEELi1ELb0EE5__getB8ue170006Ev, symObjAddr: 0x245E0, symBinAddr: 0x100027D04, symSize: 0x18 }
  - { offsetInCU: 0x566D3, offset: 0x566D3, size: 0x8, addend: 0x0, symName: __ZNSt3__114__split_bufferIPP5PointRNS_9allocatorIS3_EEE21_ConstructTransactionD2B8ue170006Ev, symObjAddr: 0x245F8, symBinAddr: 0x100027D1C, symSize: 0x20 }
  - { offsetInCU: 0x566FD, offset: 0x566FD, size: 0x8, addend: 0x0, symName: __ZNKSt3__113move_iteratorIPPP5PointE4baseB8ue170006Ev, symObjAddr: 0x24690, symBinAddr: 0x100027DB4, symSize: 0x18 }
  - { offsetInCU: 0x56723, offset: 0x56723, size: 0x8, addend: 0x0, symName: __ZNSt3__113move_iteratorIPPP5PointEC2B8ue170006ES4_, symObjAddr: 0x246A8, symBinAddr: 0x100027DCC, symSize: 0x20 }
  - { offsetInCU: 0x5675B, offset: 0x5675B, size: 0x8, addend: 0x0, symName: __ZNSt3__19allocatorIPP5PointE9constructB8ue170006IS3_JRKS3_EEEvPT_DpOT0_, symObjAddr: 0x246C8, symBinAddr: 0x100027DEC, symSize: 0x28 }
  - { offsetInCU: 0x567B1, offset: 0x567B1, size: 0x8, addend: 0x0, symName: __ZNKSt3__123__move_backward_trivialclB8ue170006IPP5PointS4_Li0EEENS_4pairIPT_PT0_EES7_S7_S9_, symObjAddr: 0x2486C, symBinAddr: 0x100027F90, symSize: 0x48 }
  - { offsetInCU: 0x56819, offset: 0x56819, size: 0x8, addend: 0x0, symName: __ZNSt3__14pairIPPP5PointS4_EC1B8ue170006IRS4_S7_LPv0EEEOT_OT0_, symObjAddr: 0x2497C, symBinAddr: 0x1000280A0, symSize: 0x3C }
  - { offsetInCU: 0x56877, offset: 0x56877, size: 0x8, addend: 0x0, symName: __ZNSt3__14pairIPPP5PointS4_EC2B8ue170006IRS4_S7_LPv0EEEOT_OT0_, symObjAddr: 0x249B8, symBinAddr: 0x1000280DC, symSize: 0x34 }
  - { offsetInCU: 0x568D5, offset: 0x568D5, size: 0x8, addend: 0x0, symName: __ZNSt3__114__split_bufferIPP5PointRNS_9allocatorIS3_EEEC2EmmS6_, symObjAddr: 0x249EC, symBinAddr: 0x100028110, symSize: 0xD4 }
  - { offsetInCU: 0x56948, offset: 0x56948, size: 0x8, addend: 0x0, symName: __ZNSt3__117__compressed_pairIPPP5PointRNS_9allocatorIS3_EEEC1B8ue170006IDnS7_EEOT_OT0_, symObjAddr: 0x24AC0, symBinAddr: 0x1000281E4, symSize: 0x3C }
  - { offsetInCU: 0x569A0, offset: 0x569A0, size: 0x8, addend: 0x0, symName: __ZNSt3__117__compressed_pairIPPP5PointRNS_9allocatorIS3_EEEC2B8ue170006IDnS7_EEOT_OT0_, symObjAddr: 0x24B3C, symBinAddr: 0x100028260, symSize: 0x48 }
  - { offsetInCU: 0x569F8, offset: 0x569F8, size: 0x8, addend: 0x0, symName: __ZNSt3__122__compressed_pair_elemIRNS_9allocatorIPP5PointEELi1ELb0EEC2B8ue170006IS6_vEEOT_, symObjAddr: 0x24B84, symBinAddr: 0x1000282A8, symSize: 0x20 }
  - { offsetInCU: 0x56A3A, offset: 0x56A3A, size: 0x8, addend: 0x0, symName: __ZNSt3__19allocatorIPP5PointE8allocateB8ue170006Em, symObjAddr: 0x24BA4, symBinAddr: 0x1000282C8, symSize: 0x58 }
  - { offsetInCU: 0x56A79, offset: 0x56A79, size: 0x8, addend: 0x0, symName: __ZNSt3__116allocator_traitsINS_9allocatorIPP5PointEEE8max_sizeB8ue170006IS5_vEEmRKS5_, symObjAddr: 0x24BFC, symBinAddr: 0x100028320, symSize: 0x24 }
  - { offsetInCU: 0x56AA7, offset: 0x56AA7, size: 0x8, addend: 0x0, symName: __ZNKSt3__19allocatorIPP5PointE8max_sizeB8ue170006Ev, symObjAddr: 0x24C20, symBinAddr: 0x100028344, symSize: 0x14 }
  - { offsetInCU: 0x56ACD, offset: 0x56ACD, size: 0x8, addend: 0x0, symName: __ZNSt3__122__allocator_destructorINS_9allocatorIP5PointEEEC2B8ue170006ERS4_m, symObjAddr: 0x24C34, symBinAddr: 0x100028358, symSize: 0x2C }
  - { offsetInCU: 0x56B13, offset: 0x56B13, size: 0x8, addend: 0x0, symName: __ZNSt3__110unique_ptrIPP5PointNS_22__allocator_destructorINS_9allocatorIS2_EEEEEC2B8ue170006ILb1EvEES3_NS_16__dependent_typeINS_27__unique_ptr_deleter_sfinaeIS7_EEXT_EE20__good_rval_ref_typeE, symObjAddr: 0x24C60, symBinAddr: 0x100028384, symSize: 0x48 }
  - { offsetInCU: 0x56B64, offset: 0x56B64, size: 0x8, addend: 0x0, symName: __ZNSt3__117__compressed_pairIPP5PointNS_22__allocator_destructorINS_9allocatorIS2_EEEEEC1B8ue170006IRS3_S7_EEOT_OT0_, symObjAddr: 0x24CA8, symBinAddr: 0x1000283CC, symSize: 0x3C }
  - { offsetInCU: 0x56BBC, offset: 0x56BBC, size: 0x8, addend: 0x0, symName: __ZNSt3__117__compressed_pairIPP5PointNS_22__allocator_destructorINS_9allocatorIS2_EEEEEC2B8ue170006IRS3_S7_EEOT_OT0_, symObjAddr: 0x24CE4, symBinAddr: 0x100028408, symSize: 0x48 }
  - { offsetInCU: 0x56C14, offset: 0x56C14, size: 0x8, addend: 0x0, symName: __ZNSt3__122__compressed_pair_elemIPP5PointLi0ELb0EEC2B8ue170006IRS3_vEEOT_, symObjAddr: 0x24D2C, symBinAddr: 0x100028450, symSize: 0x24 }
  - { offsetInCU: 0x56C56, offset: 0x56C56, size: 0x8, addend: 0x0, symName: __ZNSt3__122__compressed_pair_elemINS_22__allocator_destructorINS_9allocatorIP5PointEEEELi1ELb0EEC2B8ue170006IS6_vEEOT_, symObjAddr: 0x24D50, symBinAddr: 0x100028474, symSize: 0x24 }
  - { offsetInCU: 0x56C98, offset: 0x56C98, size: 0x8, addend: 0x0, symName: __ZNKSt3__117__compressed_pairIPP5PointNS_22__allocator_destructorINS_9allocatorIS2_EEEEE5firstB8ue170006Ev, symObjAddr: 0x24D74, symBinAddr: 0x100028498, symSize: 0x24 }
  - { offsetInCU: 0x56CBE, offset: 0x56CBE, size: 0x8, addend: 0x0, symName: __ZNSt3__117__compressed_pairIPP5PointNS_22__allocator_destructorINS_9allocatorIS2_EEEEE5firstB8ue170006Ev, symObjAddr: 0x24D98, symBinAddr: 0x1000284BC, symSize: 0x24 }
  - { offsetInCU: 0x56CE4, offset: 0x56CE4, size: 0x8, addend: 0x0, symName: __ZNSt3__117__compressed_pairIPPP5PointNS_9allocatorIS3_EEE5firstB8ue170006Ev, symObjAddr: 0x24DBC, symBinAddr: 0x1000284E0, symSize: 0x24 }
  - { offsetInCU: 0x56D0A, offset: 0x56D0A, size: 0x8, addend: 0x0, symName: __ZNSt3__122__compressed_pair_elemIPPP5PointLi0ELb0EE5__getB8ue170006Ev, symObjAddr: 0x24DE0, symBinAddr: 0x100028504, symSize: 0x14 }
  - { offsetInCU: 0x56D30, offset: 0x56D30, size: 0x8, addend: 0x0, symName: __ZNSt3__117__compressed_pairIPPP5PointRNS_9allocatorIS3_EEE5firstB8ue170006Ev, symObjAddr: 0x24DF4, symBinAddr: 0x100028518, symSize: 0x24 }
  - { offsetInCU: 0x56D56, offset: 0x56D56, size: 0x8, addend: 0x0, symName: __ZNSt3__110unique_ptrIPP5PointNS_22__allocator_destructorINS_9allocatorIS2_EEEEED2B8ue170006Ev, symObjAddr: 0x24E18, symBinAddr: 0x10002853C, symSize: 0x30 }
  - { offsetInCU: 0x56D80, offset: 0x56D80, size: 0x8, addend: 0x0, symName: __ZNSt3__110unique_ptrIPP5PointNS_22__allocator_destructorINS_9allocatorIS2_EEEEE5resetB8ue170006ES3_, symObjAddr: 0x24E48, symBinAddr: 0x10002856C, symSize: 0x78 }
  - { offsetInCU: 0x56DC4, offset: 0x56DC4, size: 0x8, addend: 0x0, symName: __ZNSt3__117__compressed_pairIPP5PointNS_22__allocator_destructorINS_9allocatorIS2_EEEEE6secondB8ue170006Ev, symObjAddr: 0x24EC0, symBinAddr: 0x1000285E4, symSize: 0x28 }
  - { offsetInCU: 0x56DEA, offset: 0x56DEA, size: 0x8, addend: 0x0, symName: __ZNSt3__122__allocator_destructorINS_9allocatorIP5PointEEEclB8ue170006EPS3_, symObjAddr: 0x24EE8, symBinAddr: 0x10002860C, symSize: 0x34 }
  - { offsetInCU: 0x56E1E, offset: 0x56E1E, size: 0x8, addend: 0x0, symName: __ZNSt3__122__compressed_pair_elemINS_22__allocator_destructorINS_9allocatorIP5PointEEEELi1ELb0EE5__getB8ue170006Ev, symObjAddr: 0x24F1C, symBinAddr: 0x100028640, symSize: 0x14 }
  - { offsetInCU: 0x56E44, offset: 0x56E44, size: 0x8, addend: 0x0, symName: __ZNSt3__114__split_bufferIPP5PointRNS_9allocatorIS3_EEED2Ev, symObjAddr: 0x24F30, symBinAddr: 0x100028654, symSize: 0x8C }
  - { offsetInCU: 0x56E70, offset: 0x56E70, size: 0x8, addend: 0x0, symName: __ZNSt3__114__split_bufferIPP5PointRNS_9allocatorIS3_EEE5clearB8ue170006Ev, symObjAddr: 0x24FBC, symBinAddr: 0x1000286E0, symSize: 0x28 }
  - { offsetInCU: 0x56E96, offset: 0x56E96, size: 0x8, addend: 0x0, symName: __ZNKSt3__114__split_bufferIPP5PointRNS_9allocatorIS3_EEE8capacityB8ue170006Ev, symObjAddr: 0x24FE4, symBinAddr: 0x100028708, symSize: 0x40 }
  - { offsetInCU: 0x56EBC, offset: 0x56EBC, size: 0x8, addend: 0x0, symName: __ZNSt3__114__split_bufferIPP5PointRNS_9allocatorIS3_EEE17__destruct_at_endB8ue170006EPS3_, symObjAddr: 0x25024, symBinAddr: 0x100028748, symSize: 0x2C }
  - { offsetInCU: 0x56EF0, offset: 0x56EF0, size: 0x8, addend: 0x0, symName: __ZNSt3__114__split_bufferIPP5PointRNS_9allocatorIS3_EEE17__destruct_at_endB8ue170006EPS3_NS_17integral_constantIbLb0EEE, symObjAddr: 0x25050, symBinAddr: 0x100028774, symSize: 0x80 }
  - { offsetInCU: 0x56F31, offset: 0x56F31, size: 0x8, addend: 0x0, symName: __ZNKSt3__114__split_bufferIPP5PointRNS_9allocatorIS3_EEE9__end_capB8ue170006Ev, symObjAddr: 0x250D0, symBinAddr: 0x1000287F4, symSize: 0x28 }
  - { offsetInCU: 0x56F57, offset: 0x56F57, size: 0x8, addend: 0x0, symName: __ZNKSt3__117__compressed_pairIPPP5PointRNS_9allocatorIS3_EEE5firstB8ue170006Ev, symObjAddr: 0x250F8, symBinAddr: 0x10002881C, symSize: 0x24 }
  - { offsetInCU: 0x56F7D, offset: 0x56F7D, size: 0x8, addend: 0x0, symName: __ZNSt3__15queueIP5PointNS_5dequeIS2_NS_9allocatorIS2_EEEEEC2B8ue170006ERKS6_, symObjAddr: 0x2511C, symBinAddr: 0x100028840, symSize: 0x34 }
  - { offsetInCU: 0x56FB6, offset: 0x56FB6, size: 0x8, addend: 0x0, symName: __ZNSt3__15dequeIP5PointNS_9allocatorIS2_EEEC1ERKS5_, symObjAddr: 0x25150, symBinAddr: 0x100028874, symSize: 0x34 }
  - { offsetInCU: 0x56FF1, offset: 0x56FF1, size: 0x8, addend: 0x0, symName: __ZNSt3__15dequeIP5PointNS_9allocatorIS2_EEEC2ERKS5_, symObjAddr: 0x25184, symBinAddr: 0x1000288A8, symSize: 0xF8 }
  - { offsetInCU: 0x5702C, offset: 0x5702C, size: 0x8, addend: 0x0, symName: __ZNSt3__116allocator_traitsINS_9allocatorIP5PointEEE37select_on_container_copy_constructionB8ue170006IS4_vvEES4_RKS4_, symObjAddr: 0x2527C, symBinAddr: 0x1000289A0, symSize: 0x10 }
  - { offsetInCU: 0x5705B, offset: 0x5705B, size: 0x8, addend: 0x0, symName: __ZNKSt3__15dequeIP5PointNS_9allocatorIS2_EEE7__allocB8ue170006Ev, symObjAddr: 0x2528C, symBinAddr: 0x1000289B0, symSize: 0x28 }
  - { offsetInCU: 0x57081, offset: 0x57081, size: 0x8, addend: 0x0, symName: __ZNSt3__19allocatorIPP5PointEC1B8ue170006IS2_EERKNS0_IT_EE, symObjAddr: 0x252B4, symBinAddr: 0x1000289D8, symSize: 0x34 }
  - { offsetInCU: 0x570BF, offset: 0x570BF, size: 0x8, addend: 0x0, symName: __ZNSt3__114__split_bufferIPP5PointNS_9allocatorIS3_EEEC1B8ue170006ERKS5_, symObjAddr: 0x252E8, symBinAddr: 0x100028A0C, symSize: 0x34 }
  - { offsetInCU: 0x570F7, offset: 0x570F7, size: 0x8, addend: 0x0, symName: __ZNSt3__117__compressed_pairImNS_9allocatorIP5PointEEEC1B8ue170006IiRNS1_IPS3_EEEEOT_OT0_, symObjAddr: 0x2531C, symBinAddr: 0x100028A40, symSize: 0x3C }
  - { offsetInCU: 0x5714F, offset: 0x5714F, size: 0x8, addend: 0x0, symName: __ZNSt3__15dequeIP5PointNS_9allocatorIS2_EEE8__appendINS_16__deque_iteratorIS2_PKS2_RS8_PKS9_lLl512EEEEEvT_SE_PNS_9enable_ifIXsr31__has_forward_iterator_categoryISE_EE5valueEvE4typeE, symObjAddr: 0x25358, symBinAddr: 0x100028A7C, symSize: 0x78 }
  - { offsetInCU: 0x571AA, offset: 0x571AA, size: 0x8, addend: 0x0, symName: __ZNKSt3__15dequeIP5PointNS_9allocatorIS2_EEE5beginB8ue170006Ev, symObjAddr: 0x253D0, symBinAddr: 0x100028AF4, symSize: 0xA8 }
  - { offsetInCU: 0x571DF, offset: 0x571DF, size: 0x8, addend: 0x0, symName: __ZNKSt3__15dequeIP5PointNS_9allocatorIS2_EEE3endB8ue170006Ev, symObjAddr: 0x25478, symBinAddr: 0x100028B9C, symSize: 0xBC }
  - { offsetInCU: 0x57223, offset: 0x57223, size: 0x8, addend: 0x0, symName: __ZNKSt3__117__compressed_pairImNS_9allocatorIP5PointEEE6secondB8ue170006Ev, symObjAddr: 0x25534, symBinAddr: 0x100028C58, symSize: 0x24 }
  - { offsetInCU: 0x57249, offset: 0x57249, size: 0x8, addend: 0x0, symName: __ZNKSt3__122__compressed_pair_elemINS_9allocatorIP5PointEELi1ELb1EE5__getB8ue170006Ev, symObjAddr: 0x25558, symBinAddr: 0x100028C7C, symSize: 0x14 }
  - { offsetInCU: 0x5726F, offset: 0x5726F, size: 0x8, addend: 0x0, symName: __ZNSt3__19allocatorIPP5PointEC2B8ue170006IS2_EERKNS0_IT_EE, symObjAddr: 0x2556C, symBinAddr: 0x100028C90, symSize: 0x30 }
  - { offsetInCU: 0x572AD, offset: 0x572AD, size: 0x8, addend: 0x0, symName: __ZNSt3__114__split_bufferIPP5PointNS_9allocatorIS3_EEEC2B8ue170006ERKS5_, symObjAddr: 0x2559C, symBinAddr: 0x100028CC0, symSize: 0x4C }
  - { offsetInCU: 0x572E5, offset: 0x572E5, size: 0x8, addend: 0x0, symName: __ZNSt3__117__compressed_pairIPPP5PointNS_9allocatorIS3_EEEC1B8ue170006IDnRKS6_EEOT_OT0_, symObjAddr: 0x255E8, symBinAddr: 0x100028D0C, symSize: 0x3C }
  - { offsetInCU: 0x5733D, offset: 0x5733D, size: 0x8, addend: 0x0, symName: __ZNSt3__117__compressed_pairIPPP5PointNS_9allocatorIS3_EEEC2B8ue170006IDnRKS6_EEOT_OT0_, symObjAddr: 0x25624, symBinAddr: 0x100028D48, symSize: 0x44 }
  - { offsetInCU: 0x57395, offset: 0x57395, size: 0x8, addend: 0x0, symName: __ZNSt3__122__compressed_pair_elemINS_9allocatorIPP5PointEELi1ELb1EEC2B8ue170006IRKS5_vEEOT_, symObjAddr: 0x25668, symBinAddr: 0x100028D8C, symSize: 0x18 }
  - { offsetInCU: 0x573D7, offset: 0x573D7, size: 0x8, addend: 0x0, symName: __ZNSt3__117__compressed_pairImNS_9allocatorIP5PointEEEC2B8ue170006IiRNS1_IPS3_EEEEOT_OT0_, symObjAddr: 0x25680, symBinAddr: 0x100028DA4, symSize: 0x44 }
  - { offsetInCU: 0x5742F, offset: 0x5742F, size: 0x8, addend: 0x0, symName: __ZNSt3__122__compressed_pair_elemINS_9allocatorIP5PointEELi1ELb1EEC2B8ue170006IRNS1_IPS3_EEvEEOT_, symObjAddr: 0x256C4, symBinAddr: 0x100028DE8, symSize: 0x34 }
  - { offsetInCU: 0x57471, offset: 0x57471, size: 0x8, addend: 0x0, symName: __ZNSt3__19allocatorIP5PointEC2B8ue170006IPS2_EERKNS0_IT_EE, symObjAddr: 0x256F8, symBinAddr: 0x100028E1C, symSize: 0x30 }
  - { offsetInCU: 0x574AF, offset: 0x574AF, size: 0x8, addend: 0x0, symName: __ZNSt3__15dequeIP5PointNS_9allocatorIS2_EEE18__append_with_sizeB8ue170006INS_16__deque_iteratorIS2_PKS2_RS8_PKS9_lLl512EEEEEvT_m, symObjAddr: 0x25728, symBinAddr: 0x100028E4C, symSize: 0x21C }
  - { offsetInCU: 0x57580, offset: 0x57580, size: 0x8, addend: 0x0, symName: __ZNSt3__15dequeIP5PointNS_9allocatorIS2_EEE19__add_back_capacityEm, symObjAddr: 0x25990, symBinAddr: 0x1000290B4, symSize: 0x63C }
  - { offsetInCU: 0x57681, offset: 0x57681, size: 0x8, addend: 0x0, symName: __ZNKSt3__116__deque_iteratorIP5PointPS2_RS2_PS3_lLl512EEplB8ue170006El, symObjAddr: 0x25FCC, symBinAddr: 0x1000296F0, symSize: 0x40 }
  - { offsetInCU: 0x576EC, offset: 0x576EC, size: 0x8, addend: 0x0, symName: __ZNSt3__15dequeIP5PointNS_9allocatorIS2_EEE13__deque_rangeC1B8ue170006ENS_16__deque_iteratorIS2_PS2_RS2_PS8_lLl512EEESB_, symObjAddr: 0x2600C, symBinAddr: 0x100029730, symSize: 0x4C }
  - { offsetInCU: 0x57734, offset: 0x57734, size: 0x8, addend: 0x0, symName: __ZNKSt3__15dequeIP5PointNS_9allocatorIS2_EEE13__deque_range5beginB8ue170006Ev, symObjAddr: 0x26058, symBinAddr: 0x10002977C, symSize: 0x24 }
  - { offsetInCU: 0x5775A, offset: 0x5775A, size: 0x8, addend: 0x0, symName: __ZNKSt3__15dequeIP5PointNS_9allocatorIS2_EEE13__deque_range3endB8ue170006Ev, symObjAddr: 0x2607C, symBinAddr: 0x1000297A0, symSize: 0x50 }
  - { offsetInCU: 0x57780, offset: 0x57780, size: 0x8, addend: 0x0, symName: __ZNKSt3__15dequeIP5PointNS_9allocatorIS2_EEE13__deque_rangedeB8ue170006Ev, symObjAddr: 0x26100, symBinAddr: 0x100029824, symSize: 0x7C }
  - { offsetInCU: 0x577BD, offset: 0x577BD, size: 0x8, addend: 0x0, symName: __ZNSt3__15dequeIP5PointNS_9allocatorIS2_EEE21_ConstructTransactionC1B8ue170006EPS5_RNS5_19__deque_block_rangeE, symObjAddr: 0x2617C, symBinAddr: 0x1000298A0, symSize: 0x3C }
  - { offsetInCU: 0x57805, offset: 0x57805, size: 0x8, addend: 0x0, symName: __ZNKSt3__116__deque_iteratorIP5PointPKS2_RS3_PKS4_lLl512EEdeB8ue170006Ev, symObjAddr: 0x261B8, symBinAddr: 0x1000298DC, symSize: 0x18 }
  - { offsetInCU: 0x5782B, offset: 0x5782B, size: 0x8, addend: 0x0, symName: __ZNSt3__116__deque_iteratorIP5PointPKS2_RS3_PKS4_lLl512EEppB8ue170006Ev, symObjAddr: 0x261D0, symBinAddr: 0x1000298F4, symSize: 0x70 }
  - { offsetInCU: 0x57851, offset: 0x57851, size: 0x8, addend: 0x0, symName: __ZNSt3__15dequeIP5PointNS_9allocatorIS2_EEE21_ConstructTransactionD1B8ue170006Ev, symObjAddr: 0x26240, symBinAddr: 0x100029964, symSize: 0x2C }
  - { offsetInCU: 0x5787B, offset: 0x5787B, size: 0x8, addend: 0x0, symName: __ZNSt3__15dequeIP5PointNS_9allocatorIS2_EEE13__deque_rangeppB8ue170006Ev, symObjAddr: 0x2626C, symBinAddr: 0x100029990, symSize: 0x64 }
  - { offsetInCU: 0x578A1, offset: 0x578A1, size: 0x8, addend: 0x0, symName: __ZNSt3__15dequeIP5PointNS_9allocatorIS2_EEE18__recommend_blocksB8ue170006Em, symObjAddr: 0x262D0, symBinAddr: 0x1000299F4, symSize: 0x40 }
  - { offsetInCU: 0x578C5, offset: 0x578C5, size: 0x8, addend: 0x0, symName: __ZNSt3__114__split_bufferIPP5PointRNS_9allocatorIS3_EEE4backB8ue170006Ev, symObjAddr: 0x26310, symBinAddr: 0x100029A34, symSize: 0x1C }
  - { offsetInCU: 0x578EB, offset: 0x578EB, size: 0x8, addend: 0x0, symName: __ZNSt3__114__split_bufferIPP5PointRNS_9allocatorIS3_EEE5beginB8ue170006Ev, symObjAddr: 0x2632C, symBinAddr: 0x100029A50, symSize: 0x18 }
  - { offsetInCU: 0x57911, offset: 0x57911, size: 0x8, addend: 0x0, symName: __ZNSt3__114__split_bufferIPP5PointRNS_9allocatorIS3_EEE3endB8ue170006Ev, symObjAddr: 0x26344, symBinAddr: 0x100029A68, symSize: 0x18 }
  - { offsetInCU: 0x57937, offset: 0x57937, size: 0x8, addend: 0x0, symName: __ZNSt3__114__split_bufferIPP5PointRNS_9allocatorIS3_EEE9push_backB8ue170006ERKS3_, symObjAddr: 0x2635C, symBinAddr: 0x100029A80, symSize: 0x260 }
  - { offsetInCU: 0x579AF, offset: 0x579AF, size: 0x8, addend: 0x0, symName: __ZNSt3__116__deque_iteratorIP5PointPS2_RS2_PS3_lLl512EEpLB8ue170006El, symObjAddr: 0x265BC, symBinAddr: 0x100029CE0, symSize: 0x110 }
  - { offsetInCU: 0x57A01, offset: 0x57A01, size: 0x8, addend: 0x0, symName: __ZNSt3__15dequeIP5PointNS_9allocatorIS2_EEE13__deque_rangeC2B8ue170006ENS_16__deque_iteratorIS2_PS2_RS2_PS8_lLl512EEESB_, symObjAddr: 0x266CC, symBinAddr: 0x100029DF0, symSize: 0x34 }
  - { offsetInCU: 0x57A49, offset: 0x57A49, size: 0x8, addend: 0x0, symName: __ZNSt3__15dequeIP5PointNS_9allocatorIS2_EEE19__deque_block_rangeC1B8ue170006EPS2_S7_, symObjAddr: 0x26730, symBinAddr: 0x100029E54, symSize: 0x3C }
  - { offsetInCU: 0x57A91, offset: 0x57A91, size: 0x8, addend: 0x0, symName: __ZNSt3__15dequeIP5PointNS_9allocatorIS2_EEE19__deque_block_rangeC2B8ue170006EPS2_S7_, symObjAddr: 0x2676C, symBinAddr: 0x100029E90, symSize: 0x2C }
  - { offsetInCU: 0x57AD9, offset: 0x57AD9, size: 0x8, addend: 0x0, symName: __ZNSt3__15dequeIP5PointNS_9allocatorIS2_EEE21_ConstructTransactionC2B8ue170006EPS5_RNS5_19__deque_block_rangeE, symObjAddr: 0x26798, symBinAddr: 0x100029EBC, symSize: 0x48 }
  - { offsetInCU: 0x57B21, offset: 0x57B21, size: 0x8, addend: 0x0, symName: __ZNSt3__15dequeIP5PointNS_9allocatorIS2_EEE21_ConstructTransactionD2B8ue170006Ev, symObjAddr: 0x267E0, symBinAddr: 0x100029F04, symSize: 0x5C }
  - { offsetInCU: 0x57B4B, offset: 0x57B4B, size: 0x8, addend: 0x0, symName: __ZNSt3__116__deque_iteratorIP5PointPKS2_RS3_PKS4_lLl512EEC1B8ue170006ES7_S4_, symObjAddr: 0x2697C, symBinAddr: 0x10002A0A0, symSize: 0x3C }
  - { offsetInCU: 0x57B93, offset: 0x57B93, size: 0x8, addend: 0x0, symName: __ZNSt3__116__deque_iteratorIP5PointPKS2_RS3_PKS4_lLl512EEC2B8ue170006ES7_S4_, symObjAddr: 0x269B8, symBinAddr: 0x10002A0DC, symSize: 0x2C }
  - { offsetInCU: 0x57BDA, offset: 0x57BDA, size: 0x8, addend: 0x0, symName: __Z12adapter_peekIP5PointNSt3__15dequeIS1_NS2_9allocatorIS1_EEEEEDTcldtfp_5frontEERKNS2_5queueIT_T0_EE, symObjAddr: 0x269E4, symBinAddr: 0x10002A108, symSize: 0x24 }
  - { offsetInCU: 0x57C19, offset: 0x57C19, size: 0x8, addend: 0x0, symName: __ZNKSt3__15queueIP5PointNS_5dequeIS2_NS_9allocatorIS2_EEEEE5frontB8ue170006Ev, symObjAddr: 0x26A08, symBinAddr: 0x10002A12C, symSize: 0x24 }
  - { offsetInCU: 0x57C3F, offset: 0x57C3F, size: 0x8, addend: 0x0, symName: __ZNKSt3__15dequeIP5PointNS_9allocatorIS2_EEE5frontEv, symObjAddr: 0x26A2C, symBinAddr: 0x10002A150, symSize: 0x50 }
  - { offsetInCU: 0x57C67, offset: 0x57C67, size: 0x8, addend: 0x0, symName: __ZNSt3__15queueIP5PointNS_5dequeIS2_NS_9allocatorIS2_EEEEEC2B8ue170006ERKS7_, symObjAddr: 0x26A7C, symBinAddr: 0x10002A1A0, symSize: 0x34 }
  - { offsetInCU: 0x57CA0, offset: 0x57CA0, size: 0x8, addend: 0x0, symName: __ZNSt3__15dequeIP5PointNS_9allocatorIS2_EEE5frontEv, symObjAddr: 0x26AB0, symBinAddr: 0x10002A1D4, symSize: 0x50 }
  - { offsetInCU: 0x57CC8, offset: 0x57CC8, size: 0x8, addend: 0x0, symName: __ZNSt3__15dequeIP5PointNS_9allocatorIS2_EEE4backEv, symObjAddr: 0x26B00, symBinAddr: 0x10002A224, symSize: 0x68 }
  - { offsetInCU: 0x57CFF, offset: 0x57CFF, size: 0x8, addend: 0x0, symName: __ZNSt3__15dequeIP5PointNS_9allocatorIS2_EEE9pop_frontEv, symObjAddr: 0x26B68, symBinAddr: 0x10002A28C, symSize: 0xD4 }
  - { offsetInCU: 0x57D54, offset: 0x57D54, size: 0x8, addend: 0x0, symName: __ZNKSt3__15dequeIP5PointNS_9allocatorIS2_EEE23__annotate_shrink_frontB8ue170006Emm, symObjAddr: 0x26C3C, symBinAddr: 0x10002A360, symSize: 0x70 }
  - { offsetInCU: 0x57D98, offset: 0x57D98, size: 0x8, addend: 0x0, symName: __ZNSt3__15dequeIP5PointNS_9allocatorIS2_EEE26__maybe_remove_front_spareB8ue170006Eb, symObjAddr: 0x26CAC, symBinAddr: 0x10002A3D0, symSize: 0xEC }
  - { offsetInCU: 0x57DCD, offset: 0x57DCD, size: 0x8, addend: 0x0, symName: __ZNKSt3__15dequeIP5PointNS_9allocatorIS2_EEE20__front_spare_blocksB8ue170006Ev, symObjAddr: 0x26D98, symBinAddr: 0x10002A4BC, symSize: 0x2C }
  - { offsetInCU: 0x57DF3, offset: 0x57DF3, size: 0x8, addend: 0x0, symName: __ZNSt3__114priority_queueIPKcNS_6vectorIS2_NS_9allocatorIS2_EEEENS_4lessIS2_EEEC2IPS2_vEET_SC_RKS8_, symObjAddr: 0x26DC4, symBinAddr: 0x10002A4E8, symSize: 0x90 }
  - { offsetInCU: 0x57E56, offset: 0x57E56, size: 0x8, addend: 0x0, symName: __ZNSt3__16vectorIPKcNS_9allocatorIS2_EEEC1IPS2_Li0EEET_S8_, symObjAddr: 0x26E54, symBinAddr: 0x10002A578, symSize: 0x3C }
  - { offsetInCU: 0x57EAF, offset: 0x57EAF, size: 0x8, addend: 0x0, symName: __ZNSt3__16vectorIPKcNS_9allocatorIS2_EEE5beginB8ue170006Ev, symObjAddr: 0x26ED0, symBinAddr: 0x10002A5F4, symSize: 0x30 }
  - { offsetInCU: 0x57ED7, offset: 0x57ED7, size: 0x8, addend: 0x0, symName: __ZNSt3__16vectorIPKcNS_9allocatorIS2_EEE3endB8ue170006Ev, symObjAddr: 0x26F00, symBinAddr: 0x10002A624, symSize: 0x30 }
  - { offsetInCU: 0x57EFF, offset: 0x57EFF, size: 0x8, addend: 0x0, symName: __ZNSt3__16vectorIPKcNS_9allocatorIS2_EEEC2IPS2_Li0EEET_S8_, symObjAddr: 0x26F30, symBinAddr: 0x10002A654, symSize: 0x74 }
  - { offsetInCU: 0x57F75, offset: 0x57F75, size: 0x8, addend: 0x0, symName: __ZNSt3__117__compressed_pairIPPKcNS_9allocatorIS2_EEEC1B8ue170006IDnNS_18__default_init_tagEEEOT_OT0_, symObjAddr: 0x26FA4, symBinAddr: 0x10002A6C8, symSize: 0x3C }
  - { offsetInCU: 0x57FCD, offset: 0x57FCD, size: 0x8, addend: 0x0, symName: __ZNSt3__16vectorIPKcNS_9allocatorIS2_EEE16__init_with_sizeB8ue170006IPS2_S7_EEvT_T0_m, symObjAddr: 0x2700C, symBinAddr: 0x10002A730, symSize: 0xB8 }
  - { offsetInCU: 0x58041, offset: 0x58041, size: 0x8, addend: 0x0, symName: __ZNSt3__117__compressed_pairIPPKcNS_9allocatorIS2_EEEC2B8ue170006IDnNS_18__default_init_tagEEEOT_OT0_, symObjAddr: 0x270C4, symBinAddr: 0x10002A7E8, symSize: 0x40 }
  - { offsetInCU: 0x58099, offset: 0x58099, size: 0x8, addend: 0x0, symName: __ZNSt3__122__compressed_pair_elemIPPKcLi0ELb0EEC2B8ue170006IDnvEEOT_, symObjAddr: 0x27104, symBinAddr: 0x10002A828, symSize: 0x1C }
  - { offsetInCU: 0x580DB, offset: 0x580DB, size: 0x8, addend: 0x0, symName: __ZNSt3__122__compressed_pair_elemINS_9allocatorIPKcEELi1ELb1EEC2B8ue170006ENS_18__default_init_tagE, symObjAddr: 0x27120, symBinAddr: 0x10002A844, symSize: 0x2C }
  - { offsetInCU: 0x58110, offset: 0x58110, size: 0x8, addend: 0x0, symName: __ZNSt3__19allocatorIPKcEC2B8ue170006Ev, symObjAddr: 0x2714C, symBinAddr: 0x10002A870, symSize: 0x2C }
  - { offsetInCU: 0x5813A, offset: 0x5813A, size: 0x8, addend: 0x0, symName: __ZNSt3__116__non_trivial_ifILb1ENS_9allocatorIPKcEEEC2B8ue170006Ev, symObjAddr: 0x27178, symBinAddr: 0x10002A89C, symSize: 0x14 }
  - { offsetInCU: 0x58164, offset: 0x58164, size: 0x8, addend: 0x0, symName: __ZNSt3__16vectorIPKcNS_9allocatorIS2_EEE11__vallocateB8ue170006Em, symObjAddr: 0x271F4, symBinAddr: 0x10002A918, symSize: 0xAC }
  - { offsetInCU: 0x581A8, offset: 0x581A8, size: 0x8, addend: 0x0, symName: __ZNSt3__16vectorIPKcNS_9allocatorIS2_EEE18__construct_at_endIPS2_S7_EEvT_T0_m, symObjAddr: 0x272A0, symBinAddr: 0x10002A9C4, symSize: 0x8C }
  - { offsetInCU: 0x5821E, offset: 0x5821E, size: 0x8, addend: 0x0, symName: __ZNSt3__128__exception_guard_exceptionsINS_6vectorIPKcNS_9allocatorIS3_EEE16__destroy_vectorEE10__completeB8ue170006Ev, symObjAddr: 0x2732C, symBinAddr: 0x10002AA50, symSize: 0x1C }
  - { offsetInCU: 0x58244, offset: 0x58244, size: 0x8, addend: 0x0, symName: __ZNSt3__128__exception_guard_exceptionsINS_6vectorIPKcNS_9allocatorIS3_EEE16__destroy_vectorEED1B8ue170006Ev, symObjAddr: 0x27348, symBinAddr: 0x10002AA6C, symSize: 0x2C }
  - { offsetInCU: 0x5826E, offset: 0x5826E, size: 0x8, addend: 0x0, symName: __ZNSt3__128__exception_guard_exceptionsINS_6vectorIPKcNS_9allocatorIS3_EEE16__destroy_vectorEEC1B8ue170006ES7_, symObjAddr: 0x27374, symBinAddr: 0x10002AA98, symSize: 0x34 }
  - { offsetInCU: 0x582A6, offset: 0x582A6, size: 0x8, addend: 0x0, symName: __ZNSt3__128__exception_guard_exceptionsINS_6vectorIPKcNS_9allocatorIS3_EEE16__destroy_vectorEEC2B8ue170006ES7_, symObjAddr: 0x273A8, symBinAddr: 0x10002AACC, symSize: 0x24 }
  - { offsetInCU: 0x582DE, offset: 0x582DE, size: 0x8, addend: 0x0, symName: __ZNKSt3__16vectorIPKcNS_9allocatorIS2_EEE8max_sizeEv, symObjAddr: 0x273CC, symBinAddr: 0x10002AAF0, symSize: 0x60 }
  - { offsetInCU: 0x58306, offset: 0x58306, size: 0x8, addend: 0x0, symName: __ZNKSt3__16vectorIPKcNS_9allocatorIS2_EEE20__throw_length_errorB8ue170006Ev, symObjAddr: 0x2742C, symBinAddr: 0x10002AB50, symSize: 0x1C }
  - { offsetInCU: 0x5832C, offset: 0x5832C, size: 0x8, addend: 0x0, symName: __ZNSt3__16vectorIPKcNS_9allocatorIS2_EEE9__end_capB8ue170006Ev, symObjAddr: 0x27488, symBinAddr: 0x10002ABAC, symSize: 0x28 }
  - { offsetInCU: 0x58352, offset: 0x58352, size: 0x8, addend: 0x0, symName: __ZNKSt3__16vectorIPKcNS_9allocatorIS2_EEE14__annotate_newB8ue170006Em, symObjAddr: 0x274B0, symBinAddr: 0x10002ABD4, symSize: 0xAC }
  - { offsetInCU: 0x58392, offset: 0x58392, size: 0x8, addend: 0x0, symName: __ZNSt3__116allocator_traitsINS_9allocatorIPKcEEE8max_sizeB8ue170006IS4_vEEmRKS4_, symObjAddr: 0x2755C, symBinAddr: 0x10002AC80, symSize: 0x24 }
  - { offsetInCU: 0x583C0, offset: 0x583C0, size: 0x8, addend: 0x0, symName: __ZNKSt3__16vectorIPKcNS_9allocatorIS2_EEE7__allocB8ue170006Ev, symObjAddr: 0x27580, symBinAddr: 0x10002ACA4, symSize: 0x28 }
  - { offsetInCU: 0x583E6, offset: 0x583E6, size: 0x8, addend: 0x0, symName: __ZNKSt3__19allocatorIPKcE8max_sizeB8ue170006Ev, symObjAddr: 0x275A8, symBinAddr: 0x10002ACCC, symSize: 0x14 }
  - { offsetInCU: 0x5840C, offset: 0x5840C, size: 0x8, addend: 0x0, symName: __ZNKSt3__117__compressed_pairIPPKcNS_9allocatorIS2_EEE6secondB8ue170006Ev, symObjAddr: 0x275BC, symBinAddr: 0x10002ACE0, symSize: 0x24 }
  - { offsetInCU: 0x58432, offset: 0x58432, size: 0x8, addend: 0x0, symName: __ZNKSt3__122__compressed_pair_elemINS_9allocatorIPKcEELi1ELb1EE5__getB8ue170006Ev, symObjAddr: 0x275E0, symBinAddr: 0x10002AD04, symSize: 0x14 }
  - { offsetInCU: 0x58458, offset: 0x58458, size: 0x8, addend: 0x0, symName: __ZNSt3__19allocatorIPKcE8allocateB8ue170006Em, symObjAddr: 0x275F4, symBinAddr: 0x10002AD18, symSize: 0x58 }
  - { offsetInCU: 0x5848C, offset: 0x5848C, size: 0x8, addend: 0x0, symName: __ZNSt3__117__compressed_pairIPPKcNS_9allocatorIS2_EEE5firstB8ue170006Ev, symObjAddr: 0x2764C, symBinAddr: 0x10002AD70, symSize: 0x24 }
  - { offsetInCU: 0x584B2, offset: 0x584B2, size: 0x8, addend: 0x0, symName: __ZNSt3__122__compressed_pair_elemIPPKcLi0ELb0EE5__getB8ue170006Ev, symObjAddr: 0x27670, symBinAddr: 0x10002AD94, symSize: 0x14 }
  - { offsetInCU: 0x584F4, offset: 0x584F4, size: 0x8, addend: 0x0, symName: __ZNSt3__16vectorIPKcNS_9allocatorIS2_EEE21_ConstructTransactionC1B8ue170006ERS5_m, symObjAddr: 0x27684, symBinAddr: 0x10002ADA8, symSize: 0x3C }
  - { offsetInCU: 0x5853C, offset: 0x5853C, size: 0x8, addend: 0x0, symName: __ZNSt3__16vectorIPKcNS_9allocatorIS2_EEE21_ConstructTransactionD1B8ue170006Ev, symObjAddr: 0x27740, symBinAddr: 0x10002AE64, symSize: 0x2C }
  - { offsetInCU: 0x58566, offset: 0x58566, size: 0x8, addend: 0x0, symName: __ZNSt3__16vectorIPKcNS_9allocatorIS2_EEE21_ConstructTransactionC2B8ue170006ERS5_m, symObjAddr: 0x2776C, symBinAddr: 0x10002AE90, symSize: 0x44 }
  - { offsetInCU: 0x585D1, offset: 0x585D1, size: 0x8, addend: 0x0, symName: __ZNSt3__14pairIPPKcS3_EC1B8ue170006IS3_S3_LPv0EEEOT_OT0_, symObjAddr: 0x278E0, symBinAddr: 0x10002B004, symSize: 0x3C }
  - { offsetInCU: 0x5862F, offset: 0x5862F, size: 0x8, addend: 0x0, symName: __ZNSt3__14pairIPPKcS3_EC2B8ue170006IS3_S3_LPv0EEEOT_OT0_, symObjAddr: 0x2791C, symBinAddr: 0x10002B040, symSize: 0x34 }
  - { offsetInCU: 0x5868D, offset: 0x5868D, size: 0x8, addend: 0x0, symName: __ZNKSt3__114__copy_trivialclB8ue170006IPKcS3_Li0EEENS_4pairIPT_PT0_EES6_S6_S8_, symObjAddr: 0x27ACC, symBinAddr: 0x10002B1F0, symSize: 0x48 }
  - { offsetInCU: 0x586F5, offset: 0x586F5, size: 0x8, addend: 0x0, symName: __ZNSt3__14pairIPPKcS3_EC1B8ue170006IRS3_S3_LPv0EEEOT_OT0_, symObjAddr: 0x27C5C, symBinAddr: 0x10002B380, symSize: 0x3C }
  - { offsetInCU: 0x58753, offset: 0x58753, size: 0x8, addend: 0x0, symName: __ZNSt3__14pairIPPKcS3_EC2B8ue170006IRS3_S3_LPv0EEEOT_OT0_, symObjAddr: 0x27C98, symBinAddr: 0x10002B3BC, symSize: 0x34 }
  - { offsetInCU: 0x587B1, offset: 0x587B1, size: 0x8, addend: 0x0, symName: __ZNSt3__118__unwrap_iter_implIPPKcLb1EE8__unwrapB8ue170006ES3_, symObjAddr: 0x27CCC, symBinAddr: 0x10002B3F0, symSize: 0x24 }
  - { offsetInCU: 0x587D4, offset: 0x587D4, size: 0x8, addend: 0x0, symName: __ZNSt3__118__unwrap_iter_implIPPKcLb1EE8__rewrapB8ue170006ES3_S3_, symObjAddr: 0x27CF0, symBinAddr: 0x10002B414, symSize: 0x50 }
  - { offsetInCU: 0x58805, offset: 0x58805, size: 0x8, addend: 0x0, symName: __ZNSt3__16vectorIPKcNS_9allocatorIS2_EEE21_ConstructTransactionD2B8ue170006Ev, symObjAddr: 0x27D40, symBinAddr: 0x10002B464, symSize: 0x20 }
  - { offsetInCU: 0x5882F, offset: 0x5882F, size: 0x8, addend: 0x0, symName: __ZNSt3__128__exception_guard_exceptionsINS_6vectorIPKcNS_9allocatorIS3_EEE16__destroy_vectorEED2B8ue170006Ev, symObjAddr: 0x27D60, symBinAddr: 0x10002B484, symSize: 0x48 }
  - { offsetInCU: 0x58859, offset: 0x58859, size: 0x8, addend: 0x0, symName: __ZNKSt3__111__wrap_iterIPPKcEplB8ue170006El, symObjAddr: 0x281A0, symBinAddr: 0x10002B8C4, symSize: 0x3C }
  - { offsetInCU: 0x5889B, offset: 0x5889B, size: 0x8, addend: 0x0, symName: __ZNKSt3__111__wrap_iterIPPKcE4baseB8ue170006Ev, symObjAddr: 0x281DC, symBinAddr: 0x10002B900, symSize: 0x18 }
  - { offsetInCU: 0x588C1, offset: 0x588C1, size: 0x8, addend: 0x0, symName: __ZNKSt3__14lessIPKcEclB8ue170006ERKS2_S5_, symObjAddr: 0x281F4, symBinAddr: 0x10002B918, symSize: 0x34 }
  - { offsetInCU: 0x58905, offset: 0x58905, size: 0x8, addend: 0x0, symName: __ZNKSt3__111__wrap_iterIPPKcEdeB8ue170006Ev, symObjAddr: 0x28228, symBinAddr: 0x10002B94C, symSize: 0x18 }
  - { offsetInCU: 0x5892B, offset: 0x5892B, size: 0x8, addend: 0x0, symName: __ZNSt3__111__wrap_iterIPPKcEppB8ue170006Ev, symObjAddr: 0x28240, symBinAddr: 0x10002B964, symSize: 0x20 }
  - { offsetInCU: 0x58951, offset: 0x58951, size: 0x8, addend: 0x0, symName: __ZNSt3__18_IterOpsINS_17_ClassicAlgPolicyEE11__iter_moveB8ue170006IRNS_11__wrap_iterIPPKcEEEENS_9enable_ifIXsr12is_referenceIDTdeclsr3stdE7declvalIRT_EEEEE5valueEDTclsr3stdE4movedeclsr3stdE7declvalISC_EEEEE4typeEOSB_, symObjAddr: 0x28260, symBinAddr: 0x10002B984, symSize: 0x28 }
  - { offsetInCU: 0x5897D, offset: 0x5897D, size: 0x8, addend: 0x0, symName: __ZNSt3__18_IterOpsINS_17_ClassicAlgPolicyEE25__validate_iter_referenceB8ue170006IRNS_11__wrap_iterIPPKcEEEEvv, symObjAddr: 0x28288, symBinAddr: 0x10002B9AC, symSize: 0x4 }
  - { offsetInCU: 0x5899B, offset: 0x5899B, size: 0x8, addend: 0x0, symName: __ZNSt3__111__wrap_iterIPPKcEpLB8ue170006El, symObjAddr: 0x2828C, symBinAddr: 0x10002B9B0, symSize: 0x28 }
  - { offsetInCU: 0x589CF, offset: 0x589CF, size: 0x8, addend: 0x0, symName: __ZNSt3__16vectorIPKcNS_9allocatorIS2_EEE11__make_iterB8ue170006EPS2_, symObjAddr: 0x282B4, symBinAddr: 0x10002B9D8, symSize: 0x30 }
  - { offsetInCU: 0x58A04, offset: 0x58A04, size: 0x8, addend: 0x0, symName: __ZNSt3__111__wrap_iterIPPKcEC1B8ue170006ES3_, symObjAddr: 0x282E4, symBinAddr: 0x10002BA08, symSize: 0x34 }
  - { offsetInCU: 0x58A3C, offset: 0x58A3C, size: 0x8, addend: 0x0, symName: __ZNSt3__111__wrap_iterIPPKcEC2B8ue170006ES3_, symObjAddr: 0x28318, symBinAddr: 0x10002BA3C, symSize: 0x20 }
  - { offsetInCU: 0x58A74, offset: 0x58A74, size: 0x8, addend: 0x0, symName: __ZNKSt3__114priority_queueIPKcNS_6vectorIS2_NS_9allocatorIS2_EEEENS_4lessIS2_EEE5emptyB8ue170006Ev, symObjAddr: 0x28338, symBinAddr: 0x10002BA5C, symSize: 0x28 }
  - { offsetInCU: 0x58A99, offset: 0x58A99, size: 0x8, addend: 0x0, symName: __Z12adapter_peekIPKcNSt3__16vectorIS1_NS2_9allocatorIS1_EEEENS2_4lessIS1_EEEDTcldtfp_3topEERKNS2_14priority_queueIT_T0_T1_EE, symObjAddr: 0x28360, symBinAddr: 0x10002BA84, symSize: 0x24 }
  - { offsetInCU: 0x58AE1, offset: 0x58AE1, size: 0x8, addend: 0x0, symName: __ZNSt3__114priority_queueIPKcNS_6vectorIS2_NS_9allocatorIS2_EEEENS_4lessIS2_EEE3popEv, symObjAddr: 0x283B8, symBinAddr: 0x10002BADC, symSize: 0x50 }
  - { offsetInCU: 0x58B09, offset: 0x58B09, size: 0x8, addend: 0x0, symName: __ZNKSt3__16vectorIPKcNS_9allocatorIS2_EEE5emptyB8ue170006Ev, symObjAddr: 0x28408, symBinAddr: 0x10002BB2C, symSize: 0x28 }
  - { offsetInCU: 0x58B2F, offset: 0x58B2F, size: 0x8, addend: 0x0, symName: __ZNKSt3__114priority_queueIPKcNS_6vectorIS2_NS_9allocatorIS2_EEEENS_4lessIS2_EEE3topB8ue170006Ev, symObjAddr: 0x28430, symBinAddr: 0x10002BB54, symSize: 0x24 }
  - { offsetInCU: 0x58B55, offset: 0x58B55, size: 0x8, addend: 0x0, symName: __ZNKSt3__16vectorIPKcNS_9allocatorIS2_EEE5frontB8ue170006Ev, symObjAddr: 0x28454, symBinAddr: 0x10002BB78, symSize: 0x18 }
  - { offsetInCU: 0x58B7B, offset: 0x58B7B, size: 0x8, addend: 0x0, symName: __ZNSt3__16vectorIPKcNS_9allocatorIS2_EEE8pop_backEv, symObjAddr: 0x284C4, symBinAddr: 0x10002BBE8, symSize: 0x2C }
  - { offsetInCU: 0x58BA3, offset: 0x58BA3, size: 0x8, addend: 0x0, symName: __ZNSt3__111__wrap_iterIPPKcEmmB8ue170006Ev, symObjAddr: 0x28780, symBinAddr: 0x10002BEA4, symSize: 0x20 }
  - { offsetInCU: 0x58BC9, offset: 0x58BC9, size: 0x8, addend: 0x0, symName: __ZNSt3__16vectorIPKcNS_9allocatorIS2_EEE17__destruct_at_endB8ue170006EPS2_, symObjAddr: 0x28950, symBinAddr: 0x10002C074, symSize: 0x4C }
  - { offsetInCU: 0x58C0D, offset: 0x58C0D, size: 0x8, addend: 0x0, symName: __ZNKSt3__16vectorIPKcNS_9allocatorIS2_EEE17__annotate_shrinkB8ue170006Em, symObjAddr: 0x2899C, symBinAddr: 0x10002C0C0, symSize: 0xB4 }
  - { offsetInCU: 0x58C42, offset: 0x58C42, size: 0x8, addend: 0x0, symName: __ZNSt3__114priority_queueIPKcNS_6vectorIS2_NS_9allocatorIS2_EEEENS_4lessIS2_EEEC2B8ue170006ERKS9_, symObjAddr: 0x28A50, symBinAddr: 0x10002C174, symSize: 0x34 }
  - { offsetInCU: 0x58C7B, offset: 0x58C7B, size: 0x8, addend: 0x0, symName: __ZNSt3__16vectorIPKcNS_9allocatorIS2_EEEC1ERKS5_, symObjAddr: 0x28A84, symBinAddr: 0x10002C1A8, symSize: 0x34 }
  - { offsetInCU: 0x58CB6, offset: 0x58CB6, size: 0x8, addend: 0x0, symName: __ZNSt3__16vectorIPKcNS_9allocatorIS2_EEEC2ERKS5_, symObjAddr: 0x28AB8, symBinAddr: 0x10002C1DC, symSize: 0x94 }
  - { offsetInCU: 0x58CF1, offset: 0x58CF1, size: 0x8, addend: 0x0, symName: __ZNSt3__116allocator_traitsINS_9allocatorIPKcEEE37select_on_container_copy_constructionB8ue170006IS4_vvEES4_RKS4_, symObjAddr: 0x28B4C, symBinAddr: 0x10002C270, symSize: 0x10 }
  - { offsetInCU: 0x58D26, offset: 0x58D26, size: 0x8, addend: 0x0, symName: __ZNSt3__117__compressed_pairIPPKcNS_9allocatorIS2_EEEC1B8ue170006IDnS5_EEOT_OT0_, symObjAddr: 0x28B5C, symBinAddr: 0x10002C280, symSize: 0x3C }
  - { offsetInCU: 0x58D7E, offset: 0x58D7E, size: 0x8, addend: 0x0, symName: __ZNSt3__117__compressed_pairIPPKcNS_9allocatorIS2_EEEC2B8ue170006IDnS5_EEOT_OT0_, symObjAddr: 0x28B98, symBinAddr: 0x10002C2BC, symSize: 0x44 }
  - { offsetInCU: 0x58DD6, offset: 0x58DD6, size: 0x8, addend: 0x0, symName: __ZNSt3__122__compressed_pair_elemINS_9allocatorIPKcEELi1ELb1EEC2B8ue170006IS4_vEEOT_, symObjAddr: 0x28BDC, symBinAddr: 0x10002C300, symSize: 0x18 }
  - { offsetInCU: 0x58E18, offset: 0x58E18, size: 0x8, addend: 0x0, symName: '__ZNSt3__114priority_queueIPKcNS_6vectorIS2_NS_9allocatorIS2_EEEEZ4mainE3$_1EC2IPS2_vEET_SB_RKS7_', symObjAddr: 0x28BF4, symBinAddr: 0x10002C318, symSize: 0x90 }
  - { offsetInCU: 0x58E86, offset: 0x58E86, size: 0x8, addend: 0x0, symName: '__ZZ4mainENK3$_1clEPKcS1_', symObjAddr: 0x29090, symBinAddr: 0x10002C7B4, symSize: 0x3C }
  - { offsetInCU: 0x58ECC, offset: 0x58ECC, size: 0x8, addend: 0x0, symName: '__ZNKSt3__114priority_queueIPKcNS_6vectorIS2_NS_9allocatorIS2_EEEEZ4mainE3$_1E5emptyB8ue170006Ev', symObjAddr: 0x290CC, symBinAddr: 0x10002C7F0, symSize: 0x28 }
  - { offsetInCU: 0x58EF1, offset: 0x58EF1, size: 0x8, addend: 0x0, symName: '__Z12adapter_peekIPKcNSt3__16vectorIS1_NS2_9allocatorIS1_EEEEZ4mainE3$_1EDTcldtfp_3topEERKNS2_14priority_queueIT_T0_T1_EE', symObjAddr: 0x290F4, symBinAddr: 0x10002C818, symSize: 0x24 }
  - { offsetInCU: 0x58F39, offset: 0x58F39, size: 0x8, addend: 0x0, symName: '__ZNSt3__114priority_queueIPKcNS_6vectorIS2_NS_9allocatorIS2_EEEEZ4mainE3$_1E3popEv', symObjAddr: 0x29118, symBinAddr: 0x10002C83C, symSize: 0x50 }
  - { offsetInCU: 0x58F61, offset: 0x58F61, size: 0x8, addend: 0x0, symName: '__ZNKSt3__114priority_queueIPKcNS_6vectorIS2_NS_9allocatorIS2_EEEEZ4mainE3$_1E3topB8ue170006Ev', symObjAddr: 0x29168, symBinAddr: 0x10002C88C, symSize: 0x24 }
  - { offsetInCU: 0x58F87, offset: 0x58F87, size: 0x8, addend: 0x0, symName: '__ZNSt3__114priority_queueIPKcNS_6vectorIS2_NS_9allocatorIS2_EEEEZ4mainE3$_1EC2B8ue170006ERKS8_', symObjAddr: 0x295F0, symBinAddr: 0x10002CD14, symSize: 0x34 }
  - { offsetInCU: 0x58FC0, offset: 0x58FC0, size: 0x8, addend: 0x0, symName: __ZNSt3__13setI5PointNS_4lessIS1_EENS_9allocatorIS1_EEEC2B8ue170006Ev, symObjAddr: 0x29624, symBinAddr: 0x10002CD48, symSize: 0x30 }
  - { offsetInCU: 0x58FEA, offset: 0x58FEA, size: 0x8, addend: 0x0, symName: __ZNSt3__16__treeI5PointNS_4lessIS1_EENS_9allocatorIS1_EEEC1ERKS3_, symObjAddr: 0x29654, symBinAddr: 0x10002CD78, symSize: 0x34 }
  - { offsetInCU: 0x59025, offset: 0x59025, size: 0x8, addend: 0x0, symName: __ZNSt3__16__treeI5PointNS_4lessIS1_EENS_9allocatorIS1_EEEC2ERKS3_, symObjAddr: 0x29688, symBinAddr: 0x10002CDAC, symSize: 0x7C }
  - { offsetInCU: 0x59060, offset: 0x59060, size: 0x8, addend: 0x0, symName: __ZNSt3__117__compressed_pairINS_15__tree_end_nodeIPNS_16__tree_node_baseIPvEEEENS_9allocatorINS_11__tree_nodeI5PointS3_EEEEEC1B8ue170006ILb1EvEEv, symObjAddr: 0x29704, symBinAddr: 0x10002CE28, symSize: 0x2C }
  - { offsetInCU: 0x59095, offset: 0x59095, size: 0x8, addend: 0x0, symName: __ZNSt3__117__compressed_pairImNS_4lessI5PointEEEC1B8ue170006IiRKS3_EEOT_OT0_, symObjAddr: 0x29730, symBinAddr: 0x10002CE54, symSize: 0x3C }
  - { offsetInCU: 0x590ED, offset: 0x590ED, size: 0x8, addend: 0x0, symName: __ZNSt3__16__treeI5PointNS_4lessIS1_EENS_9allocatorIS1_EEE10__end_nodeB8ue170006Ev, symObjAddr: 0x2976C, symBinAddr: 0x10002CE90, symSize: 0x2C }
  - { offsetInCU: 0x59113, offset: 0x59113, size: 0x8, addend: 0x0, symName: __ZNSt3__16__treeI5PointNS_4lessIS1_EENS_9allocatorIS1_EEE12__begin_nodeB8ue170006Ev, symObjAddr: 0x29798, symBinAddr: 0x10002CEBC, symSize: 0x14 }
  - { offsetInCU: 0x59139, offset: 0x59139, size: 0x8, addend: 0x0, symName: __ZNSt3__117__compressed_pairINS_15__tree_end_nodeIPNS_16__tree_node_baseIPvEEEENS_9allocatorINS_11__tree_nodeI5PointS3_EEEEEC2B8ue170006ILb1EvEEv, symObjAddr: 0x297AC, symBinAddr: 0x10002CED0, symSize: 0x34 }
  - { offsetInCU: 0x5916E, offset: 0x5916E, size: 0x8, addend: 0x0, symName: __ZNSt3__122__compressed_pair_elemINS_15__tree_end_nodeIPNS_16__tree_node_baseIPvEEEELi0ELb0EEC2B8ue170006ENS_16__value_init_tagE, symObjAddr: 0x297E0, symBinAddr: 0x10002CF04, symSize: 0x2C }
  - { offsetInCU: 0x591A3, offset: 0x591A3, size: 0x8, addend: 0x0, symName: __ZNSt3__122__compressed_pair_elemINS_9allocatorINS_11__tree_nodeI5PointPvEEEELi1ELb1EEC2B8ue170006ENS_16__value_init_tagE, symObjAddr: 0x2980C, symBinAddr: 0x10002CF30, symSize: 0x2C }
  - { offsetInCU: 0x591D8, offset: 0x591D8, size: 0x8, addend: 0x0, symName: __ZNSt3__115__tree_end_nodeIPNS_16__tree_node_baseIPvEEEC1B8ue170006Ev, symObjAddr: 0x29838, symBinAddr: 0x10002CF5C, symSize: 0x2C }
  - { offsetInCU: 0x59202, offset: 0x59202, size: 0x8, addend: 0x0, symName: __ZNSt3__115__tree_end_nodeIPNS_16__tree_node_baseIPvEEEC2B8ue170006Ev, symObjAddr: 0x29864, symBinAddr: 0x10002CF88, symSize: 0x18 }
  - { offsetInCU: 0x5922C, offset: 0x5922C, size: 0x8, addend: 0x0, symName: __ZNSt3__19allocatorINS_11__tree_nodeI5PointPvEEEC2B8ue170006Ev, symObjAddr: 0x2987C, symBinAddr: 0x10002CFA0, symSize: 0x2C }
  - { offsetInCU: 0x59256, offset: 0x59256, size: 0x8, addend: 0x0, symName: __ZNSt3__116__non_trivial_ifILb1ENS_9allocatorINS_11__tree_nodeI5PointPvEEEEEC2B8ue170006Ev, symObjAddr: 0x298A8, symBinAddr: 0x10002CFCC, symSize: 0x14 }
  - { offsetInCU: 0x59280, offset: 0x59280, size: 0x8, addend: 0x0, symName: __ZNSt3__117__compressed_pairImNS_4lessI5PointEEEC2B8ue170006IiRKS3_EEOT_OT0_, symObjAddr: 0x298BC, symBinAddr: 0x10002CFE0, symSize: 0x44 }
  - { offsetInCU: 0x592D8, offset: 0x592D8, size: 0x8, addend: 0x0, symName: __ZNSt3__122__compressed_pair_elemINS_4lessI5PointEELi1ELb1EEC2B8ue170006IRKS3_vEEOT_, symObjAddr: 0x29900, symBinAddr: 0x10002D024, symSize: 0x18 }
  - { offsetInCU: 0x5931A, offset: 0x5931A, size: 0x8, addend: 0x0, symName: __ZNSt3__114pointer_traitsIPNS_15__tree_end_nodeIPNS_16__tree_node_baseIPvEEEEE10pointer_toB8ue170006ERS6_, symObjAddr: 0x29918, symBinAddr: 0x10002D03C, symSize: 0x14 }
  - { offsetInCU: 0x5933D, offset: 0x5933D, size: 0x8, addend: 0x0, symName: __ZNSt3__117__compressed_pairINS_15__tree_end_nodeIPNS_16__tree_node_baseIPvEEEENS_9allocatorINS_11__tree_nodeI5PointS3_EEEEE5firstB8ue170006Ev, symObjAddr: 0x2992C, symBinAddr: 0x10002D050, symSize: 0x24 }
  - { offsetInCU: 0x59363, offset: 0x59363, size: 0x8, addend: 0x0, symName: __ZNSt3__122__compressed_pair_elemINS_15__tree_end_nodeIPNS_16__tree_node_baseIPvEEEELi0ELb0EE5__getB8ue170006Ev, symObjAddr: 0x29950, symBinAddr: 0x10002D074, symSize: 0x14 }
  - { offsetInCU: 0x59389, offset: 0x59389, size: 0x8, addend: 0x0, symName: __ZNSt3__13setI5PointNS_4lessIS1_EENS_9allocatorIS1_EEED2B8ue170006Ev, symObjAddr: 0x29964, symBinAddr: 0x10002D088, symSize: 0x2C }
  - { offsetInCU: 0x593B3, offset: 0x593B3, size: 0x8, addend: 0x0, symName: __ZNSt3__16__treeI5PointNS_4lessIS1_EENS_9allocatorIS1_EEED1Ev, symObjAddr: 0x29990, symBinAddr: 0x10002D0B4, symSize: 0x2C }
  - { offsetInCU: 0x593DF, offset: 0x593DF, size: 0x8, addend: 0x0, symName: __ZNSt3__16__treeI5PointNS_4lessIS1_EENS_9allocatorIS1_EEED2Ev, symObjAddr: 0x299BC, symBinAddr: 0x10002D0E0, symSize: 0x38 }
  - { offsetInCU: 0x5940B, offset: 0x5940B, size: 0x8, addend: 0x0, symName: __ZNSt3__16__treeI5PointNS_4lessIS1_EENS_9allocatorIS1_EEE7destroyEPNS_11__tree_nodeIS1_PvEE, symObjAddr: 0x299F4, symBinAddr: 0x10002D118, symSize: 0xAC }
  - { offsetInCU: 0x59457, offset: 0x59457, size: 0x8, addend: 0x0, symName: __ZNKSt3__16__treeI5PointNS_4lessIS1_EENS_9allocatorIS1_EEE6__rootB8ue170006Ev, symObjAddr: 0x29AA0, symBinAddr: 0x10002D1C4, symSize: 0x28 }
  - { offsetInCU: 0x5947D, offset: 0x5947D, size: 0x8, addend: 0x0, symName: __ZNSt3__16__treeI5PointNS_4lessIS1_EENS_9allocatorIS1_EEE12__node_allocB8ue170006Ev, symObjAddr: 0x29AC8, symBinAddr: 0x10002D1EC, symSize: 0x28 }
  - { offsetInCU: 0x594A3, offset: 0x594A3, size: 0x8, addend: 0x0, symName: __ZNSt3__116allocator_traitsINS_9allocatorINS_11__tree_nodeI5PointPvEEEEE7destroyB8ue170006IS3_vvEEvRS6_PT_, symObjAddr: 0x29AF0, symBinAddr: 0x10002D214, symSize: 0x14 }
  - { offsetInCU: 0x594DE, offset: 0x594DE, size: 0x8, addend: 0x0, symName: __ZNSt3__122__tree_key_value_typesI5PointE9__get_ptrB8ue170006ERS1_, symObjAddr: 0x29B04, symBinAddr: 0x10002D228, symSize: 0x14 }
  - { offsetInCU: 0x59502, offset: 0x59502, size: 0x8, addend: 0x0, symName: __ZNSt3__116allocator_traitsINS_9allocatorINS_11__tree_nodeI5PointPvEEEEE10deallocateB8ue170006ERS6_PS5_m, symObjAddr: 0x29B18, symBinAddr: 0x10002D23C, symSize: 0x34 }
  - { offsetInCU: 0x59544, offset: 0x59544, size: 0x8, addend: 0x0, symName: __ZNSt3__117__compressed_pairINS_15__tree_end_nodeIPNS_16__tree_node_baseIPvEEEENS_9allocatorINS_11__tree_nodeI5PointS3_EEEEE6secondB8ue170006Ev, symObjAddr: 0x29B4C, symBinAddr: 0x10002D270, symSize: 0x24 }
  - { offsetInCU: 0x5956A, offset: 0x5956A, size: 0x8, addend: 0x0, symName: __ZNSt3__122__compressed_pair_elemINS_9allocatorINS_11__tree_nodeI5PointPvEEEELi1ELb1EE5__getB8ue170006Ev, symObjAddr: 0x29B70, symBinAddr: 0x10002D294, symSize: 0x14 }
  - { offsetInCU: 0x59590, offset: 0x59590, size: 0x8, addend: 0x0, symName: __ZNSt3__19allocatorINS_11__tree_nodeI5PointPvEEE10deallocateB8ue170006EPS4_m, symObjAddr: 0x29B84, symBinAddr: 0x10002D2A8, symSize: 0x44 }
  - { offsetInCU: 0x595D2, offset: 0x595D2, size: 0x8, addend: 0x0, symName: __ZNKSt3__16__treeI5PointNS_4lessIS1_EENS_9allocatorIS1_EEE10__end_nodeB8ue170006Ev, symObjAddr: 0x29BC8, symBinAddr: 0x10002D2EC, symSize: 0x2C }
  - { offsetInCU: 0x595F8, offset: 0x595F8, size: 0x8, addend: 0x0, symName: __ZNKSt3__117__compressed_pairINS_15__tree_end_nodeIPNS_16__tree_node_baseIPvEEEENS_9allocatorINS_11__tree_nodeI5PointS3_EEEEE5firstB8ue170006Ev, symObjAddr: 0x29BF4, symBinAddr: 0x10002D318, symSize: 0x24 }
  - { offsetInCU: 0x5961E, offset: 0x5961E, size: 0x8, addend: 0x0, symName: __ZNKSt3__122__compressed_pair_elemINS_15__tree_end_nodeIPNS_16__tree_node_baseIPvEEEELi0ELb0EE5__getB8ue170006Ev, symObjAddr: 0x29C18, symBinAddr: 0x10002D33C, symSize: 0x14 }
  - { offsetInCU: 0x59644, offset: 0x59644, size: 0x8, addend: 0x0, symName: __ZNSt3__16__treeI5PointNS_4lessIS1_EENS_9allocatorIS1_EEE15__insert_uniqueB8ue170006EOS1_, symObjAddr: 0x29C2C, symBinAddr: 0x10002D350, symSize: 0x50 }
  - { offsetInCU: 0x59679, offset: 0x59679, size: 0x8, addend: 0x0, symName: __ZNSt3__14pairINS_21__tree_const_iteratorI5PointPNS_11__tree_nodeIS2_PvEElEEbEC1B8ue170006INS_15__tree_iteratorIS2_S6_lEEbLS4_0EEEONS0_IT_T0_EE, symObjAddr: 0x29C7C, symBinAddr: 0x10002D3A0, symSize: 0x34 }
  - { offsetInCU: 0x596D0, offset: 0x596D0, size: 0x8, addend: 0x0, symName: __ZNSt3__16__treeI5PointNS_4lessIS1_EENS_9allocatorIS1_EEE25__emplace_unique_key_argsIS1_JS1_EEENS_4pairINS_15__tree_iteratorIS1_PNS_11__tree_nodeIS1_PvEElEEbEERKT_DpOT0_, symObjAddr: 0x29CB0, symBinAddr: 0x10002D3D4, symSize: 0xF0 }
  - { offsetInCU: 0x5977C, offset: 0x5977C, size: 0x8, addend: 0x0, symName: __ZNSt3__122__tree_key_value_typesI5PointE9__get_keyB8ue170006ERKS1_, symObjAddr: 0x29DA0, symBinAddr: 0x10002D4C4, symSize: 0x14 }
  - { offsetInCU: 0x597A0, offset: 0x597A0, size: 0x8, addend: 0x0, symName: __ZNSt3__16__treeI5PointNS_4lessIS1_EENS_9allocatorIS1_EEE12__find_equalIS1_EERPNS_16__tree_node_baseIPvEERPNS_15__tree_end_nodeISB_EERKT_, symObjAddr: 0x29DB4, symBinAddr: 0x10002D4D8, symSize: 0x184 }
  - { offsetInCU: 0x5980D, offset: 0x5980D, size: 0x8, addend: 0x0, symName: __ZNSt3__16__treeI5PointNS_4lessIS1_EENS_9allocatorIS1_EEE16__construct_nodeIJS1_EEENS_10unique_ptrINS_11__tree_nodeIS1_PvEENS_22__tree_node_destructorINS4_ISB_EEEEEEDpOT_, symObjAddr: 0x29F38, symBinAddr: 0x10002D65C, symSize: 0x108 }
  - { offsetInCU: 0x5986E, offset: 0x5986E, size: 0x8, addend: 0x0, symName: __ZNSt3__16__treeI5PointNS_4lessIS1_EENS_9allocatorIS1_EEE16__insert_node_atEPNS_15__tree_end_nodeIPNS_16__tree_node_baseIPvEEEERSB_SB_, symObjAddr: 0x2A040, symBinAddr: 0x10002D764, symSize: 0xCC }
  - { offsetInCU: 0x598C3, offset: 0x598C3, size: 0x8, addend: 0x0, symName: __ZNKSt3__110unique_ptrINS_11__tree_nodeI5PointPvEENS_22__tree_node_destructorINS_9allocatorIS4_EEEEE3getB8ue170006Ev, symObjAddr: 0x2A10C, symBinAddr: 0x10002D830, symSize: 0x28 }
  - { offsetInCU: 0x598E9, offset: 0x598E9, size: 0x8, addend: 0x0, symName: __ZNSt3__110unique_ptrINS_11__tree_nodeI5PointPvEENS_22__tree_node_destructorINS_9allocatorIS4_EEEEE7releaseB8ue170006Ev, symObjAddr: 0x2A134, symBinAddr: 0x10002D858, symSize: 0x44 }
  - { offsetInCU: 0x5991E, offset: 0x5991E, size: 0x8, addend: 0x0, symName: __ZNSt3__110unique_ptrINS_11__tree_nodeI5PointPvEENS_22__tree_node_destructorINS_9allocatorIS4_EEEEED1B8ue170006Ev, symObjAddr: 0x2A178, symBinAddr: 0x10002D89C, symSize: 0x2C }
  - { offsetInCU: 0x59948, offset: 0x59948, size: 0x8, addend: 0x0, symName: __ZNSt3__115__tree_iteratorI5PointPNS_11__tree_nodeIS1_PvEElEC1B8ue170006ES5_, symObjAddr: 0x2A1A4, symBinAddr: 0x10002D8C8, symSize: 0x34 }
  - { offsetInCU: 0x5998D, offset: 0x5998D, size: 0x8, addend: 0x0, symName: __ZNSt3__14pairINS_15__tree_iteratorI5PointPNS_11__tree_nodeIS2_PvEElEEbEC1B8ue170006IS7_RbLS4_0EEEOT_OT0_, symObjAddr: 0x2A1D8, symBinAddr: 0x10002D8FC, symSize: 0x3C }
  - { offsetInCU: 0x599EB, offset: 0x599EB, size: 0x8, addend: 0x0, symName: __ZNKSt3__16__treeI5PointNS_4lessIS1_EENS_9allocatorIS1_EEE10__root_ptrB8ue170006Ev, symObjAddr: 0x2A214, symBinAddr: 0x10002D938, symSize: 0x24 }
  - { offsetInCU: 0x59A11, offset: 0x59A11, size: 0x8, addend: 0x0, symName: __ZNSt3__16__treeI5PointNS_4lessIS1_EENS_9allocatorIS1_EEE10value_compB8ue170006Ev, symObjAddr: 0x2A238, symBinAddr: 0x10002D95C, symSize: 0x28 }
  - { offsetInCU: 0x59A37, offset: 0x59A37, size: 0x8, addend: 0x0, symName: __ZNKSt3__14lessI5PointEclB8ue170006ERKS1_S4_, symObjAddr: 0x2A260, symBinAddr: 0x10002D984, symSize: 0x34 }
  - { offsetInCU: 0x59A7B, offset: 0x59A7B, size: 0x8, addend: 0x0, symName: __ZNSt3__117__compressed_pairImNS_4lessI5PointEEE6secondB8ue170006Ev, symObjAddr: 0x2A294, symBinAddr: 0x10002D9B8, symSize: 0x24 }
  - { offsetInCU: 0x59AA1, offset: 0x59AA1, size: 0x8, addend: 0x0, symName: __ZNSt3__122__compressed_pair_elemINS_4lessI5PointEELi1ELb1EE5__getB8ue170006Ev, symObjAddr: 0x2A2B8, symBinAddr: 0x10002D9DC, symSize: 0x14 }
  - { offsetInCU: 0x59AC7, offset: 0x59AC7, size: 0x8, addend: 0x0, symName: __ZNK5PointltERKS_, symObjAddr: 0x2A2CC, symBinAddr: 0x10002D9F0, symSize: 0x90 }
  - { offsetInCU: 0x59AFB, offset: 0x59AFB, size: 0x8, addend: 0x0, symName: __ZNSt3__116allocator_traitsINS_9allocatorINS_11__tree_nodeI5PointPvEEEEE8allocateB8ue170006ERS6_m, symObjAddr: 0x2A35C, symBinAddr: 0x10002DA80, symSize: 0x2C }
  - { offsetInCU: 0x59B2E, offset: 0x59B2E, size: 0x8, addend: 0x0, symName: __ZNSt3__122__tree_node_destructorINS_9allocatorINS_11__tree_nodeI5PointPvEEEEEC1B8ue170006ERS6_b, symObjAddr: 0x2A388, symBinAddr: 0x10002DAAC, symSize: 0x48 }
  - { offsetInCU: 0x59B7C, offset: 0x59B7C, size: 0x8, addend: 0x0, symName: __ZNSt3__110unique_ptrINS_11__tree_nodeI5PointPvEENS_22__tree_node_destructorINS_9allocatorIS4_EEEEEC1B8ue170006ILb1EvEEPS4_NS_16__dependent_typeINS_27__unique_ptr_deleter_sfinaeIS8_EEXT_EE20__good_rval_ref_typeE, symObjAddr: 0x2A3D0, symBinAddr: 0x10002DAF4, symSize: 0x3C }
  - { offsetInCU: 0x59BCD, offset: 0x59BCD, size: 0x8, addend: 0x0, symName: __ZNSt3__116allocator_traitsINS_9allocatorINS_11__tree_nodeI5PointPvEEEEE9constructB8ue170006IS3_JS3_EvEEvRS6_PT_DpOT0_, symObjAddr: 0x2A40C, symBinAddr: 0x10002DB30, symSize: 0x34 }
  - { offsetInCU: 0x59C24, offset: 0x59C24, size: 0x8, addend: 0x0, symName: __ZNKSt3__110unique_ptrINS_11__tree_nodeI5PointPvEENS_22__tree_node_destructorINS_9allocatorIS4_EEEEEptB8ue170006Ev, symObjAddr: 0x2A440, symBinAddr: 0x10002DB64, symSize: 0x28 }
  - { offsetInCU: 0x59C4A, offset: 0x59C4A, size: 0x8, addend: 0x0, symName: __ZNSt3__110unique_ptrINS_11__tree_nodeI5PointPvEENS_22__tree_node_destructorINS_9allocatorIS4_EEEEE11get_deleterB8ue170006Ev, symObjAddr: 0x2A468, symBinAddr: 0x10002DB8C, symSize: 0x24 }
  - { offsetInCU: 0x59C70, offset: 0x59C70, size: 0x8, addend: 0x0, symName: __ZNSt3__19allocatorINS_11__tree_nodeI5PointPvEEE8allocateB8ue170006Em, symObjAddr: 0x2A48C, symBinAddr: 0x10002DBB0, symSize: 0x5C }
  - { offsetInCU: 0x59CAF, offset: 0x59CAF, size: 0x8, addend: 0x0, symName: __ZNSt3__116allocator_traitsINS_9allocatorINS_11__tree_nodeI5PointPvEEEEE8max_sizeB8ue170006IS6_vEEmRKS6_, symObjAddr: 0x2A4E8, symBinAddr: 0x10002DC0C, symSize: 0x24 }
  - { offsetInCU: 0x59CDD, offset: 0x59CDD, size: 0x8, addend: 0x0, symName: __ZNKSt3__19allocatorINS_11__tree_nodeI5PointPvEEE8max_sizeB8ue170006Ev, symObjAddr: 0x2A50C, symBinAddr: 0x10002DC30, symSize: 0x18 }
  - { offsetInCU: 0x59D03, offset: 0x59D03, size: 0x8, addend: 0x0, symName: __ZNSt3__122__tree_node_destructorINS_9allocatorINS_11__tree_nodeI5PointPvEEEEEC2B8ue170006ERS6_b, symObjAddr: 0x2A524, symBinAddr: 0x10002DC48, symSize: 0x38 }
  - { offsetInCU: 0x59D4B, offset: 0x59D4B, size: 0x8, addend: 0x0, symName: __ZNSt3__110unique_ptrINS_11__tree_nodeI5PointPvEENS_22__tree_node_destructorINS_9allocatorIS4_EEEEEC2B8ue170006ILb1EvEEPS4_NS_16__dependent_typeINS_27__unique_ptr_deleter_sfinaeIS8_EEXT_EE20__good_rval_ref_typeE, symObjAddr: 0x2A55C, symBinAddr: 0x10002DC80, symSize: 0x48 }
  - { offsetInCU: 0x59D9C, offset: 0x59D9C, size: 0x8, addend: 0x0, symName: __ZNSt3__117__compressed_pairIPNS_11__tree_nodeI5PointPvEENS_22__tree_node_destructorINS_9allocatorIS4_EEEEEC1B8ue170006IRS5_S9_EEOT_OT0_, symObjAddr: 0x2A5A4, symBinAddr: 0x10002DCC8, symSize: 0x3C }
  - { offsetInCU: 0x59DF4, offset: 0x59DF4, size: 0x8, addend: 0x0, symName: __ZNSt3__117__compressed_pairIPNS_11__tree_nodeI5PointPvEENS_22__tree_node_destructorINS_9allocatorIS4_EEEEEC2B8ue170006IRS5_S9_EEOT_OT0_, symObjAddr: 0x2A5E0, symBinAddr: 0x10002DD04, symSize: 0x48 }
  - { offsetInCU: 0x59E4C, offset: 0x59E4C, size: 0x8, addend: 0x0, symName: __ZNSt3__122__compressed_pair_elemIPNS_11__tree_nodeI5PointPvEELi0ELb0EEC2B8ue170006IRS5_vEEOT_, symObjAddr: 0x2A628, symBinAddr: 0x10002DD4C, symSize: 0x24 }
  - { offsetInCU: 0x59E8E, offset: 0x59E8E, size: 0x8, addend: 0x0, symName: __ZNSt3__122__compressed_pair_elemINS_22__tree_node_destructorINS_9allocatorINS_11__tree_nodeI5PointPvEEEEEELi1ELb0EEC2B8ue170006IS8_vEEOT_, symObjAddr: 0x2A64C, symBinAddr: 0x10002DD70, symSize: 0x24 }
  - { offsetInCU: 0x59ED0, offset: 0x59ED0, size: 0x8, addend: 0x0, symName: __ZNSt3__19allocatorINS_11__tree_nodeI5PointPvEEE9constructB8ue170006IS2_JS2_EEEvPT_DpOT0_, symObjAddr: 0x2A670, symBinAddr: 0x10002DD94, symSize: 0x28 }
  - { offsetInCU: 0x59F26, offset: 0x59F26, size: 0x8, addend: 0x0, symName: __ZNKSt3__117__compressed_pairIPNS_11__tree_nodeI5PointPvEENS_22__tree_node_destructorINS_9allocatorIS4_EEEEE5firstB8ue170006Ev, symObjAddr: 0x2A698, symBinAddr: 0x10002DDBC, symSize: 0x24 }
  - { offsetInCU: 0x59F4C, offset: 0x59F4C, size: 0x8, addend: 0x0, symName: __ZNKSt3__122__compressed_pair_elemIPNS_11__tree_nodeI5PointPvEELi0ELb0EE5__getB8ue170006Ev, symObjAddr: 0x2A6BC, symBinAddr: 0x10002DDE0, symSize: 0x14 }
  - { offsetInCU: 0x59F72, offset: 0x59F72, size: 0x8, addend: 0x0, symName: __ZNSt3__117__compressed_pairIPNS_11__tree_nodeI5PointPvEENS_22__tree_node_destructorINS_9allocatorIS4_EEEEE6secondB8ue170006Ev, symObjAddr: 0x2A6D0, symBinAddr: 0x10002DDF4, symSize: 0x28 }
  - { offsetInCU: 0x59F98, offset: 0x59F98, size: 0x8, addend: 0x0, symName: __ZNSt3__122__compressed_pair_elemINS_22__tree_node_destructorINS_9allocatorINS_11__tree_nodeI5PointPvEEEEEELi1ELb0EE5__getB8ue170006Ev, symObjAddr: 0x2A6F8, symBinAddr: 0x10002DE1C, symSize: 0x14 }
  - { offsetInCU: 0x59FBE, offset: 0x59FBE, size: 0x8, addend: 0x0, symName: __ZNSt3__16__treeI5PointNS_4lessIS1_EENS_9allocatorIS1_EEE4sizeB8ue170006Ev, symObjAddr: 0x2AA38, symBinAddr: 0x10002E15C, symSize: 0x28 }
  - { offsetInCU: 0x59FE4, offset: 0x59FE4, size: 0x8, addend: 0x0, symName: __ZNKSt3__116__tree_node_baseIPvE15__parent_unsafeB8ue170006Ev, symObjAddr: 0x2AA60, symBinAddr: 0x10002E184, symSize: 0x18 }
  - { offsetInCU: 0x5A00A, offset: 0x5A00A, size: 0x8, addend: 0x0, symName: __ZNSt3__116__tree_node_baseIPvE12__set_parentB8ue170006EPS2_, symObjAddr: 0x2AC48, symBinAddr: 0x10002E36C, symSize: 0x20 }
  - { offsetInCU: 0x5A03F, offset: 0x5A03F, size: 0x8, addend: 0x0, symName: __ZNSt3__117__compressed_pairImNS_4lessI5PointEEE5firstB8ue170006Ev, symObjAddr: 0x2AC68, symBinAddr: 0x10002E38C, symSize: 0x24 }
  - { offsetInCU: 0x5A065, offset: 0x5A065, size: 0x8, addend: 0x0, symName: __ZNSt3__117__compressed_pairIPNS_11__tree_nodeI5PointPvEENS_22__tree_node_destructorINS_9allocatorIS4_EEEEE5firstB8ue170006Ev, symObjAddr: 0x2AC8C, symBinAddr: 0x10002E3B0, symSize: 0x24 }
  - { offsetInCU: 0x5A08B, offset: 0x5A08B, size: 0x8, addend: 0x0, symName: __ZNSt3__122__compressed_pair_elemIPNS_11__tree_nodeI5PointPvEELi0ELb0EE5__getB8ue170006Ev, symObjAddr: 0x2ACB0, symBinAddr: 0x10002E3D4, symSize: 0x14 }
  - { offsetInCU: 0x5A0B1, offset: 0x5A0B1, size: 0x8, addend: 0x0, symName: __ZNSt3__110unique_ptrINS_11__tree_nodeI5PointPvEENS_22__tree_node_destructorINS_9allocatorIS4_EEEEED2B8ue170006Ev, symObjAddr: 0x2ACC4, symBinAddr: 0x10002E3E8, symSize: 0x30 }
  - { offsetInCU: 0x5A0DB, offset: 0x5A0DB, size: 0x8, addend: 0x0, symName: __ZNSt3__110unique_ptrINS_11__tree_nodeI5PointPvEENS_22__tree_node_destructorINS_9allocatorIS4_EEEEE5resetB8ue170006EPS4_, symObjAddr: 0x2ACF4, symBinAddr: 0x10002E418, symSize: 0x78 }
  - { offsetInCU: 0x5A11F, offset: 0x5A11F, size: 0x8, addend: 0x0, symName: __ZNSt3__122__tree_node_destructorINS_9allocatorINS_11__tree_nodeI5PointPvEEEEEclB8ue170006EPS5_, symObjAddr: 0x2AD6C, symBinAddr: 0x10002E490, symSize: 0x88 }
  - { offsetInCU: 0x5A154, offset: 0x5A154, size: 0x8, addend: 0x0, symName: __ZNSt3__115__tree_iteratorI5PointPNS_11__tree_nodeIS1_PvEElEC2B8ue170006ES5_, symObjAddr: 0x2ADF4, symBinAddr: 0x10002E518, symSize: 0x20 }
  - { offsetInCU: 0x5A18D, offset: 0x5A18D, size: 0x8, addend: 0x0, symName: __ZNSt3__14pairINS_15__tree_iteratorI5PointPNS_11__tree_nodeIS2_PvEElEEbEC2B8ue170006IS7_RbLS4_0EEEOT_OT0_, symObjAddr: 0x2AE14, symBinAddr: 0x10002E538, symSize: 0x38 }
  - { offsetInCU: 0x5A1EB, offset: 0x5A1EB, size: 0x8, addend: 0x0, symName: __ZNSt3__14pairINS_21__tree_const_iteratorI5PointPNS_11__tree_nodeIS2_PvEElEEbEC2B8ue170006INS_15__tree_iteratorIS2_S6_lEEbLS4_0EEEONS0_IT_T0_EE, symObjAddr: 0x2AE4C, symBinAddr: 0x10002E570, symSize: 0x50 }
  - { offsetInCU: 0x5A23C, offset: 0x5A23C, size: 0x8, addend: 0x0, symName: __ZNSt3__121__tree_const_iteratorI5PointPNS_11__tree_nodeIS1_PvEElEC1B8ue170006ENS_15__tree_iteratorIS1_S5_lEE, symObjAddr: 0x2AE9C, symBinAddr: 0x10002E5C0, symSize: 0x34 }
  - { offsetInCU: 0x5A275, offset: 0x5A275, size: 0x8, addend: 0x0, symName: __ZNSt3__121__tree_const_iteratorI5PointPNS_11__tree_nodeIS1_PvEElEC2B8ue170006ENS_15__tree_iteratorIS1_S5_lEE, symObjAddr: 0x2AED0, symBinAddr: 0x10002E5F4, symSize: 0x20 }
  - { offsetInCU: 0x5A2AE, offset: 0x5A2AE, size: 0x8, addend: 0x0, symName: __ZNKSt3__13setI5PointNS_4lessIS1_EENS_9allocatorIS1_EEE5beginB8ue170006Ev, symObjAddr: 0x2AEF0, symBinAddr: 0x10002E614, symSize: 0x2C }
  - { offsetInCU: 0x5A2D4, offset: 0x5A2D4, size: 0x8, addend: 0x0, symName: __ZNKSt3__13setI5PointNS_4lessIS1_EENS_9allocatorIS1_EEE3endB8ue170006Ev, symObjAddr: 0x2AF1C, symBinAddr: 0x10002E640, symSize: 0x2C }
  - { offsetInCU: 0x5A2FA, offset: 0x5A2FA, size: 0x8, addend: 0x0, symName: __ZNKSt3__121__tree_const_iteratorI5PointPNS_11__tree_nodeIS1_PvEElEdeB8ue170006Ev, symObjAddr: 0x2AF7C, symBinAddr: 0x10002E6A0, symSize: 0x28 }
  - { offsetInCU: 0x5A320, offset: 0x5A320, size: 0x8, addend: 0x0, symName: __ZNSt3__121__tree_const_iteratorI5PointPNS_11__tree_nodeIS1_PvEElEppB8ue170006Ev, symObjAddr: 0x2AFA4, symBinAddr: 0x10002E6C8, symSize: 0x38 }
  - { offsetInCU: 0x5A346, offset: 0x5A346, size: 0x8, addend: 0x0, symName: __ZNKSt3__16__treeI5PointNS_4lessIS1_EENS_9allocatorIS1_EEE5beginB8ue170006Ev, symObjAddr: 0x2AFDC, symBinAddr: 0x10002E700, symSize: 0x34 }
  - { offsetInCU: 0x5A36C, offset: 0x5A36C, size: 0x8, addend: 0x0, symName: __ZNKSt3__16__treeI5PointNS_4lessIS1_EENS_9allocatorIS1_EEE12__begin_nodeB8ue170006Ev, symObjAddr: 0x2B010, symBinAddr: 0x10002E734, symSize: 0x14 }
  - { offsetInCU: 0x5A392, offset: 0x5A392, size: 0x8, addend: 0x0, symName: __ZNSt3__121__tree_const_iteratorI5PointPNS_11__tree_nodeIS1_PvEElEC1B8ue170006EPNS_15__tree_end_nodeIPNS_16__tree_node_baseIS3_EEEE, symObjAddr: 0x2B024, symBinAddr: 0x10002E748, symSize: 0x34 }
  - { offsetInCU: 0x5A3CB, offset: 0x5A3CB, size: 0x8, addend: 0x0, symName: __ZNSt3__121__tree_const_iteratorI5PointPNS_11__tree_nodeIS1_PvEElEC2B8ue170006EPNS_15__tree_end_nodeIPNS_16__tree_node_baseIS3_EEEE, symObjAddr: 0x2B058, symBinAddr: 0x10002E77C, symSize: 0x20 }
  - { offsetInCU: 0x5A404, offset: 0x5A404, size: 0x8, addend: 0x0, symName: __ZNKSt3__16__treeI5PointNS_4lessIS1_EENS_9allocatorIS1_EEE3endB8ue170006Ev, symObjAddr: 0x2B078, symBinAddr: 0x10002E79C, symSize: 0x34 }
  - { offsetInCU: 0x5A42A, offset: 0x5A42A, size: 0x8, addend: 0x0, symName: __ZNKSt3__121__tree_const_iteratorI5PointPNS_11__tree_nodeIS1_PvEElE8__get_npB8ue170006Ev, symObjAddr: 0x2B0DC, symBinAddr: 0x10002E800, symSize: 0x18 }
  - { offsetInCU: 0x5A450, offset: 0x5A450, size: 0x8, addend: 0x0, symName: __ZNSt3__13setIiNS_4lessIiEENS_9allocatorIiEEEC2B8ue170006ESt16initializer_listIiERKS2_, symObjAddr: 0x2B1B4, symBinAddr: 0x10002E8D8, symSize: 0x94 }
  - { offsetInCU: 0x5A498, offset: 0x5A498, size: 0x8, addend: 0x0, symName: __ZNSt3__16__treeIiNS_4lessIiEENS_9allocatorIiEEEC1ERKS2_, symObjAddr: 0x2B248, symBinAddr: 0x10002E96C, symSize: 0x34 }
  - { offsetInCU: 0x5A4D3, offset: 0x5A4D3, size: 0x8, addend: 0x0, symName: __ZNSt3__13setIiNS_4lessIiEENS_9allocatorIiEEE6insertB8ue170006IPKiEEvT_S9_, symObjAddr: 0x2B27C, symBinAddr: 0x10002E9A0, symSize: 0x80 }
  - { offsetInCU: 0x5A53D, offset: 0x5A53D, size: 0x8, addend: 0x0, symName: __ZNSt3__16__treeIiNS_4lessIiEENS_9allocatorIiEEED1Ev, symObjAddr: 0x2B2FC, symBinAddr: 0x10002EA20, symSize: 0x2C }
  - { offsetInCU: 0x5A569, offset: 0x5A569, size: 0x8, addend: 0x0, symName: __ZNSt3__16__treeIiNS_4lessIiEENS_9allocatorIiEEEC2ERKS2_, symObjAddr: 0x2B328, symBinAddr: 0x10002EA4C, symSize: 0x7C }
  - { offsetInCU: 0x5A5A4, offset: 0x5A5A4, size: 0x8, addend: 0x0, symName: __ZNSt3__117__compressed_pairINS_15__tree_end_nodeIPNS_16__tree_node_baseIPvEEEENS_9allocatorINS_11__tree_nodeIiS3_EEEEEC1B8ue170006ILb1EvEEv, symObjAddr: 0x2B3A4, symBinAddr: 0x10002EAC8, symSize: 0x2C }
  - { offsetInCU: 0x5A5D9, offset: 0x5A5D9, size: 0x8, addend: 0x0, symName: __ZNSt3__117__compressed_pairImNS_4lessIiEEEC1B8ue170006IiRKS2_EEOT_OT0_, symObjAddr: 0x2B3D0, symBinAddr: 0x10002EAF4, symSize: 0x3C }
  - { offsetInCU: 0x5A631, offset: 0x5A631, size: 0x8, addend: 0x0, symName: __ZNSt3__16__treeIiNS_4lessIiEENS_9allocatorIiEEE10__end_nodeB8ue170006Ev, symObjAddr: 0x2B40C, symBinAddr: 0x10002EB30, symSize: 0x2C }
  - { offsetInCU: 0x5A657, offset: 0x5A657, size: 0x8, addend: 0x0, symName: __ZNSt3__16__treeIiNS_4lessIiEENS_9allocatorIiEEE12__begin_nodeB8ue170006Ev, symObjAddr: 0x2B438, symBinAddr: 0x10002EB5C, symSize: 0x14 }
  - { offsetInCU: 0x5A67D, offset: 0x5A67D, size: 0x8, addend: 0x0, symName: __ZNSt3__117__compressed_pairINS_15__tree_end_nodeIPNS_16__tree_node_baseIPvEEEENS_9allocatorINS_11__tree_nodeIiS3_EEEEEC2B8ue170006ILb1EvEEv, symObjAddr: 0x2B44C, symBinAddr: 0x10002EB70, symSize: 0x34 }
  - { offsetInCU: 0x5A6B2, offset: 0x5A6B2, size: 0x8, addend: 0x0, symName: __ZNSt3__122__compressed_pair_elemINS_9allocatorINS_11__tree_nodeIiPvEEEELi1ELb1EEC2B8ue170006ENS_16__value_init_tagE, symObjAddr: 0x2B480, symBinAddr: 0x10002EBA4, symSize: 0x2C }
  - { offsetInCU: 0x5A6E7, offset: 0x5A6E7, size: 0x8, addend: 0x0, symName: __ZNSt3__19allocatorINS_11__tree_nodeIiPvEEEC2B8ue170006Ev, symObjAddr: 0x2B4AC, symBinAddr: 0x10002EBD0, symSize: 0x2C }
  - { offsetInCU: 0x5A711, offset: 0x5A711, size: 0x8, addend: 0x0, symName: __ZNSt3__116__non_trivial_ifILb1ENS_9allocatorINS_11__tree_nodeIiPvEEEEEC2B8ue170006Ev, symObjAddr: 0x2B4D8, symBinAddr: 0x10002EBFC, symSize: 0x14 }
  - { offsetInCU: 0x5A73B, offset: 0x5A73B, size: 0x8, addend: 0x0, symName: __ZNSt3__117__compressed_pairImNS_4lessIiEEEC2B8ue170006IiRKS2_EEOT_OT0_, symObjAddr: 0x2B4EC, symBinAddr: 0x10002EC10, symSize: 0x44 }
  - { offsetInCU: 0x5A793, offset: 0x5A793, size: 0x8, addend: 0x0, symName: __ZNSt3__122__compressed_pair_elemINS_4lessIiEELi1ELb1EEC2B8ue170006IRKS2_vEEOT_, symObjAddr: 0x2B530, symBinAddr: 0x10002EC54, symSize: 0x18 }
  - { offsetInCU: 0x5A7D5, offset: 0x5A7D5, size: 0x8, addend: 0x0, symName: __ZNSt3__117__compressed_pairINS_15__tree_end_nodeIPNS_16__tree_node_baseIPvEEEENS_9allocatorINS_11__tree_nodeIiS3_EEEEE5firstB8ue170006Ev, symObjAddr: 0x2B548, symBinAddr: 0x10002EC6C, symSize: 0x24 }
  - { offsetInCU: 0x5A7FB, offset: 0x5A7FB, size: 0x8, addend: 0x0, symName: __ZNKSt3__13setIiNS_4lessIiEENS_9allocatorIiEEE4cendB8ue170006Ev, symObjAddr: 0x2B56C, symBinAddr: 0x10002EC90, symSize: 0x2C }
  - { offsetInCU: 0x5A821, offset: 0x5A821, size: 0x8, addend: 0x0, symName: __ZNSt3__16__treeIiNS_4lessIiEENS_9allocatorIiEEE15__insert_uniqueB8ue170006ENS_21__tree_const_iteratorIiPNS_11__tree_nodeIiPvEElEERKi, symObjAddr: 0x2B598, symBinAddr: 0x10002ECBC, symSize: 0x64 }
  - { offsetInCU: 0x5A865, offset: 0x5A865, size: 0x8, addend: 0x0, symName: __ZNKSt3__13setIiNS_4lessIiEENS_9allocatorIiEEE3endB8ue170006Ev, symObjAddr: 0x2B5FC, symBinAddr: 0x10002ED20, symSize: 0x2C }
  - { offsetInCU: 0x5A88B, offset: 0x5A88B, size: 0x8, addend: 0x0, symName: __ZNKSt3__16__treeIiNS_4lessIiEENS_9allocatorIiEEE3endB8ue170006Ev, symObjAddr: 0x2B628, symBinAddr: 0x10002ED4C, symSize: 0x34 }
  - { offsetInCU: 0x5A8B1, offset: 0x5A8B1, size: 0x8, addend: 0x0, symName: __ZNKSt3__16__treeIiNS_4lessIiEENS_9allocatorIiEEE10__end_nodeB8ue170006Ev, symObjAddr: 0x2B65C, symBinAddr: 0x10002ED80, symSize: 0x2C }
  - { offsetInCU: 0x5A8D7, offset: 0x5A8D7, size: 0x8, addend: 0x0, symName: __ZNSt3__121__tree_const_iteratorIiPNS_11__tree_nodeIiPvEElEC1B8ue170006EPNS_15__tree_end_nodeIPNS_16__tree_node_baseIS2_EEEE, symObjAddr: 0x2B688, symBinAddr: 0x10002EDAC, symSize: 0x34 }
  - { offsetInCU: 0x5A910, offset: 0x5A910, size: 0x8, addend: 0x0, symName: __ZNKSt3__117__compressed_pairINS_15__tree_end_nodeIPNS_16__tree_node_baseIPvEEEENS_9allocatorINS_11__tree_nodeIiS3_EEEEE5firstB8ue170006Ev, symObjAddr: 0x2B6BC, symBinAddr: 0x10002EDE0, symSize: 0x24 }
  - { offsetInCU: 0x5A936, offset: 0x5A936, size: 0x8, addend: 0x0, symName: __ZNSt3__121__tree_const_iteratorIiPNS_11__tree_nodeIiPvEElEC2B8ue170006EPNS_15__tree_end_nodeIPNS_16__tree_node_baseIS2_EEEE, symObjAddr: 0x2B6E0, symBinAddr: 0x10002EE04, symSize: 0x20 }
  - { offsetInCU: 0x5A96F, offset: 0x5A96F, size: 0x8, addend: 0x0, symName: __ZNSt3__16__treeIiNS_4lessIiEENS_9allocatorIiEEE30__emplace_hint_unique_key_argsIiJRKiEEENS_4pairINS_15__tree_iteratorIiPNS_11__tree_nodeIiPvEElEEbEENS_21__tree_const_iteratorIiSE_lEERKT_DpOT0_, symObjAddr: 0x2B700, symBinAddr: 0x10002EE24, symSize: 0x104 }
  - { offsetInCU: 0x5AA3B, offset: 0x5AA3B, size: 0x8, addend: 0x0, symName: __ZNSt3__122__tree_key_value_typesIiE9__get_keyB8ue170006ERKi, symObjAddr: 0x2B804, symBinAddr: 0x10002EF28, symSize: 0x14 }
  - { offsetInCU: 0x5AA5F, offset: 0x5AA5F, size: 0x8, addend: 0x0, symName: __ZNSt3__16__treeIiNS_4lessIiEENS_9allocatorIiEEE12__find_equalIiEERPNS_16__tree_node_baseIPvEENS_21__tree_const_iteratorIiPNS_11__tree_nodeIiS8_EElEERPNS_15__tree_end_nodeISA_EESB_RKT_, symObjAddr: 0x2B818, symBinAddr: 0x10002EF3C, symSize: 0x304 }
  - { offsetInCU: 0x5AB08, offset: 0x5AB08, size: 0x8, addend: 0x0, symName: __ZNSt3__16__treeIiNS_4lessIiEENS_9allocatorIiEEE16__construct_nodeIJRKiEEENS_10unique_ptrINS_11__tree_nodeIiPvEENS_22__tree_node_destructorINS3_ISC_EEEEEEDpOT_, symObjAddr: 0x2BB1C, symBinAddr: 0x10002F240, symSize: 0x110 }
  - { offsetInCU: 0x5AB69, offset: 0x5AB69, size: 0x8, addend: 0x0, symName: __ZNSt3__16__treeIiNS_4lessIiEENS_9allocatorIiEEE16__insert_node_atEPNS_15__tree_end_nodeIPNS_16__tree_node_baseIPvEEEERSA_SA_, symObjAddr: 0x2BC2C, symBinAddr: 0x10002F350, symSize: 0xCC }
  - { offsetInCU: 0x5ABBE, offset: 0x5ABBE, size: 0x8, addend: 0x0, symName: __ZNKSt3__110unique_ptrINS_11__tree_nodeIiPvEENS_22__tree_node_destructorINS_9allocatorIS3_EEEEE3getB8ue170006Ev, symObjAddr: 0x2BCF8, symBinAddr: 0x10002F41C, symSize: 0x28 }
  - { offsetInCU: 0x5ABE4, offset: 0x5ABE4, size: 0x8, addend: 0x0, symName: __ZNSt3__110unique_ptrINS_11__tree_nodeIiPvEENS_22__tree_node_destructorINS_9allocatorIS3_EEEEE7releaseB8ue170006Ev, symObjAddr: 0x2BD20, symBinAddr: 0x10002F444, symSize: 0x44 }
  - { offsetInCU: 0x5AC19, offset: 0x5AC19, size: 0x8, addend: 0x0, symName: __ZNSt3__110unique_ptrINS_11__tree_nodeIiPvEENS_22__tree_node_destructorINS_9allocatorIS3_EEEEED1B8ue170006Ev, symObjAddr: 0x2BD64, symBinAddr: 0x10002F488, symSize: 0x2C }
  - { offsetInCU: 0x5AC43, offset: 0x5AC43, size: 0x8, addend: 0x0, symName: __ZNSt3__115__tree_iteratorIiPNS_11__tree_nodeIiPvEElEC1B8ue170006ES4_, symObjAddr: 0x2BD90, symBinAddr: 0x10002F4B4, symSize: 0x34 }
  - { offsetInCU: 0x5AC82, offset: 0x5AC82, size: 0x8, addend: 0x0, symName: __ZNSt3__14pairINS_15__tree_iteratorIiPNS_11__tree_nodeIiPvEElEEbEC1B8ue170006IS6_RbLS3_0EEEOT_OT0_, symObjAddr: 0x2BDC4, symBinAddr: 0x10002F4E8, symSize: 0x3C }
  - { offsetInCU: 0x5ACE0, offset: 0x5ACE0, size: 0x8, addend: 0x0, symName: __ZNSt3__16__treeIiNS_4lessIiEENS_9allocatorIiEEE3endB8ue170006Ev, symObjAddr: 0x2BE30, symBinAddr: 0x10002F554, symSize: 0x34 }
  - { offsetInCU: 0x5AD06, offset: 0x5AD06, size: 0x8, addend: 0x0, symName: __ZNSt3__121__tree_const_iteratorIiPNS_11__tree_nodeIiPvEElEC1B8ue170006ENS_15__tree_iteratorIiS4_lEE, symObjAddr: 0x2BE64, symBinAddr: 0x10002F588, symSize: 0x34 }
  - { offsetInCU: 0x5AD3F, offset: 0x5AD3F, size: 0x8, addend: 0x0, symName: __ZNSt3__16__treeIiNS_4lessIiEENS_9allocatorIiEEE10value_compB8ue170006Ev, symObjAddr: 0x2BE98, symBinAddr: 0x10002F5BC, symSize: 0x28 }
  - { offsetInCU: 0x5AD65, offset: 0x5AD65, size: 0x8, addend: 0x0, symName: __ZNKSt3__121__tree_const_iteratorIiPNS_11__tree_nodeIiPvEElEdeB8ue170006Ev, symObjAddr: 0x2BEC0, symBinAddr: 0x10002F5E4, symSize: 0x28 }
  - { offsetInCU: 0x5AD8B, offset: 0x5AD8B, size: 0x8, addend: 0x0, symName: __ZNSt3__16__treeIiNS_4lessIiEENS_9allocatorIiEEE5beginB8ue170006Ev, symObjAddr: 0x2BEE8, symBinAddr: 0x10002F60C, symSize: 0x34 }
  - { offsetInCU: 0x5ADB1, offset: 0x5ADB1, size: 0x8, addend: 0x0, symName: __ZNSt3__121__tree_const_iteratorIiPNS_11__tree_nodeIiPvEElEmmB8ue170006Ev, symObjAddr: 0x2BF1C, symBinAddr: 0x10002F640, symSize: 0x38 }
  - { offsetInCU: 0x5ADD7, offset: 0x5ADD7, size: 0x8, addend: 0x0, symName: __ZNSt3__16__treeIiNS_4lessIiEENS_9allocatorIiEEE12__find_equalIiEERPNS_16__tree_node_baseIPvEERPNS_15__tree_end_nodeISA_EERKT_, symObjAddr: 0x2BF54, symBinAddr: 0x10002F678, symSize: 0x184 }
  - { offsetInCU: 0x5AE44, offset: 0x5AE44, size: 0x8, addend: 0x0, symName: __ZNKSt3__121__tree_const_iteratorIiPNS_11__tree_nodeIiPvEElE8__get_npB8ue170006Ev, symObjAddr: 0x2C114, symBinAddr: 0x10002F838, symSize: 0x18 }
  - { offsetInCU: 0x5AE6A, offset: 0x5AE6A, size: 0x8, addend: 0x0, symName: __ZNSt3__115__tree_iteratorIiPNS_11__tree_nodeIiPvEElEC1B8ue170006EPNS_15__tree_end_nodeIPNS_16__tree_node_baseIS2_EEEE, symObjAddr: 0x2C12C, symBinAddr: 0x10002F850, symSize: 0x34 }
  - { offsetInCU: 0x5AEA3, offset: 0x5AEA3, size: 0x8, addend: 0x0, symName: __ZNSt3__115__tree_iteratorIiPNS_11__tree_nodeIiPvEElEC2B8ue170006EPNS_15__tree_end_nodeIPNS_16__tree_node_baseIS2_EEEE, symObjAddr: 0x2C160, symBinAddr: 0x10002F884, symSize: 0x20 }
  - { offsetInCU: 0x5AEDC, offset: 0x5AEDC, size: 0x8, addend: 0x0, symName: __ZNSt3__121__tree_const_iteratorIiPNS_11__tree_nodeIiPvEElEC2B8ue170006ENS_15__tree_iteratorIiS4_lEE, symObjAddr: 0x2C180, symBinAddr: 0x10002F8A4, symSize: 0x20 }
  - { offsetInCU: 0x5AF15, offset: 0x5AF15, size: 0x8, addend: 0x0, symName: __ZNSt3__117__compressed_pairImNS_4lessIiEEE6secondB8ue170006Ev, symObjAddr: 0x2C1A0, symBinAddr: 0x10002F8C4, symSize: 0x24 }
  - { offsetInCU: 0x5AF3B, offset: 0x5AF3B, size: 0x8, addend: 0x0, symName: __ZNSt3__122__compressed_pair_elemINS_4lessIiEELi1ELb1EE5__getB8ue170006Ev, symObjAddr: 0x2C1C4, symBinAddr: 0x10002F8E8, symSize: 0x14 }
  - { offsetInCU: 0x5AF61, offset: 0x5AF61, size: 0x8, addend: 0x0, symName: __ZNKSt3__16__treeIiNS_4lessIiEENS_9allocatorIiEEE6__rootB8ue170006Ev, symObjAddr: 0x2C2A0, symBinAddr: 0x10002F9C4, symSize: 0x28 }
  - { offsetInCU: 0x5AF87, offset: 0x5AF87, size: 0x8, addend: 0x0, symName: __ZNKSt3__16__treeIiNS_4lessIiEENS_9allocatorIiEEE10__root_ptrB8ue170006Ev, symObjAddr: 0x2C2C8, symBinAddr: 0x10002F9EC, symSize: 0x24 }
  - { offsetInCU: 0x5AFAD, offset: 0x5AFAD, size: 0x8, addend: 0x0, symName: __ZNSt3__121__tree_const_iteratorIiPNS_11__tree_nodeIiPvEElEppB8ue170006Ev, symObjAddr: 0x2C3C8, symBinAddr: 0x10002FAEC, symSize: 0x38 }
  - { offsetInCU: 0x5AFD3, offset: 0x5AFD3, size: 0x8, addend: 0x0, symName: __ZNSt3__16__treeIiNS_4lessIiEENS_9allocatorIiEEE12__node_allocB8ue170006Ev, symObjAddr: 0x2C400, symBinAddr: 0x10002FB24, symSize: 0x28 }
  - { offsetInCU: 0x5AFF9, offset: 0x5AFF9, size: 0x8, addend: 0x0, symName: __ZNSt3__116allocator_traitsINS_9allocatorINS_11__tree_nodeIiPvEEEEE8allocateB8ue170006ERS5_m, symObjAddr: 0x2C428, symBinAddr: 0x10002FB4C, symSize: 0x2C }
  - { offsetInCU: 0x5B02C, offset: 0x5B02C, size: 0x8, addend: 0x0, symName: __ZNSt3__122__tree_node_destructorINS_9allocatorINS_11__tree_nodeIiPvEEEEEC1B8ue170006ERS5_b, symObjAddr: 0x2C454, symBinAddr: 0x10002FB78, symSize: 0x48 }
  - { offsetInCU: 0x5B07A, offset: 0x5B07A, size: 0x8, addend: 0x0, symName: __ZNSt3__110unique_ptrINS_11__tree_nodeIiPvEENS_22__tree_node_destructorINS_9allocatorIS3_EEEEEC1B8ue170006ILb1EvEEPS3_NS_16__dependent_typeINS_27__unique_ptr_deleter_sfinaeIS7_EEXT_EE20__good_rval_ref_typeE, symObjAddr: 0x2C49C, symBinAddr: 0x10002FBC0, symSize: 0x3C }
  - { offsetInCU: 0x5B0CB, offset: 0x5B0CB, size: 0x8, addend: 0x0, symName: __ZNSt3__116allocator_traitsINS_9allocatorINS_11__tree_nodeIiPvEEEEE9constructB8ue170006IiJRKiEvEEvRS5_PT_DpOT0_, symObjAddr: 0x2C4D8, symBinAddr: 0x10002FBFC, symSize: 0x34 }
  - { offsetInCU: 0x5B122, offset: 0x5B122, size: 0x8, addend: 0x0, symName: __ZNSt3__122__tree_key_value_typesIiE9__get_ptrB8ue170006ERi, symObjAddr: 0x2C50C, symBinAddr: 0x10002FC30, symSize: 0x14 }
  - { offsetInCU: 0x5B146, offset: 0x5B146, size: 0x8, addend: 0x0, symName: __ZNKSt3__110unique_ptrINS_11__tree_nodeIiPvEENS_22__tree_node_destructorINS_9allocatorIS3_EEEEEptB8ue170006Ev, symObjAddr: 0x2C520, symBinAddr: 0x10002FC44, symSize: 0x28 }
  - { offsetInCU: 0x5B16C, offset: 0x5B16C, size: 0x8, addend: 0x0, symName: __ZNSt3__110unique_ptrINS_11__tree_nodeIiPvEENS_22__tree_node_destructorINS_9allocatorIS3_EEEEE11get_deleterB8ue170006Ev, symObjAddr: 0x2C548, symBinAddr: 0x10002FC6C, symSize: 0x24 }
  - { offsetInCU: 0x5B192, offset: 0x5B192, size: 0x8, addend: 0x0, symName: __ZNSt3__117__compressed_pairINS_15__tree_end_nodeIPNS_16__tree_node_baseIPvEEEENS_9allocatorINS_11__tree_nodeIiS3_EEEEE6secondB8ue170006Ev, symObjAddr: 0x2C56C, symBinAddr: 0x10002FC90, symSize: 0x24 }
  - { offsetInCU: 0x5B1B8, offset: 0x5B1B8, size: 0x8, addend: 0x0, symName: __ZNSt3__122__compressed_pair_elemINS_9allocatorINS_11__tree_nodeIiPvEEEELi1ELb1EE5__getB8ue170006Ev, symObjAddr: 0x2C590, symBinAddr: 0x10002FCB4, symSize: 0x14 }
  - { offsetInCU: 0x5B1DE, offset: 0x5B1DE, size: 0x8, addend: 0x0, symName: __ZNSt3__19allocatorINS_11__tree_nodeIiPvEEE8allocateB8ue170006Em, symObjAddr: 0x2C5A4, symBinAddr: 0x10002FCC8, symSize: 0x58 }
  - { offsetInCU: 0x5B21D, offset: 0x5B21D, size: 0x8, addend: 0x0, symName: __ZNSt3__116allocator_traitsINS_9allocatorINS_11__tree_nodeIiPvEEEEE8max_sizeB8ue170006IS5_vEEmRKS5_, symObjAddr: 0x2C5FC, symBinAddr: 0x10002FD20, symSize: 0x24 }
  - { offsetInCU: 0x5B24B, offset: 0x5B24B, size: 0x8, addend: 0x0, symName: __ZNKSt3__19allocatorINS_11__tree_nodeIiPvEEE8max_sizeB8ue170006Ev, symObjAddr: 0x2C620, symBinAddr: 0x10002FD44, symSize: 0x14 }
  - { offsetInCU: 0x5B271, offset: 0x5B271, size: 0x8, addend: 0x0, symName: __ZNSt3__122__tree_node_destructorINS_9allocatorINS_11__tree_nodeIiPvEEEEEC2B8ue170006ERS5_b, symObjAddr: 0x2C634, symBinAddr: 0x10002FD58, symSize: 0x38 }
  - { offsetInCU: 0x5B2B9, offset: 0x5B2B9, size: 0x8, addend: 0x0, symName: __ZNSt3__110unique_ptrINS_11__tree_nodeIiPvEENS_22__tree_node_destructorINS_9allocatorIS3_EEEEEC2B8ue170006ILb1EvEEPS3_NS_16__dependent_typeINS_27__unique_ptr_deleter_sfinaeIS7_EEXT_EE20__good_rval_ref_typeE, symObjAddr: 0x2C66C, symBinAddr: 0x10002FD90, symSize: 0x48 }
  - { offsetInCU: 0x5B30A, offset: 0x5B30A, size: 0x8, addend: 0x0, symName: __ZNSt3__117__compressed_pairIPNS_11__tree_nodeIiPvEENS_22__tree_node_destructorINS_9allocatorIS3_EEEEEC1B8ue170006IRS4_S8_EEOT_OT0_, symObjAddr: 0x2C6B4, symBinAddr: 0x10002FDD8, symSize: 0x3C }
  - { offsetInCU: 0x5B362, offset: 0x5B362, size: 0x8, addend: 0x0, symName: __ZNSt3__117__compressed_pairIPNS_11__tree_nodeIiPvEENS_22__tree_node_destructorINS_9allocatorIS3_EEEEEC2B8ue170006IRS4_S8_EEOT_OT0_, symObjAddr: 0x2C6F0, symBinAddr: 0x10002FE14, symSize: 0x48 }
  - { offsetInCU: 0x5B3BA, offset: 0x5B3BA, size: 0x8, addend: 0x0, symName: __ZNSt3__122__compressed_pair_elemIPNS_11__tree_nodeIiPvEELi0ELb0EEC2B8ue170006IRS4_vEEOT_, symObjAddr: 0x2C738, symBinAddr: 0x10002FE5C, symSize: 0x24 }
  - { offsetInCU: 0x5B3FC, offset: 0x5B3FC, size: 0x8, addend: 0x0, symName: __ZNSt3__122__compressed_pair_elemINS_22__tree_node_destructorINS_9allocatorINS_11__tree_nodeIiPvEEEEEELi1ELb0EEC2B8ue170006IS7_vEEOT_, symObjAddr: 0x2C75C, symBinAddr: 0x10002FE80, symSize: 0x24 }
  - { offsetInCU: 0x5B43E, offset: 0x5B43E, size: 0x8, addend: 0x0, symName: __ZNSt3__19allocatorINS_11__tree_nodeIiPvEEE9constructB8ue170006IiJRKiEEEvPT_DpOT0_, symObjAddr: 0x2C780, symBinAddr: 0x10002FEA4, symSize: 0x28 }
  - { offsetInCU: 0x5B494, offset: 0x5B494, size: 0x8, addend: 0x0, symName: __ZNKSt3__117__compressed_pairIPNS_11__tree_nodeIiPvEENS_22__tree_node_destructorINS_9allocatorIS3_EEEEE5firstB8ue170006Ev, symObjAddr: 0x2C7A8, symBinAddr: 0x10002FECC, symSize: 0x24 }
  - { offsetInCU: 0x5B4BA, offset: 0x5B4BA, size: 0x8, addend: 0x0, symName: __ZNKSt3__122__compressed_pair_elemIPNS_11__tree_nodeIiPvEELi0ELb0EE5__getB8ue170006Ev, symObjAddr: 0x2C7CC, symBinAddr: 0x10002FEF0, symSize: 0x14 }
  - { offsetInCU: 0x5B4E0, offset: 0x5B4E0, size: 0x8, addend: 0x0, symName: __ZNSt3__117__compressed_pairIPNS_11__tree_nodeIiPvEENS_22__tree_node_destructorINS_9allocatorIS3_EEEEE6secondB8ue170006Ev, symObjAddr: 0x2C7E0, symBinAddr: 0x10002FF04, symSize: 0x28 }
  - { offsetInCU: 0x5B506, offset: 0x5B506, size: 0x8, addend: 0x0, symName: __ZNSt3__122__compressed_pair_elemINS_22__tree_node_destructorINS_9allocatorINS_11__tree_nodeIiPvEEEEEELi1ELb0EE5__getB8ue170006Ev, symObjAddr: 0x2C808, symBinAddr: 0x10002FF2C, symSize: 0x14 }
  - { offsetInCU: 0x5B52C, offset: 0x5B52C, size: 0x8, addend: 0x0, symName: __ZNSt3__16__treeIiNS_4lessIiEENS_9allocatorIiEEE4sizeB8ue170006Ev, symObjAddr: 0x2C81C, symBinAddr: 0x10002FF40, symSize: 0x28 }
  - { offsetInCU: 0x5B552, offset: 0x5B552, size: 0x8, addend: 0x0, symName: __ZNSt3__117__compressed_pairImNS_4lessIiEEE5firstB8ue170006Ev, symObjAddr: 0x2C844, symBinAddr: 0x10002FF68, symSize: 0x24 }
  - { offsetInCU: 0x5B578, offset: 0x5B578, size: 0x8, addend: 0x0, symName: __ZNSt3__117__compressed_pairIPNS_11__tree_nodeIiPvEENS_22__tree_node_destructorINS_9allocatorIS3_EEEEE5firstB8ue170006Ev, symObjAddr: 0x2C868, symBinAddr: 0x10002FF8C, symSize: 0x24 }
  - { offsetInCU: 0x5B59E, offset: 0x5B59E, size: 0x8, addend: 0x0, symName: __ZNSt3__122__compressed_pair_elemIPNS_11__tree_nodeIiPvEELi0ELb0EE5__getB8ue170006Ev, symObjAddr: 0x2C88C, symBinAddr: 0x10002FFB0, symSize: 0x14 }
  - { offsetInCU: 0x5B5C4, offset: 0x5B5C4, size: 0x8, addend: 0x0, symName: __ZNSt3__110unique_ptrINS_11__tree_nodeIiPvEENS_22__tree_node_destructorINS_9allocatorIS3_EEEEED2B8ue170006Ev, symObjAddr: 0x2C8A0, symBinAddr: 0x10002FFC4, symSize: 0x30 }
  - { offsetInCU: 0x5B5EE, offset: 0x5B5EE, size: 0x8, addend: 0x0, symName: __ZNSt3__110unique_ptrINS_11__tree_nodeIiPvEENS_22__tree_node_destructorINS_9allocatorIS3_EEEEE5resetB8ue170006EPS3_, symObjAddr: 0x2C8D0, symBinAddr: 0x10002FFF4, symSize: 0x78 }
  - { offsetInCU: 0x5B632, offset: 0x5B632, size: 0x8, addend: 0x0, symName: __ZNSt3__122__tree_node_destructorINS_9allocatorINS_11__tree_nodeIiPvEEEEEclB8ue170006EPS4_, symObjAddr: 0x2C948, symBinAddr: 0x10003006C, symSize: 0x90 }
  - { offsetInCU: 0x5B667, offset: 0x5B667, size: 0x8, addend: 0x0, symName: __ZNSt3__116allocator_traitsINS_9allocatorINS_11__tree_nodeIiPvEEEEE7destroyB8ue170006IivvEEvRS5_PT_, symObjAddr: 0x2C9D8, symBinAddr: 0x1000300FC, symSize: 0x14 }
  - { offsetInCU: 0x5B6A2, offset: 0x5B6A2, size: 0x8, addend: 0x0, symName: __ZNSt3__116allocator_traitsINS_9allocatorINS_11__tree_nodeIiPvEEEEE10deallocateB8ue170006ERS5_PS4_m, symObjAddr: 0x2C9EC, symBinAddr: 0x100030110, symSize: 0x34 }
  - { offsetInCU: 0x5B6E4, offset: 0x5B6E4, size: 0x8, addend: 0x0, symName: __ZNSt3__19allocatorINS_11__tree_nodeIiPvEEE10deallocateB8ue170006EPS3_m, symObjAddr: 0x2CA20, symBinAddr: 0x100030144, symSize: 0x40 }
  - { offsetInCU: 0x5B726, offset: 0x5B726, size: 0x8, addend: 0x0, symName: __ZNSt3__115__tree_iteratorIiPNS_11__tree_nodeIiPvEElEC2B8ue170006ES4_, symObjAddr: 0x2CA60, symBinAddr: 0x100030184, symSize: 0x20 }
  - { offsetInCU: 0x5B75F, offset: 0x5B75F, size: 0x8, addend: 0x0, symName: __ZNSt3__14pairINS_15__tree_iteratorIiPNS_11__tree_nodeIiPvEElEEbEC2B8ue170006IS6_RbLS3_0EEEOT_OT0_, symObjAddr: 0x2CA80, symBinAddr: 0x1000301A4, symSize: 0x38 }
  - { offsetInCU: 0x5B7BD, offset: 0x5B7BD, size: 0x8, addend: 0x0, symName: __ZNSt3__16__treeIiNS_4lessIiEENS_9allocatorIiEEED2Ev, symObjAddr: 0x2CAB8, symBinAddr: 0x1000301DC, symSize: 0x38 }
  - { offsetInCU: 0x5B7E9, offset: 0x5B7E9, size: 0x8, addend: 0x0, symName: __ZNSt3__16__treeIiNS_4lessIiEENS_9allocatorIiEEE7destroyEPNS_11__tree_nodeIiPvEE, symObjAddr: 0x2CAF0, symBinAddr: 0x100030214, symSize: 0x9C }
  - { offsetInCU: 0x5B83D, offset: 0x5B83D, size: 0x8, addend: 0x0, symName: __ZNSt3__13setIiNS_4lessIiEENS_9allocatorIiEEED2B8ue170006Ev, symObjAddr: 0x2CB8C, symBinAddr: 0x1000302B0, symSize: 0x2C }
  - { offsetInCU: 0x5B867, offset: 0x5B867, size: 0x8, addend: 0x0, symName: __ZNSt3__13setIiNS_4lessIiEENS_9allocatorIiEEEC2B8ue170006Ev, symObjAddr: 0x2CBB8, symBinAddr: 0x1000302DC, symSize: 0x30 }
  - { offsetInCU: 0x5B891, offset: 0x5B891, size: 0x8, addend: 0x0, symName: __ZNKSt3__13setIiNS_4lessIiEENS_9allocatorIiEEE5beginB8ue170006Ev, symObjAddr: 0x2CBE8, symBinAddr: 0x10003030C, symSize: 0x2C }
  - { offsetInCU: 0x5B8B7, offset: 0x5B8B7, size: 0x8, addend: 0x0, symName: __ZNKSt3__16__treeIiNS_4lessIiEENS_9allocatorIiEEE5beginB8ue170006Ev, symObjAddr: 0x2CC48, symBinAddr: 0x10003036C, symSize: 0x34 }
  - { offsetInCU: 0x5B8DD, offset: 0x5B8DD, size: 0x8, addend: 0x0, symName: __ZNKSt3__16__treeIiNS_4lessIiEENS_9allocatorIiEEE12__begin_nodeB8ue170006Ev, symObjAddr: 0x2CC7C, symBinAddr: 0x1000303A0, symSize: 0x14 }
  - { offsetInCU: 0x5B903, offset: 0x5B903, size: 0x8, addend: 0x0, symName: __ZNSt3__18multisetIiNS_4lessIiEENS_9allocatorIiEEEC2B8ue170006ESt16initializer_listIiERKS2_, symObjAddr: 0x2CC90, symBinAddr: 0x1000303B4, symSize: 0x94 }
  - { offsetInCU: 0x5B94B, offset: 0x5B94B, size: 0x8, addend: 0x0, symName: __ZNSt3__18multisetIiNS_4lessIiEENS_9allocatorIiEEE6insertB8ue170006IPKiEEvT_S9_, symObjAddr: 0x2CD24, symBinAddr: 0x100030448, symSize: 0x80 }
  - { offsetInCU: 0x5B9B5, offset: 0x5B9B5, size: 0x8, addend: 0x0, symName: __ZNKSt3__18multisetIiNS_4lessIiEENS_9allocatorIiEEE4cendB8ue170006Ev, symObjAddr: 0x2CDA4, symBinAddr: 0x1000304C8, symSize: 0x2C }
  - { offsetInCU: 0x5B9DB, offset: 0x5B9DB, size: 0x8, addend: 0x0, symName: __ZNSt3__16__treeIiNS_4lessIiEENS_9allocatorIiEEE14__insert_multiB8ue170006IRKiEENS_15__tree_iteratorIiPNS_11__tree_nodeIiPvEElEENS_21__tree_const_iteratorIiSD_lEEOT_, symObjAddr: 0x2CDD0, symBinAddr: 0x1000304F4, symSize: 0x44 }
  - { offsetInCU: 0x5BA28, offset: 0x5BA28, size: 0x8, addend: 0x0, symName: __ZNKSt3__18multisetIiNS_4lessIiEENS_9allocatorIiEEE3endB8ue170006Ev, symObjAddr: 0x2CE14, symBinAddr: 0x100030538, symSize: 0x2C }
  - { offsetInCU: 0x5BA4E, offset: 0x5BA4E, size: 0x8, addend: 0x0, symName: __ZNSt3__16__treeIiNS_4lessIiEENS_9allocatorIiEEE20__emplace_hint_multiIJRKiEEENS_15__tree_iteratorIiPNS_11__tree_nodeIiPvEElEENS_21__tree_const_iteratorIiSD_lEEDpOT_, symObjAddr: 0x2CE40, symBinAddr: 0x100030564, symSize: 0xE8 }
  - { offsetInCU: 0x5BACD, offset: 0x5BACD, size: 0x8, addend: 0x0, symName: __ZNSt3__16__treeIiNS_4lessIiEENS_9allocatorIiEEE11__find_leafENS_21__tree_const_iteratorIiPNS_11__tree_nodeIiPvEElEERPNS_15__tree_end_nodeIPNS_16__tree_node_baseIS8_EEEERKi, symObjAddr: 0x2CF28, symBinAddr: 0x10003064C, symSize: 0x1BC }
  - { offsetInCU: 0x5BB3F, offset: 0x5BB3F, size: 0x8, addend: 0x0, symName: __ZNSt3__16__treeIiNS_4lessIiEENS_9allocatorIiEEE16__find_leaf_highERPNS_15__tree_end_nodeIPNS_16__tree_node_baseIPvEEEERKi, symObjAddr: 0x2D0E4, symBinAddr: 0x100030808, symSize: 0x124 }
  - { offsetInCU: 0x5BB94, offset: 0x5BB94, size: 0x8, addend: 0x0, symName: __ZNSt3__16__treeIiNS_4lessIiEENS_9allocatorIiEEE15__find_leaf_lowERPNS_15__tree_end_nodeIPNS_16__tree_node_baseIPvEEEERKi, symObjAddr: 0x2D208, symBinAddr: 0x10003092C, symSize: 0x124 }
  - { offsetInCU: 0x5BBE9, offset: 0x5BBE9, size: 0x8, addend: 0x0, symName: __ZNSt3__18multisetIiNS_4lessIiEENS_9allocatorIiEEED2B8ue170006Ev, symObjAddr: 0x2D32C, symBinAddr: 0x100030A50, symSize: 0x2C }
  - { offsetInCU: 0x5BC13, offset: 0x5BC13, size: 0x8, addend: 0x0, symName: __ZNSt3__16__treeIiNS_4lessIiEENS_9allocatorIiEEE14__insert_multiB8ue170006EOi, symObjAddr: 0x2D358, symBinAddr: 0x100030A7C, symSize: 0x34 }
  - { offsetInCU: 0x5BC48, offset: 0x5BC48, size: 0x8, addend: 0x0, symName: __ZNSt3__16__treeIiNS_4lessIiEENS_9allocatorIiEEE15__emplace_multiIJiEEENS_15__tree_iteratorIiPNS_11__tree_nodeIiPvEElEEDpOT_, symObjAddr: 0x2D38C, symBinAddr: 0x100030AB0, symSize: 0xAC }
  - { offsetInCU: 0x5BCB7, offset: 0x5BCB7, size: 0x8, addend: 0x0, symName: __ZNSt3__16__treeIiNS_4lessIiEENS_9allocatorIiEEE16__construct_nodeIJiEEENS_10unique_ptrINS_11__tree_nodeIiPvEENS_22__tree_node_destructorINS3_ISA_EEEEEEDpOT_, symObjAddr: 0x2D438, symBinAddr: 0x100030B5C, symSize: 0x108 }
  - { offsetInCU: 0x5BD18, offset: 0x5BD18, size: 0x8, addend: 0x0, symName: __ZNSt3__116allocator_traitsINS_9allocatorINS_11__tree_nodeIiPvEEEEE9constructB8ue170006IiJiEvEEvRS5_PT_DpOT0_, symObjAddr: 0x2D540, symBinAddr: 0x100030C64, symSize: 0x34 }
  - { offsetInCU: 0x5BD6F, offset: 0x5BD6F, size: 0x8, addend: 0x0, symName: __ZNSt3__19allocatorINS_11__tree_nodeIiPvEEE9constructB8ue170006IiJiEEEvPT_DpOT0_, symObjAddr: 0x2D574, symBinAddr: 0x100030C98, symSize: 0x28 }
  - { offsetInCU: 0x5BDC5, offset: 0x5BDC5, size: 0x8, addend: 0x0, symName: __ZNKSt3__18multisetIiNS_4lessIiEENS_9allocatorIiEEE5beginB8ue170006Ev, symObjAddr: 0x2D59C, symBinAddr: 0x100030CC0, symSize: 0x2C }
  - { offsetInCU: 0x5BDEB, offset: 0x5BDEB, size: 0x8, addend: 0x0, symName: __ZNSt3__13mapIPKciNS_4lessIS2_EENS_9allocatorINS_4pairIKS2_iEEEEEC2B8ue170006Ev, symObjAddr: 0x2D5C8, symBinAddr: 0x100030CEC, symSize: 0x40 }
  - { offsetInCU: 0x5BE15, offset: 0x5BE15, size: 0x8, addend: 0x0, symName: __ZNSt3__119__map_value_compareIPKcNS_12__value_typeIS2_iEENS_4lessIS2_EELb1EEC1B8ue170006ES6_, symObjAddr: 0x2D608, symBinAddr: 0x100030D2C, symSize: 0x2C }
  - { offsetInCU: 0x5BE4E, offset: 0x5BE4E, size: 0x8, addend: 0x0, symName: __ZNSt3__16__treeINS_12__value_typeIPKciEENS_19__map_value_compareIS3_S4_NS_4lessIS3_EELb1EEENS_9allocatorIS4_EEEC1ERKS8_, symObjAddr: 0x2D634, symBinAddr: 0x100030D58, symSize: 0x34 }
